 NxCooking

 Timestamp is 492bb088 (Tue Nov 25 17:00:08 2008)

 Preferred load address is 10000000

 Start         Length     Name                   Class
 0001:00000000 00091d53H .text                   CODE
 0001:00091d60 00002902H .text$x                 CODE
 0001:00094670 00001083H .text$yc                CODE
 0001:00095700 000011cdH .text$yd                CODE
 0002:00000000 000098e1H .rdata                  DATA
 0002:000098e4 00000176H .rdata$debug            DATA
 0002:00009a5c 0000040eH .rdata$r                DATA
 0002:00009e70 00000391H .rdata$sxdata           DATA
 0002:0000a204 00000104H .rtc$IAA                DATA
 0002:0000a308 00000104H .rtc$IZZ                DATA
 0002:0000a40c 00000104H .rtc$TAA                DATA
 0002:0000a510 00000104H .rtc$TZZ                DATA
 0002:0000a614 00001ebfH .xdata$x                DATA
 0002:0000c4e0 000002edH .edata                  DATA
 0003:00000000 00000104H .CRT$XCA                DATA
 0003:00000104 00000104H .CRT$XCAA               DATA
 0003:00000208 0000011cH .CRT$XCU                DATA
 0003:00000324 00000104H .CRT$XCZ                DATA
 0003:00000428 00000104H .CRT$XIA                DATA
 0003:0000052c 00000113H .CRT$XIC                DATA
 0003:00000640 00000104H .CRT$XIY                DATA
 0003:00000744 00000104H .CRT$XIZ                DATA
 0003:00000848 00000104H .CRT$XPA                DATA
 0003:0000094c 00000104H .CRT$XPX                DATA
 0003:00000a50 00000104H .CRT$XPZ                DATA
 0003:00000b54 00000104H .CRT$XTA                DATA
 0003:00000c58 00000104H .CRT$XTB                DATA
 0003:00000d5c 00000104H .CRT$XTZ                DATA
 0003:00000e60 00002558H .data                   DATA
 0003:000033c0 000023a8H .bss                    DATA
 0004:00000000 00000014H .idata$2                DATA
 0004:00000014 00000014H .idata$3                DATA
 0004:00000028 000001fcH .idata$4                DATA
 0004:00000224 000001fcH .idata$5                DATA
 0004:00000420 000008b5H .idata$6                DATA

  Address         Publics by Value              Rva+Base     Lib:Object

 0000:00000000       __except_list              00000000     <absolute>
 0000:00000089       ___safe_se_handler_count   00000089     <absolute>
 0001:00005210       ?ZeroMemory@@YAXPAXI@Z     10006210 f i CollisionHullBuilder.obj
 0001:00005240       ??2Allocateable@IceCore@@SAPAXIW4MemoryType@1@@Z 10006240 f i CollisionHullBuilder.obj
 0001:00005260       ??3Allocateable@IceCore@@SAXPAX@Z 10006260 f i CollisionHullBuilder.obj
 0001:00005280       ??3Allocateable@IceCore@@SAXPAXW4MemoryType@1@@Z 10006280 f i CollisionHullBuilder.obj
 0001:000052a0       ??0Point@IceMaths@@QAE@MMM@Z 100062a0 f i CollisionHullBuilder.obj
 0001:000052c0       ??1Point@IceMaths@@QAE@XZ  100062c0 f i CollisionHullBuilder.obj
 0001:000052d0       ?SetMinMax@AABB@IceMaths@@QAEXABVPoint@2@0@Z 100062d0 f i CollisionHullBuilder.obj
 0001:00005310       ?ComputeMinMax@IceMaths@@YAXABVPoint@1@AAV21@1@Z 10006310 f i CollisionHullBuilder.obj
 0001:000053b0       ?ComputeAABB@@YAXAAVAABB@IceMaths@@PBVPoint@2@I@Z 100063b0 f i CollisionHullBuilder.obj
 0001:00005500       ?GetPXValenciesData@Valencies@@QAEPAUPxValenciesData@@XZ 10006500 f i CollisionHullBuilder.obj
 0001:00005510       ?GetNbFaces@ConvexHull@@QBEIXZ 10006510 f i CollisionHullBuilder.obj
 0001:00005520       ?GetFaces@ConvexHull@@QBEPBUPxHullTriangleData@@XZ 10006520 f i CollisionHullBuilder.obj
 0001:00005530       ?GetNbVerts@ConvexHull@@QBEIXZ 10006530 f i CollisionHullBuilder.obj
 0001:00005540       ?GetVerts@ConvexHull@@QBEPBVPoint@IceMaths@@XZ 10006540 f i CollisionHullBuilder.obj
 0001:00005550       ?GetValencies@CollisionHull@@QBEPBVValencies@@XZ 10006550 f i CollisionHullBuilder.obj
 0001:00005560       ??0VALENCIESCREATE@@QAE@XZ 10006560 f i CollisionHullBuilder.obj
 0001:00005580       ??0CollisionHullBuilder@@QAE@PAVCollisionHull@@@Z 10006580 f   CollisionHullBuilder.obj
 0001:000055b0       ??1CollisionHullBuilder@@UAE@XZ 100065b0 f   CollisionHullBuilder.obj
 0001:000055c0       ??_GValenciesBuilder@@QAEPAXI@Z 100065c0 f i CollisionHullBuilder.obj
 0001:000055f0       ?Save@CollisionHullBuilder@@UBE_NAAVStream@IceCore@@@Z 100065f0 f   CollisionHullBuilder.obj
 0001:00005660       ??_GCollisionHullBuilder@@UAEPAXI@Z 10006660 f i CollisionHullBuilder.obj
 0001:00005660       ??_ECollisionHullBuilder@@UAEPAXI@Z 10006660 f i CollisionHullBuilder.obj
 0001:00005690       ?ComputeValencies@CollisionHullBuilder@@AAE_NXZ 10006690 f   CollisionHullBuilder.obj
 0001:000058e0       ?Compute@CollisionHullBuilder@@UAE_NABUCONVEXHULLCREATE@@@Z 100068e0 f   CollisionHullBuilder.obj
 0001:00005910       ?Init@CollisionHullBuilder@@UAE_NABUSurfaceInterface@@PBI1PB_N@Z 10006910 f   CollisionHullBuilder.obj
 0001:000059c0       _atan2f                    100069c0 f i ConvexDecomposer.obj
 0001:000059d0       _fabsf                     100069d0 f i ConvexDecomposer.obj
 0001:000059e0       _sqrtf                     100069e0 f i ConvexDecomposer.obj
 0001:000059f0       ?Add@Container@IceCore@@QAEAAV12@I@Z 100069f0 f i ConvexDecomposer.obj
 0001:00005a30       ?Reset@Container@IceCore@@QAEXXZ 10006a30 f i ConvexDecomposer.obj
 0001:00005a50       ?GetNbEntries@Container@IceCore@@QBEIXZ 10006a50 f i ConvexDecomposer.obj
 0001:00005a60       ?GetEntries@Container@IceCore@@QBEPAIXZ 10006a60 f i ConvexDecomposer.obj
 0001:00005a70       ?GetRanks@RadixSort@IceCore@@QBEPBIXZ 10006a70 f i ConvexDecomposer.obj
 0001:00005a80       ?GetRecyclable@RadixSort@IceCore@@QBEPAIXZ 10006a80 f i ConvexDecomposer.obj
 0001:00005a90       ??0Point@IceMaths@@QAE@XZ  10006a90 f i ConvexDecomposer.obj
 0001:00005aa0       ?Magnitude@Point@IceMaths@@QBEMXZ 10006aa0 f i ConvexDecomposer.obj
 0001:00005ad0       ?Normalize@Point@IceMaths@@QAEAAV12@XZ 10006ad0 f i ConvexDecomposer.obj
 0001:00005b40       ??GPoint@IceMaths@@QBE?AV01@ABV01@@Z 10006b40 f i ConvexDecomposer.obj
 0001:00005b70       ??UPoint@IceMaths@@QBEMABV01@@Z 10006b70 f i ConvexDecomposer.obj
 0001:00005ba0       ??TPoint@IceMaths@@QBE?AV01@ABV01@@Z 10006ba0 f i ConvexDecomposer.obj
 0001:00005bf0       ??0Plane@IceMaths@@QAE@ABVPoint@1@00@Z 10006bf0 f i ConvexDecomposer.obj
 0001:00005c20       ??1Plane@IceMaths@@QAE@XZ  10006c20 f i ConvexDecomposer.obj
 0001:00005c30       ?Distance@Plane@IceMaths@@QBEMABVPoint@2@@Z 10006c30 f i ConvexDecomposer.obj
 0001:00005c60       ??0Triangle@IceMaths@@QAE@ABVPoint@1@00@Z 10006c60 f i ConvexDecomposer.obj
 0001:00005ce0       ??1Triangle@IceMaths@@QAE@XZ 10006ce0 f i ConvexDecomposer.obj
 0001:00005d00       ?Normal@Triangle@IceMaths@@QBEXAAVPoint@2@@Z 10006d00 f i ConvexDecomposer.obj
 0001:00005dd0       ??0FIFOStack@@QAE@XZ       10006dd0 f i ConvexDecomposer.obj
 0001:00005df0       ??1FIFOStack@@QAE@XZ       10006df0 f i ConvexDecomposer.obj
 0001:00005e00       ?Push@FIFOStack@@QAEAAV1@I@Z 10006e00 f i ConvexDecomposer.obj
 0001:00005e40       ?GetEdge01@PxEdgeTriangleAC@@SAIABUPxEdgeTriangleData@@@Z 10006e40 f i ConvexDecomposer.obj
 0001:00005e50       ?GetEdge12@PxEdgeTriangleAC@@SAIABUPxEdgeTriangleData@@@Z 10006e50 f i ConvexDecomposer.obj
 0001:00005e60       ?GetEdge20@PxEdgeTriangleAC@@SAIABUPxEdgeTriangleData@@@Z 10006e60 f i ConvexDecomposer.obj
 0001:00005e70       ??0EDGELISTCREATE@NxPhysics@@QAE@XZ 10006e70 f i ConvexDecomposer.obj
 0001:00005ea0       ?GetNbEdges@EdgeList@NxPhysics@@QBEIXZ 10006ea0 f i ConvexDecomposer.obj
 0001:00005eb0       ?GetEdges@EdgeList@NxPhysics@@QBEPBUPxEdgeData@@XZ 10006eb0 f i ConvexDecomposer.obj
 0001:00005ec0       ?GetEdgeTriangle@EdgeList@NxPhysics@@QBEABUPxEdgeTriangleData@@I@Z 10006ec0 f i ConvexDecomposer.obj
 0001:00005ee0       ?GetEdgeToTriangles@EdgeList@NxPhysics@@QBEPBUPxEdgeDescData@@XZ 10006ee0 f i ConvexDecomposer.obj
 0001:00005ef0       ?GetEdgeToTriangles@EdgeList@NxPhysics@@QBEABUPxEdgeDescData@@I@Z 10006ef0 f i ConvexDecomposer.obj
 0001:00005f00       ?GetFacesByEdges@EdgeList@NxPhysics@@QBEPBIXZ 10006f00 f i ConvexDecomposer.obj
 0001:00005f10       ?GetFacesByEdges@EdgeList@NxPhysics@@QBEII@Z 10006f10 f i ConvexDecomposer.obj
 0001:00005f20       ?OppositeVertex@@YAIIIIII@Z 10006f20 f i ConvexDecomposer.obj
 0001:00005f90       ??0ConvexDecomposer@@QAE@XZ 10006f90 f   ConvexDecomposer.obj
 0001:00005fb0       ??1ConvexDecomposer@@QAE@XZ 10006fb0 f   ConvexDecomposer.obj
 0001:00006070       ?ProcessPatch@ConvexDecomposer@@AAEXIPBIPBVIndexedTriangle@IceMaths@@PBVPoint@3@@Z 10007070 f   ConvexDecomposer.obj
 0001:00006570       ?MakeRelativePatch@ConvexDecomposer@@AAEXIPBI@Z 10007570 f   ConvexDecomposer.obj
 0001:000068b0       ?_TrackTriangle@ConvexDecomposer@@AAEXII@Z 100078b0 f   ConvexDecomposer.obj
 0001:00006c60       ?_TrackTriangle@ConvexDecomposer@@AAEXAAVFIFOStack@@II@Z 10007c60 f   ConvexDecomposer.obj
 0001:00007190       ?NonRecursiveTrack@ConvexDecomposer@@AAEXII@Z 10008190 f   ConvexDecomposer.obj
 0001:000072c0       ?ExtractSubmeshFromFace@ConvexDecomposer@@AAE_NII@Z 100082c0 f   ConvexDecomposer.obj
 0001:000072f0       ?Decompose@ConvexDecomposer@@QAE_NIPBVIndexedTriangle@IceMaths@@IPBVPoint@3@@Z 100082f0 f   ConvexDecomposer.obj
 0001:00008450       _asinf                     10009450 f i ConvexHullBuilder.obj
 0001:00008460       ?CopyMemory@@YAXPAXPBXI@Z  10009460 f i ConvexHullBuilder.obj
 0001:00008490       ??_UAllocateable@IceCore@@SAPAXIW4MemoryType@1@@Z 10009490 f i ConvexHullBuilder.obj
 0001:000084b0       ??_VAllocateable@IceCore@@SAXPAX@Z 100094b0 f i ConvexHullBuilder.obj
 0001:000084d0       ??_VAllocateable@IceCore@@SAXPAXW4MemoryType@1@@Z 100094d0 f i ConvexHullBuilder.obj
 0001:000084f0       ?Swap@IceCore@@YAXAAI0@Z   100094f0 f i ConvexHullBuilder.obj
 0001:00008520       ?Add@Container@IceCore@@QAEAAV12@PBII@Z 10009520 f i ConvexHullBuilder.obj
 0001:00008580       ?GetEntry@Container@IceCore@@QBEII@Z 10009580 f i ConvexHullBuilder.obj
 0001:00008590       ??0BasicRandom@IceCore@@QAE@I@Z 10009590 f i ConvexHullBuilder.obj
 0001:000085a0       ??1BasicRandom@IceCore@@QAE@XZ 100095a0 f i ConvexHullBuilder.obj
 0001:000085b0       ?GetCurrentValue@BasicRandom@IceCore@@QBEIXZ 100095b0 f i ConvexHullBuilder.obj
 0001:000085c0       ?Randomize@BasicRandom@IceCore@@QAEIXZ 100095c0 f i ConvexHullBuilder.obj
 0001:000085e0       ?Flip@IceCore@@YAXAAG@Z    100095e0 f i ConvexHullBuilder.obj
 0001:00008600       ?Flip@IceCore@@YAXAAI@Z    10009600 f i ConvexHullBuilder.obj
 0001:00008630       ?Flip@IceCore@@YAXAAM@Z    10009630 f i ConvexHullBuilder.obj
 0001:00008660       ??0Point@IceMaths@@QAE@ABV01@@Z 10009660 f i ConvexHullBuilder.obj
 0001:00008680       ?Neg@Point@IceMaths@@QAEAAV12@XZ 10009680 f i ConvexHullBuilder.obj
 0001:000086a0       ?Distance@Point@IceMaths@@QBEMABV12@@Z 100096a0 f i ConvexHullBuilder.obj
 0001:000086e0       ?Dot@Point@IceMaths@@QBEMABV12@@Z 100096e0 f i ConvexHullBuilder.obj
 0001:00008710       ??GPoint@IceMaths@@QBE?AV01@XZ 10009710 f i ConvexHullBuilder.obj
 0001:00008740       ??HPoint@IceMaths@@QBE?AV01@ABV01@@Z 10009740 f i ConvexHullBuilder.obj
 0001:00008770       ??DPoint@IceMaths@@QBE?AV01@M@Z 10009770 f i ConvexHullBuilder.obj
 0001:000087a0       ??YPoint@IceMaths@@QAEAAV01@ABV01@@Z 100097a0 f i ConvexHullBuilder.obj
 0001:000087d0       ??XPoint@IceMaths@@QAEAAV01@M@Z 100097d0 f i ConvexHullBuilder.obj
 0001:00008800       ??0Plane@IceMaths@@QAE@XZ  10009800 f i ConvexHullBuilder.obj
 0001:00008810       ?Set@Plane@IceMaths@@QAEAAV12@ABVPoint@2@0@Z 10009810 f i ConvexHullBuilder.obj
 0001:00008870       ??BPlane@IceMaths@@QBE?AVPoint@1@XZ 10009870 f i ConvexHullBuilder.obj
 0001:00008890       ??0IndexedTriangle@IceMaths@@QAE@XZ 10009890 f i ConvexHullBuilder.obj
 0001:000088a0       ??1IndexedTriangle@IceMaths@@QAE@XZ 100098a0 f i ConvexHullBuilder.obj
 0001:000088b0       ?DenormalizedNormal@IndexedTriangle@IceMaths@@QBEXPBVPoint@2@AAV32@@Z 100098b0 f i ConvexHullBuilder.obj
 0001:00008940       ?PlaneEquation@IndexedTriangle@IceMaths@@QBE?AVPlane@2@PBVPoint@2@@Z 10009940 f i ConvexHullBuilder.obj
 0001:00008980       ?Flip@PxHullTriangleAC@@SAXAAUPxHullTriangleData@@@Z 10009980 f i ConvexHullBuilder.obj
 0001:000089a0       ?GetVertexNormals@ConvexHull@@QBEPBVPoint@IceMaths@@XZ 100099a0 f i ConvexHullBuilder.obj
 0001:000089b0       ?GetAdjTri@AdjTriangle@@QBEIW4SharedEdgeIndex@@@Z 100099b0 f i ConvexHullBuilder.obj
 0001:000089d0       ?HasActiveEdge01@AdjTriangle@@QBEHXZ 100099d0 f i ConvexHullBuilder.obj
 0001:000089e0       ?HasActiveEdge20@AdjTriangle@@QBEHXZ 100099e0 f i ConvexHullBuilder.obj
 0001:000089f0       ?HasActiveEdge12@AdjTriangle@@QBEHXZ 100099f0 f i ConvexHullBuilder.obj
 0001:00008a00       ??0ADJACENCIESCREATE@@QAE@XZ 10009a00 f i ConvexHullBuilder.obj
 0001:00008a20       ??0MBTopology@@QAE@XZ      10009a20 f i ConvexHullBuilder.obj
 0001:00008a50       ??0MBGeometry@@QAE@XZ      10009a50 f i ConvexHullBuilder.obj
 0001:00008a70       ??0MBMaterials@@QAE@XZ     10009a70 f i ConvexHullBuilder.obj
 0001:00008a90       ??0MBCreate@@QAE@XZ        10009a90 f i ConvexHullBuilder.obj
 0001:00008ac0       ??0MBFaceData@@QAE@XZ      10009ac0 f i ConvexHullBuilder.obj
 0001:00008af0       ?GetNbReducedVerts@ReducedVertexCloud@@QBEIXZ 10009af0 f i ConvexHullBuilder.obj
 0001:00008b00       ?GetReducedVerts@ReducedVertexCloud@@QBEPBVPoint@IceMaths@@XZ 10009b00 f i ConvexHullBuilder.obj
 0001:00008b10       ??0NORMALSCREATE@@QAE@XZ   10009b10 f i ConvexHullBuilder.obj
 0001:00008b40       ?ComputeEdges@ConvexHullBuilder@@QBEPBUPxEdge8Data@@XZ 10009b40 f i ConvexHullBuilder.obj
 0001:00008b70       ?ComputeEdgeToTriangles@ConvexHullBuilder@@QBEPBUPxEdgeDescData@@XZ 10009b70 f i ConvexHullBuilder.obj
 0001:00008ba0       ?ComputeFacesByEdges@ConvexHullBuilder@@QBEPBEXZ 10009ba0 f i ConvexHullBuilder.obj
 0001:00008bd0       ?FloodFill@Local@?M@??ExtractHullPolygons@@YA_NAAIAAVContainer@IceCore@@ABVConvexHullBuilder@@PAV34@@Z@SAX1PBVAdjTriangle@@IPA_N@Z 10009bd0 f   ConvexHullBuilder.obj
 0001:00008e10       ?TestUnifiedNormals@@YA_NIPBVPoint@IceMaths@@IPAVIndexedTriangle@2@_N@Z 10009e10 f   ConvexHullBuilder.obj
 0001:00009300       ??0MBResult@@QAE@XZ        1000a300 f i ConvexHullBuilder.obj
 0001:00009390       ??0ConvexHullBuilder@@QAE@PAVConvexHull@@@Z 1000a390 f   ConvexHullBuilder.obj
 0001:000093b0       ??1ConvexHullBuilder@@UAE@XZ 1000a3b0 f   ConvexHullBuilder.obj
 0001:000093c0       ?gMyRand@@YAIAAVBasicRandom@IceCore@@@Z 1000a3c0 f i ConvexHullBuilder.obj
 0001:000093e0       ??_EIndexedTriangle@IceMaths@@QAEPAXI@Z 1000a3e0 f i ConvexHullBuilder.obj
 0001:00009450       ?CreateTrianglesFromPolygons@ConvexHullBuilder@@QAE_NXZ 1000a450 f   ConvexHullBuilder.obj
 0001:00009690       ?CheckHullPolygons@ConvexHullBuilder@@QBE_NXZ 1000a690 f   ConvexHullBuilder.obj
 0001:000097b0       ?SafeASin@@YAMM@Z          1000a7b0 f i ConvexHullBuilder.obj
 0001:00009a30       ?EncodeNormal@@YAGABUPxdVector_@@@Z 1000aa30 f i ConvexHullBuilder.obj
 0001:00009aa0       ?CreateNormals@ConvexHullBuilder@@QAE_NXZ 1000aaa0 f   ConvexHullBuilder.obj
 0001:00009c90       ?Add@Container@IceCore@@QAEAAV12@ABV12@@Z 1000ac90 f i ConvexHullBuilder.obj
 0001:00009cf0       ?ComputeVertexNormals@ConvexHullBuilder@@QBEPBVPoint@IceMaths@@XZ 1000acf0 f i ConvexHullBuilder.obj
 0001:00009d20       ?ExtractHullPolygons@@YA_NAAIAAVContainer@IceCore@@ABVConvexHullBuilder@@PAV12@@Z 1000ad20 f   ConvexHullBuilder.obj
 0001:0000a620       ??_EConvexHullBuilder@@UAEPAXI@Z 1000b620 f i ConvexHullBuilder.obj
 0001:0000a620       ??_GConvexHullBuilder@@UAEPAXI@Z 1000b620 f i ConvexHullBuilder.obj
 0001:0000a650       ?CreatePolygonData@ConvexHullBuilder@@QAE_NXZ 1000b650 f   ConvexHullBuilder.obj
 0001:0000ac80       ?ComputeNbPolygons@ConvexHullBuilder@@QBEIXZ 1000bc80 f i ConvexHullBuilder.obj
 0001:0000acb0       ?ComputePolygon@ConvexHullBuilder@@QBEABUPxHullPolygonData@@I@Z 1000bcb0 f i ConvexHullBuilder.obj
 0001:0000acf0       ?Compute@ConvexHullBuilder@@UAE_NABUCONVEXHULLCREATE@@@Z 1000bcf0 f   ConvexHullBuilder.obj
 0001:0000be70       ?Init@ConvexHullBuilder@@UAE_NABUSurfaceInterface@@PBI1PB_N@Z 1000ce70 f   ConvexHullBuilder.obj
 0001:0000c420       ?CreateEdgeList@ConvexHullBuilder@@QAE_NXZ 1000d420 f   ConvexHullBuilder.obj
 0001:0000ce50       ?ComputeNbEdges@ConvexHullBuilder@@QBEIXZ 1000de50 f i ConvexHullBuilder.obj
 0001:0000ce80       ?Save@ConvexHullBuilder@@UBE_NAAVStream@IceCore@@@Z 1000de80 f   ConvexHullBuilder.obj
 0001:0000d6d0       _powf                      1000e6d0 f i ConvexMeshBuilder.obj
 0001:0000d6f0       ?isFinite@NxMath@@SA_NM@Z  1000e6f0 f i ConvexMeshBuilder.obj
 0001:0000d720       ??0NxVec3@@QAE@XZ          1000e720 f i ConvexMeshBuilder.obj
 0001:0000d730       ??4NxVec3@@QAEABV0@ABV0@@Z 1000e730 f i ConvexMeshBuilder.obj
 0001:0000d750       ?isFinite@NxVec3@@QBE_NXZ  1000e750 f i ConvexMeshBuilder.obj
 0001:0000d7c0       ??XNxVec3@@QAEAAV0@M@Z     1000e7c0 f i ConvexMeshBuilder.obj
 0001:0000d7f0       ??RNxMat33@@QAEAAMHH@Z     1000e7f0 f i ConvexMeshBuilder.obj
 0001:0000d810       ?isFinite@NxMat33@@QBE_NXZ 1000e810 f i ConvexMeshBuilder.obj
 0001:0000d940       ?setNegative@NxMat33@@QAEXXZ 1000e940 f i ConvexMeshBuilder.obj
 0001:0000d9a0       ??XNxMat33@@QAEABV0@M@Z    1000e9a0 f i ConvexMeshBuilder.obj
 0001:0000da20       ?setToDefault@NxSimpleTriangleMesh@@QAEXXZ 1000ea20 f i ConvexMeshBuilder.obj
 0001:0000da40       ?set@NxBounds3@@QAEXABVNxVec3@@0@Z 1000ea40 f i ConvexMeshBuilder.obj
 0001:0000da80       ?scale@NxBounds3@@QAEXM@Z  1000ea80 f i ConvexMeshBuilder.obj
 0001:0000dad0       ??_H@YGXPAXIHP6EPAX0@Z@Z   1000ead0 f i ConvexMeshBuilder.obj
 0001:0000db10       ??0Stream@IceCore@@QAE@XZ  1000eb10 f i ConvexMeshBuilder.obj
 0001:0000db20       ??1Stream@IceCore@@UAE@XZ  1000eb20 f i ConvexMeshBuilder.obj
 0001:0000db30       ??_GStream@IceCore@@UAEPAXI@Z 1000eb30 f i ConvexMeshBuilder.obj
 0001:0000db30       ??_EStream@IceCore@@UAEPAXI@Z 1000eb30 f i ConvexMeshBuilder.obj
 0001:0000db60       ?SetNbTriangles@MeshInterface@Opcode@@QAEXI@Z 1000eb60 f i ConvexMeshBuilder.obj
 0001:0000db70       ?SetNbVertices@MeshInterface@Opcode@@QAEXI@Z 1000eb70 f i ConvexMeshBuilder.obj
 0001:0000db80       ??0SurfaceInterface@@QAE@XZ 1000eb80 f i ConvexMeshBuilder.obj
 0001:0000dba0       ??0CONVEXHULLCREATE@@QAE@XZ 1000eba0 f i ConvexMeshBuilder.obj
 0001:0000dbc0       ?GetNbPolygons@ConvexHull@@QBEIXZ 1000ebc0 f i ConvexMeshBuilder.obj
 0001:0000dbd0       ?getInternalTrisFast@ConvexMesh@@QBEPBUPxHullTriangleData@@XZ 1000ebd0 f i ConvexMeshBuilder.obj
 0001:0000dbe0       ?getInternalVertsFast@ConvexMesh@@QBEPBVNxVec3@@XZ 1000ebe0 f i ConvexMeshBuilder.obj
 0001:0000dbf0       ?getConvexMeshData@ConvexMesh@@QAEPAUPxConvexMeshData_@@XZ 1000ebf0 f i ConvexMeshBuilder.obj
 0001:0000dc00       ?getInstance@FoundationSDK@NxFoundation@@SAAAV12@XZ 1000ec00 f i ConvexMeshBuilder.obj
 0001:0000dc20       ?error@FoundationSDK@NxFoundation@@SA_NW4NxErrorCode@@PBDHPA_N1ZZ 1000ec20 f i ConvexMeshBuilder.obj
 0001:0000dc70       ?NxFlexiCopy@@YAXPBXPAXIII@Z 1000ec70 f i ConvexMeshBuilder.obj
 0001:0000dcd0       ?isValid@NxConvexMeshDesc@@QBE_NXZ 1000ecd0 f i ConvexMeshBuilder.obj
 0001:0000dd40       ?getOriginInertia@NxIntegrals@@QAEXAAVNxMat33@@@Z 1000ed40 f i ConvexMeshBuilder.obj
 0001:0000dee0       ??0ConvexMeshBuilder@@QAE@XZ 1000eee0 f   ConvexMeshBuilder.obj
 0001:0000df00       ?canRunOnHW@ConvexMesh@@UBE_NXZ 1000ef00 f i ConvexMeshBuilder.obj
 0001:0000df30       ??1ConvexMeshBuilder@@QAE@XZ 1000ef30 f   ConvexMeshBuilder.obj
 0001:0000df40       ??0StreamSave@@QAE@AAVNxStream@@@Z 1000ef40 f i ConvexMeshBuilder.obj
 0001:0000df60       ?ReadByte@StreamSave@@UBEEXZ 1000ef60 f i ConvexMeshBuilder.obj
 0001:0000df70       ?ReadWord@StreamSave@@UBEGXZ 1000ef70 f i ConvexMeshBuilder.obj
 0001:0000df80       ?ReadDword@StreamSave@@UBEIXZ 1000ef80 f i ConvexMeshBuilder.obj
 0001:0000df90       ?ReadFloat@StreamSave@@UBEMXZ 1000ef90 f i ConvexMeshBuilder.obj
 0001:0000dfa0       ?ReadDouble@StreamSave@@UBENXZ 1000efa0 f i ConvexMeshBuilder.obj
 0001:0000dfb0       ?ReadBuffer@StreamSave@@UBEXPAXI@Z 1000efb0 f i ConvexMeshBuilder.obj
 0001:0000dfc0       ?StoreByte@StreamSave@@UAEAAVStream@IceCore@@E@Z 1000efc0 f i ConvexMeshBuilder.obj
 0001:0000dfe0       ?StoreWord@StreamSave@@UAEAAVStream@IceCore@@G@Z 1000efe0 f i ConvexMeshBuilder.obj
 0001:0000e000       ?StoreDword@StreamSave@@UAEAAVStream@IceCore@@I@Z 1000f000 f i ConvexMeshBuilder.obj
 0001:0000e020       ?StoreFloat@StreamSave@@UAEAAVStream@IceCore@@M@Z 1000f020 f i ConvexMeshBuilder.obj
 0001:0000e040       ?StoreDouble@StreamSave@@UAEAAVStream@IceCore@@N@Z 1000f040 f i ConvexMeshBuilder.obj
 0001:0000e070       ?StoreBuffer@StreamSave@@UAEAAVStream@IceCore@@PBXI@Z 1000f070 f i ConvexMeshBuilder.obj
 0001:0000e0a0       ??1StreamSave@@UAE@XZ      1000f0a0 f i ConvexMeshBuilder.obj
 0001:0000e0b0       ?createOpcodeModel@ConvexMeshBuilder@@AAE_NXZ 1000f0b0 f   ConvexMeshBuilder.obj
 0001:0000e210       ??0NxIntegrals@@QAE@XZ     1000f210 f i ConvexMeshBuilder.obj
 0001:0000e220       ?computeConvexHull@ConvexMeshBuilder@@QAE_NABVNxConvexMeshDesc@@@Z 1000f220 f   ConvexMeshBuilder.obj
 0001:0000e330       ?loadConvexHull@ConvexMeshBuilder@@QAE_NABVNxConvexMeshDesc@@@Z 1000f330 f   ConvexMeshBuilder.obj
 0001:0000e580       ?computeLocalBounds@ConvexMeshBuilder@@QAEXXZ 1000f580 f   ConvexMeshBuilder.obj
 0001:0000e670       ?computeGaussMaps@ConvexMeshBuilder@@QAE_NXZ 1000f670 f   ConvexMeshBuilder.obj
 0001:0000e7c0       ?scale@ConvexMeshBuilder@@QAE_NM@Z 1000f7c0 f   ConvexMeshBuilder.obj
 0001:0000ecc0       ??0NxSimpleTriangleMesh@@QAE@XZ 1000fcc0 f i ConvexMeshBuilder.obj
 0001:0000ece0       ?getNpConvexMesh@ConvexMesh@@UAEPAVNpConvexMesh@@XZ 1000fce0 f i ConvexMeshBuilder.obj
 0001:0000ecf0       ?setNpConvexMesh@ConvexMesh@@UAEXPAVNpConvexMesh@@@Z 1000fcf0 f i ConvexMeshBuilder.obj
 0001:0000ed00       ?getNumVertices@ConvexMesh@@UBEIXZ 1000fd00 f i ConvexMeshBuilder.obj
 0001:0000ed10       ?getNumTriangles@ConvexMesh@@UBEIXZ 1000fd10 f i ConvexMeshBuilder.obj
 0001:0000ed20       ?getInternalTris@ConvexMesh@@UBEPBUNxTriangle32@@XZ 1000fd20 f i ConvexMeshBuilder.obj
 0001:0000ed30       ?getInternalVerts@ConvexMesh@@UBEPBVNxVec3@@XZ 1000fd30 f i ConvexMeshBuilder.obj
 0001:0000ed40       ?loadFromDesc@ConvexMeshBuilder@@QAE_NABVNxConvexMeshDesc@@@Z 1000fd40 f   ConvexMeshBuilder.obj
 0001:0000efd0       ??_GStreamSave@@UAEPAXI@Z  1000ffd0 f i ConvexMeshBuilder.obj
 0001:0000efd0       ??_EStreamSave@@UAEPAXI@Z  1000ffd0 f i ConvexMeshBuilder.obj
 0001:0000f000       ?computeMassInfo@ConvexMeshBuilder@@QBEPBVMeshMassInfo@@XZ 10010000 f   ConvexMeshBuilder.obj
 0001:0000f390       ?save@ConvexMeshBuilder@@QBE_NAAVNxStream@@I@Z 10010390 f   ConvexMeshBuilder.obj
 0001:0000f650       ??0NxVec3@@QAE@MMM@Z       10010650 f i Cooking.obj
 0001:0000f670       ??0NxVec3@@QAE@ABV0@@Z     10010670 f i Cooking.obj
 0001:0000f690       ??HNxVec3@@QBE?AV0@ABV0@@Z 10010690 f i Cooking.obj
 0001:0000f6c0       ??1NxMat33@@QAE@XZ         100106c0 f i Cooking.obj
 0001:0000f6d0       ?multiply@NxMat33@@QBEXABVNxVec3@@AAV2@@Z 100106d0 f i Cooking.obj
 0001:0000f740       ??DNxMat33@@QBE?AVNxVec3@@ABV1@@Z 10010740 f i Cooking.obj
 0001:0000f7b0       ??1NxMat34@@QAE@XZ         100107b0 f i Cooking.obj
 0001:0000f7c0       ?multiply@NxMat34@@QBEXABVNxVec3@@AAV2@@Z 100107c0 f i Cooking.obj
 0001:0000f850       ?isValid@NxSimpleTriangleMesh@@QBE_NXZ 10010850 f i Cooking.obj
 0001:0000f8b0       ?isValid@NxTriangleMeshDesc@@QBE_NXZ 100108b0 f i Cooking.obj
 0001:0000f950       ??2NxAllocateable@NxFoundation@@SAPAXIW4NxMemoryType@@@Z 10010950 f i Cooking.obj
 0001:0000f970       ??3NxAllocateable@NxFoundation@@SAXPAX@Z 10010970 f i Cooking.obj
 0001:0000f990       ??3NxAllocateable@NxFoundation@@SAXPAXW4NxMemoryType@@@Z 10010990 f i Cooking.obj
 0001:0000f9b0       ??1NxTriangle@@QAE@XZ      100109b0 f i Cooking.obj
 0001:0000f9c0       ?getNumTriangles@InternalTriangleMesh@@QBEIXZ 100109c0 f i Cooking.obj
 0001:0000f9d0       ?getVertex@InternalTriangleMesh@@QBEABVNxVec3@@I@Z 100109d0 f i Cooking.obj
 0001:0000f9f0       ?getTriangle@InternalTriangleMesh@@QBEABUNxTriangle32@@I@Z 100109f0 f i Cooking.obj
 0001:0000fa10       ?getTriangleFast@TriangleMesh@@QBEABUNxTriangle32@@I@Z 10010a10 f i Cooking.obj
 0001:0000fa30       ?getVertexFast@TriangleMesh@@QBEABVNxVec3@@I@Z 10010a30 f i Cooking.obj
 0001:0000fa50       ?getNumTrianglesFast@TriangleMesh@@QBEIXZ 10010a50 f i Cooking.obj
 0001:0000fa60       ?computeWorldTriangle@TriangleMesh@@QBEXAAVNxTriangle@@IABVNxMat34@@@Z 10010a60 f i Cooking.obj
 0001:0000fc40       ??1NxCookingInterface@@MAE@XZ 10010c40 f i Cooking.obj
 0001:0000fc50       ??_GNxCookingInterface@@MAEPAXI@Z 10010c50 f i Cooking.obj
 0001:0000fc50       ??_ENxCookingInterface@@MAEPAXI@Z 10010c50 f i Cooking.obj
 0001:0000fc80       ?malloc@UserAllocatorAccess@NxFoundation@@QAEPAXIW4NxMemoryType@@@Z 10010c80 f i Cooking.obj
 0001:0000fc90       ?free@UserAllocatorAccess@NxFoundation@@QAEXPAX@Z 10010c90 f i Cooking.obj
 0001:0000fcb0       ?ilog2@@YAII@Z             10010cb0 f i Cooking.obj
 0001:0000fcd0       ?isValid@NxClothMeshDesc@@QBE_NXZ 10010cd0 f i Cooking.obj
 0001:0000fd60       ??0NvClothMesh@@QAE@XZ     10010d60 f i Cooking.obj
 0001:0000fd70       ?getTriangleMeshConst@NpTriangleMesh@@QBEPBVNvTriangleMesh@@XZ 10010d70 f i Cooking.obj
 0001:0000fd80       ?littleEndian@@YADXZ       10010d80 f i Cooking.obj
 0001:0000fd90       ?getFoundationSDK@@YAPAVNxFoundationSDK@@XZ 10010d90 f   Cooking.obj
 0001:0000fda0       _NxSetCookingParams        10010da0 f   Cooking.obj
 0001:0000fdf0       _NxGetCookingParams        10010df0 f   Cooking.obj
 0001:0000fe00       _NxPlatformMismatch        10010e00 f   Cooking.obj
 0001:0000fe30       ??0Allocator@IceCore@@QAE@XZ 10010e30 f i Cooking.obj
 0001:0000fe40       ?initCooking@@YA_NPAVNxUserAllocator@@PAVNxUserOutputStream@@@Z 10010e40 f   Cooking.obj
 0001:0000fee0       ?closeCooking@@YAXXZ       10010ee0 f   Cooking.obj
 0001:0000ff20       _NxInitCooking             10010f20 f   Cooking.obj
 0001:00010030       _NxCloseCooking            10011030 f   Cooking.obj
 0001:000100d0       _NxReportCooking           100110d0 f   Cooking.obj
 0001:000100e0       ??0TriangleMeshBuilder@@QAE@XZ 100110e0 f i Cooking.obj
 0001:00010100       ?getNpTriangleMesh@TriangleMesh@@UAEPAVNpTriangleMesh@@XZ 10011100 f i Cooking.obj
 0001:00010110       ?setNpTriangleMesh@TriangleMesh@@UAEXPAVNpTriangleMesh@@@Z 10011110 f i Cooking.obj
 0001:00010120       ?getNumVertices@TriangleMesh@@UBEIXZ 10011120 f i Cooking.obj
 0001:00010130       ?getNumTriangles@TriangleMesh@@UBEIXZ 10011130 f i Cooking.obj
 0001:00010140       ?getTriangles@TriangleMesh@@UBEPBUNxTriangle32@@XZ 10011140 f i Cooking.obj
 0001:00010150       ?getVertices@TriangleMesh@@UBEPBVNxVec3@@XZ 10011150 f i Cooking.obj
 0001:00010160       ?getPageCount@TriangleMeshBuilder@@MBEIXZ 10011160 f i Cooking.obj
 0001:00010170       ?getPage@TriangleMeshBuilder@@MBEPAXIAAI@Z 10011170 f i Cooking.obj
 0001:00010180       ??1TriangleMeshBuilder@@QAE@XZ 10011180 f i Cooking.obj
 0001:00010190       ??0HullResult@@QAE@XZ      10011190 f i Cooking.obj
 0001:000101b0       ??0HullDesc@@QAE@XZ        100111b0 f i Cooking.obj
 0001:000101e0       ??_GConvexMeshBuilder@@QAEPAXI@Z 100111e0 f i Cooking.obj
 0001:00010210       _NxScaleCookedConvexMesh   10011210 f   Cooking.obj
 0001:000102b0       ?NxCookFluidHardwareTriangles@@YA_NMMMIPBVNxTriangle@@IAAVNxStream@@@Z 100112b0 f   Cooking.obj
 0001:00010370       ??4NxTriangle@@QAEAAV0@ABV0@@Z 10011370 f i Cooking.obj
 0001:000103c0       ??1CookingInterface@@UAE@XZ 100113c0 f i Cooking.obj
 0001:000103d0       ??0NxCookingInterface@@QAE@XZ 100113d0 f i Cooking.obj
 0001:000103e0       _NxGetCookingInterface     100113e0 f   Cooking.obj
 0001:00010400       ??0?$NxArray@IVUserAllocatorAccess@NxFoundation@@@@QAE@XZ 10011400 f i Cooking.obj
 0001:00010410       ??0?$NxArray@VNxVec3@@VUserAllocatorAccess@NxFoundation@@@@QAE@XZ 10011410 f i Cooking.obj
 0001:00010420       ??0?$NxArray@MVUserAllocatorAccess@NxFoundation@@@@QAE@XZ 10011420 f i Cooking.obj
 0001:00010430       ??0?$NxArray@UClothGlobalInternalConstraint@@VUserAllocatorAccess@NxFoundation@@@@QAE@XZ 10011430 f i Cooking.obj
 0001:00010440       ??0?$NxArray@PAVClothSolverPacket@@VUserAllocatorAccess@NxFoundation@@@@QAE@XZ 10011440 f i Cooking.obj
 0001:00010450       ??0?$NxArray@VNxTriangle@@VUserAllocatorAccess@NxFoundation@@@@QAE@XZ 10011450 f i Cooking.obj
 0001:00010460       ?size@?$NxArray@VNxTriangle@@VUserAllocatorAccess@NxFoundation@@@@QBEIXZ 10011460 f i Cooking.obj
 0001:00010480       ??A?$NxArray@VNxTriangle@@VUserAllocatorAccess@NxFoundation@@@@QAEAAVNxTriangle@@I@Z 10011480 f i Cooking.obj
 0001:000104a0       ?begin@?$NxArray@PAVNxTriangleMeshShape@@VUserAllocatorAccess@NxFoundation@@@@QAEPAPAVNxTriangleMeshShape@@XZ 100114a0 f i Cooking.obj
 0001:000104b0       ?end@?$NxArray@PAVNxTriangleMeshShape@@VUserAllocatorAccess@NxFoundation@@@@QAEPAPAVNxTriangleMeshShape@@XZ 100114b0 f i Cooking.obj
 0001:000104c0       ?deallocate@?$NxArray@IVUserAllocatorAccess@NxFoundation@@@@AAEXPAI@Z 100114c0 f i Cooking.obj
 0001:000104e0       ?destroy@?$NxArray@IVUserAllocatorAccess@NxFoundation@@@@AAEXPAI0@Z 100114e0 f i Cooking.obj
 0001:000104f0       ?deallocate@?$NxArray@VNxVec3@@VUserAllocatorAccess@NxFoundation@@@@AAEXPAVNxVec3@@@Z 100114f0 f i Cooking.obj
 0001:00010510       ?destroy@?$NxArray@VNxVec3@@VUserAllocatorAccess@NxFoundation@@@@AAEXPAVNxVec3@@0@Z 10011510 f i Cooking.obj
 0001:00010520       ?deallocate@?$NxArray@MVUserAllocatorAccess@NxFoundation@@@@AAEXPAM@Z 10011520 f i Cooking.obj
 0001:00010540       ?destroy@?$NxArray@MVUserAllocatorAccess@NxFoundation@@@@AAEXPAM0@Z 10011540 f i Cooking.obj
 0001:00010550       ?deallocate@?$NxArray@UClothGlobalInternalConstraint@@VUserAllocatorAccess@NxFoundation@@@@AAEXPAUClothGlobalInternalConstraint@@@Z 10011550 f i Cooking.obj
 0001:00010570       ?destroy@?$NxArray@UClothGlobalInternalConstraint@@VUserAllocatorAccess@NxFoundation@@@@AAEXPAUClothGlobalInternalConstraint@@0@Z 10011570 f i Cooking.obj
 0001:00010580       ?deallocate@?$NxArray@PAVClothSolverPacket@@VUserAllocatorAccess@NxFoundation@@@@AAEXPAPAVClothSolverPacket@@@Z 10011580 f i Cooking.obj
 0001:000105a0       ?destroy@?$NxArray@PAVClothSolverPacket@@VUserAllocatorAccess@NxFoundation@@@@AAEXPAPAVClothSolverPacket@@0@Z 100115a0 f i Cooking.obj
 0001:000105b0       ?deallocate@?$NxArray@VNxTriangle@@VUserAllocatorAccess@NxFoundation@@@@AAEXPAVNxTriangle@@@Z 100115b0 f i Cooking.obj
 0001:000105d0       ??_GNxTriangle@@QAEPAXI@Z  100115d0 f i Cooking.obj
 0001:000105f0       ?capacity@?$NxArray@VNxTriangle@@VUserAllocatorAccess@NxFoundation@@@@QBEIXZ 100115f0 f i Cooking.obj
 0001:00010620       ?copy@?$NxArray@VNxTriangle@@VUserAllocatorAccess@NxFoundation@@@@AAEPAVNxTriangle@@PBV2@0PAV2@@Z 10011620 f i Cooking.obj
 0001:000106b0       ?allocate@?$NxArray@VNxTriangle@@VUserAllocatorAccess@NxFoundation@@@@AAEPAVNxTriangle@@I@Z 100116b0 f i Cooking.obj
 0001:000106e0       ??0NxTriangle@@QAE@XZ      100116e0 f i Cooking.obj
 0001:000106f0       ?getTriangleMaterial@TriangleMesh@@UBEGI@Z 100116f0 f i Cooking.obj
 0001:00010710       ?getPageBBox@TriangleMeshBuilder@@MBE?AVNxBounds3@@I@Z 10011710 f i Cooking.obj
 0001:00010770       ??0IceAllocator@@QAE@XZ    10011770 f i Cooking.obj
 0001:00010780       ?malloc@IceAllocator@@UAEPAXIW4MemoryType@IceCore@@@Z 10011780 f i Cooking.obj
 0001:000107a0       ?realloc@IceAllocator@@UAEPAXPAXI@Z 100117a0 f i Cooking.obj
 0001:000107b0       ?free@IceAllocator@@UAEXPAX@Z 100117b0 f i Cooking.obj
 0001:000107c0       ?mallocDebug@IceAllocator@@UAEPAXIPBDI0W4MemoryType@IceCore@@@Z 100117c0 f i Cooking.obj
 0001:000107e0       ??_GTriangleMeshBuilder@@QAEPAXI@Z 100117e0 f i Cooking.obj
 0001:00010810       _NxCookConvexMesh          10011810 f   Cooking.obj
 0001:00010b20       ?NxComputeFluidHardwareMeshCRC32@@YAIMMMIAAV?$NxArraySDK@PAVNxTriangleMeshShape@@@NxFoundation@@@Z 10011b20 f   Cooking.obj
 0001:00010f30       ??0CookingInterface@@QAE@XZ 10011f30 f i Cooking.obj
 0001:00010f40       ?NxSetCookingParams@CookingInterface@@UAE_NABUNxCookingParams@@@Z 10011f40 f i Cooking.obj
 0001:00010f90       ?NxGetCookingParams@CookingInterface@@UAEABUNxCookingParams@@XZ 10011f90 f i Cooking.obj
 0001:00010fa0       ?NxPlatformMismatch@CookingInterface@@UAE_NXZ 10011fa0 f i Cooking.obj
 0001:00010fd0       ?NxInitCooking@CookingInterface@@UAE_NPAVNxUserAllocator@@PAVNxUserOutputStream@@@Z 10011fd0 f i Cooking.obj
 0001:00010ff0       ?NxCloseCooking@CookingInterface@@UAEXXZ 10011ff0 f i Cooking.obj
 0001:00011000       ?NxCreatePMap@CookingInterface@@UAE_NAAVNxPMap@@ABVNxTriangleMesh@@IPAVNxUserOutputStream@@@Z 10012000 f i Cooking.obj
 0001:00011030       ?NxReleasePMap@CookingInterface@@UAE_NAAVNxPMap@@@Z 10012030 f i Cooking.obj
 0001:00011050       ??_GCookingInterface@@UAEPAXI@Z 10012050 f i Cooking.obj
 0001:00011050       ??_ECookingInterface@@UAEPAXI@Z 10012050 f i Cooking.obj
 0001:00011080       ?NxCookConvexMesh@CookingInterface@@UAE_NABVNxConvexMeshDesc@@AAVNxStream@@@Z 10012080 f i Cooking.obj
 0001:000110a0       ??1?$NxArray@IVUserAllocatorAccess@NxFoundation@@@@QAE@XZ 100120a0 f i Cooking.obj
 0001:000110e0       ??1?$NxArray@VNxVec3@@VUserAllocatorAccess@NxFoundation@@@@QAE@XZ 100120e0 f i Cooking.obj
 0001:00011120       ??1?$NxArray@MVUserAllocatorAccess@NxFoundation@@@@QAE@XZ 10012120 f i Cooking.obj
 0001:00011160       ??1?$NxArray@UClothGlobalInternalConstraint@@VUserAllocatorAccess@NxFoundation@@@@QAE@XZ 10012160 f i Cooking.obj
 0001:000111a0       ??1?$NxArray@PAVClothSolverPacket@@VUserAllocatorAccess@NxFoundation@@@@QAE@XZ 100121a0 f i Cooking.obj
 0001:000111e0       ?destroy@?$NxArray@VNxTriangle@@VUserAllocatorAccess@NxFoundation@@@@AAEXPAVNxTriangle@@0@Z 100121e0 f i Cooking.obj
 0001:000111f0       ?reserve@?$NxArray@VNxTriangle@@VUserAllocatorAccess@NxFoundation@@@@QAEXI@Z 100121f0 f i Cooking.obj
 0001:00011320       ??0?$NxArraySDK@I@NxFoundation@@QAE@XZ 10012320 f i Cooking.obj
 0001:00011330       ??1?$NxArraySDK@I@NxFoundation@@QAE@XZ 10012330 f i Cooking.obj
 0001:00011370       ??0?$NxArraySDK@VNxVec3@@@NxFoundation@@QAE@XZ 10012370 f i Cooking.obj
 0001:00011380       ??1?$NxArraySDK@VNxVec3@@@NxFoundation@@QAE@XZ 10012380 f i Cooking.obj
 0001:000113c0       ??0?$NxArraySDK@M@NxFoundation@@QAE@XZ 100123c0 f i Cooking.obj
 0001:000113d0       ??1?$NxArraySDK@M@NxFoundation@@QAE@XZ 100123d0 f i Cooking.obj
 0001:00011410       ??0?$NxArraySDK@UClothGlobalInternalConstraint@@@NxFoundation@@QAE@XZ 10012410 f i Cooking.obj
 0001:00011420       ??1?$NxArraySDK@UClothGlobalInternalConstraint@@@NxFoundation@@QAE@XZ 10012420 f i Cooking.obj
 0001:00011460       ??0?$NxArraySDK@PAVClothSolverPacket@@@NxFoundation@@QAE@XZ 10012460 f i Cooking.obj
 0001:00011470       ??1?$NxArraySDK@PAVClothSolverPacket@@@NxFoundation@@QAE@XZ 10012470 f i Cooking.obj
 0001:000114b0       _NxCookTriangleMesh        100124b0 f   Cooking.obj
 0001:000115d0       ?NxCookTriangleMesh@CookingInterface@@UAE_NABVNxTriangleMeshDesc@@AAVNxStream@@@Z 100125d0 f i Cooking.obj
 0001:000115f0       ??1?$NxArray@VNxTriangle@@VUserAllocatorAccess@NxFoundation@@@@QAE@XZ 100125f0 f i Cooking.obj
 0001:00011630       ?pushBack@?$NxArray@VNxTriangle@@VUserAllocatorAccess@NxFoundation@@@@QAEXABVNxTriangle@@@Z 10012630 f i Cooking.obj
 0001:000117d0       ??0ClothMesh@@QAE@XZ       100127d0 f i Cooking.obj
 0001:00011880       ?setNpClothMesh@ClothMesh@@UAEXPAVNpClothMesh@@@Z 10012880 f i Cooking.obj
 0001:00011890       ?getNpClothMesh@ClothMesh@@UAEPAVNpClothMesh@@XZ 10012890 f i Cooking.obj
 0001:000118a0       ??0?$NxArraySDK@VNxTriangle@@@NxFoundation@@QAE@XZ 100128a0 f i Cooking.obj
 0001:000118b0       ??1?$NxArraySDK@VNxTriangle@@@NxFoundation@@QAE@XZ 100128b0 f i Cooking.obj
 0001:000118f0       _NxCookClothMesh           100128f0 f   Cooking.obj
 0001:00011a30       ?NxCookClothMesh@CookingInterface@@UAE_NABVNxClothMeshDesc@@AAVNxStream@@@Z 10012a30 f i Cooking.obj
 0001:00011a50       ?push_back@?$NxArray@VNxTriangle@@VUserAllocatorAccess@NxFoundation@@@@QAEXABVNxTriangle@@@Z 10012a50 f i Cooking.obj
 0001:00011bf0       ?NxCookFluidHardwareMesh@@YA_NMMMIAAV?$NxArraySDK@PAVNxTriangleMeshShape@@@NxFoundation@@AAVNxStream@@@Z 10012bf0 f   Cooking.obj
 0001:00012230       ?FillMemory@@YAXPAXIE@Z    10013230 f i CookingUtils.obj
 0001:00012270       ?DeleteIndex@Container@IceCore@@QAEXI@Z 10013270 f i CookingUtils.obj
 0001:00012290       ?GetHashValue@Point@IceMaths@@QBEIXZ 10013290 f i CookingUtils.obj
 0001:000122c0       ??9Point@IceMaths@@QBE_NABV01@@Z 100132c0 f i CookingUtils.obj
 0001:000122f0       ?SafeATan@@YAMMM@Z         100132f0 f i CookingUtils.obj
 0001:00012360       ?FindLineStrip@@YA_NAAVContainer@IceCore@@ABV12@@Z 10013360 f   CookingUtils.obj
 0001:00012650       ??0ReducedVertexCloud@@QAE@PBVPoint@IceMaths@@I@Z 10013650 f   CookingUtils.obj
 0001:00012680       ?Clean@ReducedVertexCloud@@QAEAAV1@XZ 10013680 f   CookingUtils.obj
 0001:000126e0       ?Reduce@ReducedVertexCloud@@QAE_NPAUREDUCEDCLOUD@@@Z 100136e0 f   CookingUtils.obj
 0001:000129b0       ??8Vector3@@QBE_NABU0@@Z   100139b0 f i CookingUtils.obj
 0001:00012a00       ??9Vector3@@QBE_NABU0@@Z   10013a00 f i CookingUtils.obj
 0001:00012a70       ?getHashValue@Vector3@@QBEIXZ 10013a70 f i CookingUtils.obj
 0001:00012aa0       ?nextPowerOfTwo@@YAHH@Z    10013aa0 f i CookingUtils.obj
 0001:00012ac0       ?weld@@YAHPAUVector3@@H@Z  10013ac0 f   CookingUtils.obj
 0001:00012cd0       ?Reduce2@ReducedVertexCloud@@QAE_NPAUREDUCEDCLOUD@@@Z 10013cd0 f   CookingUtils.obj
 0001:00012f80       ??0SmoothNormals@@QAE@XZ   10013f80 f   CookingUtils.obj
 0001:00012fa0       ??1SmoothNormals@@QAE@XZ   10013fa0 f   CookingUtils.obj
 0001:00013090       ?Compute@SmoothNormals@@QAE_NABUNORMALSCREATE@@@Z 10014090 f   CookingUtils.obj
 0001:00013660       ??$TSwap@E@IceCore@@YAXAAE0@Z 10014660 f i CookingUtils.obj
 0001:00013680       ?InverseBuffer@@YA_NIPAE@Z 10014680 f   CookingUtils.obj
 0001:000136d0       ??1ReducedVertexCloud@@QAE@XZ 100146d0 f   CookingUtils.obj
 0001:00013730       _acosf                     10014730 f i hulllib.obj
 0001:00013740       _cosf                      10014740 f i hulllib.obj
 0001:00013750       _floorf                    10014750 f i hulllib.obj
 0001:00013770       _sinf                      10014770 f i hulllib.obj
 0001:00013780       _tanf                      10014780 f i hulllib.obj
 0001:00013790       ?cos@@YAMM@Z               10014790 f i hulllib.obj
 0001:000137a0       ?fabs@@YAMM@Z              100147a0 f i hulllib.obj
 0001:000137b0       ?HasHullFlag@HullDesc@@QBE_NW4HullFlag@@@Z 100147b0 f i hulllib.obj
 0001:000137c0       ??0int3@@QAE@HHH@Z         100147c0 f i hulllib.obj
 0001:000137e0       ??Aint3@@QBEABHH@Z         100147e0 f i hulllib.obj
 0001:000137f0       ??Aint3@@QAEAAHH@Z         100147f0 f i hulllib.obj
 0001:00013800       ??0float3@@QAE@XZ          10014800 f i hulllib.obj
 0001:00013810       ??0float3@@QAE@MMM@Z       10014810 f i hulllib.obj
 0001:00013830       ??Afloat3@@QAEAAMH@Z       10014830 f i hulllib.obj
 0001:00013840       ??Afloat3@@QBEABMH@Z       10014840 f i hulllib.obj
 0001:00013850       ??8@YAHABVfloat3@@0@Z      10014850 f i hulllib.obj
 0001:000138a0       ??9@YAHABVfloat3@@0@Z      100148a0 f i hulllib.obj
 0001:000138f0       ??0float3x3@@QAE@XZ        100148f0 f i hulllib.obj
 0001:00013920       ??0float3x3@@QAE@Vfloat3@@00@Z 10014920 f i hulllib.obj
 0001:00013980       ??Afloat3x3@@QAEAAVfloat3@@H@Z 10014980 f i hulllib.obj
 0001:00013990       ??Afloat3x3@@QBEABVfloat3@@H@Z 10014990 f i hulllib.obj
 0001:000139a0       ??0float4@@QAE@XZ          100149a0 f i hulllib.obj
 0001:000139c0       ??0float4@@QAE@MMMM@Z      100149c0 f i hulllib.obj
 0001:000139f0       ??Afloat4@@QBEABMH@Z       100149f0 f i hulllib.obj
 0001:00013a00       ?xyz@float4@@QBEABVfloat3@@XZ 10014a00 f i hulllib.obj
 0001:00013a10       ?xyz@float4@@QAEAAVfloat3@@XZ 10014a10 f i hulllib.obj
 0001:00013a20       ??0float4x4@@QAE@XZ        10014a20 f i hulllib.obj
 0001:00013a70       ??0float4x4@@QAE@ABVfloat4@@000@Z 10014a70 f i hulllib.obj
 0001:00013b10       ??0float4x4@@QAE@MMMMMMMMMMMMMMMM@Z 10014b10 f i hulllib.obj
 0001:00013bb0       ??Rfloat4x4@@QBEABMHH@Z    10014bb0 f i hulllib.obj
 0001:00013bd0       ??0Quaternion@@QAE@XZ      10014bd0 f i hulllib.obj
 0001:00013bf0       ??0Quaternion@@QAE@MMMM@Z  10014bf0 f i hulllib.obj
 0001:00013c20       ?xdir@Quaternion@@QBE?AVfloat3@@XZ 10014c20 f i hulllib.obj
 0001:00013c80       ?ydir@Quaternion@@QBE?AVfloat3@@XZ 10014c80 f i hulllib.obj
 0001:00013ce0       ??0Plane@@QAE@ABVfloat3@@M@Z 10014ce0 f i hulllib.obj
 0001:00013d10       ??0Plane@@QAE@XZ           10014d10 f i hulllib.obj
 0001:00013d30       ??8@YAHABVPlane@@0@Z       10014d30 f i hulllib.obj
 0001:00013d90       ?sqr@@YAMM@Z               10014d90 f   hulllib.obj
 0001:00013da0       ?Round@@YAMMM@Z            10014da0 f   hulllib.obj
 0001:00013dd0       ?Interpolate@@YAMABM0M@Z   10014dd0 f   hulllib.obj
 0001:00013e00       ?argmin@@YAHQAMH@Z         10014e00 f   hulllib.obj
 0001:00013f40       ??H@YA?AVfloat3@@ABV0@0@Z  10014f40 f   hulllib.obj
 0001:00013f70       ??G@YA?AVfloat3@@ABV0@0@Z  10014f70 f   hulllib.obj
 0001:00013fa0       ??G@YA?AVfloat3@@ABV0@@Z   10014fa0 f   hulllib.obj
 0001:00013fd0       ??D@YA?AVfloat3@@ABV0@M@Z  10014fd0 f   hulllib.obj
 0001:00014000       ??D@YA?AVfloat3@@MABV0@@Z  10015000 f   hulllib.obj
 0001:00014030       ??K@YA?AVfloat3@@ABV0@M@Z  10015030 f   hulllib.obj
 0001:00014070       ?dot@@YAMABVfloat3@@0@Z    10015070 f   hulllib.obj
 0001:000140a0       ?cmul@@YA?AVfloat3@@ABV1@0@Z 100150a0 f   hulllib.obj
 0001:000140d0       ?cross@@YA?AVfloat3@@ABV1@0@Z 100150d0 f   hulllib.obj
 0001:00014120       ??Y@YAAAVfloat3@@AAV0@ABV0@@Z 10015120 f   hulllib.obj
 0001:00014150       ??Z@YAAAVfloat3@@AAV0@ABV0@@Z 10015150 f   hulllib.obj
 0001:00014180       ??X@YAAAVfloat3@@AAV0@M@Z  10015180 f   hulllib.obj
 0001:000141b0       ??_0@YAAAVfloat3@@AAV0@M@Z 100151b0 f   hulllib.obj
 0001:000141e0       ?vabs@@YA?AVfloat3@@ABV1@@Z 100151e0 f   hulllib.obj
 0001:00014210       ?magnitude@@YAMABVfloat3@@@Z 10015210 f   hulllib.obj
 0001:00014240       ?normalize@@YA?AVfloat3@@ABV1@@Z 10015240 f   hulllib.obj
 0001:000142e0       ?safenormalize@@YA?AVfloat3@@ABV1@@Z 100152e0 f   hulllib.obj
 0001:00014350       ?Round@@YA?AVfloat3@@ABV1@M@Z 10015350 f   hulllib.obj
 0001:00014410       ?Interpolate@@YA?AVfloat3@@ABV1@0M@Z 10015410 f   hulllib.obj
 0001:00014490       ?Determinant@@YAMABVfloat3x3@@@Z 10015490 f   hulllib.obj
 0001:000144f0       ?Inverse@@YA?AVfloat3x3@@ABV1@@Z 100154f0 f   hulllib.obj
 0001:00014690       ?Transpose@@YA?AVfloat3x3@@ABV1@@Z 10015690 f   hulllib.obj
 0001:00014750       ??D@YA?AVfloat3@@ABV0@ABVfloat3x3@@@Z 10015750 f   hulllib.obj
 0001:000147c0       ??D@YA?AVfloat3@@ABVfloat3x3@@ABV0@@Z 100157c0 f   hulllib.obj
 0001:00014830       ??D@YA?AVfloat3x3@@ABV0@0@Z 10015830 f   hulllib.obj
 0001:000149c0       ??D@YA?AVfloat3x3@@ABV0@ABM@Z 100159c0 f   hulllib.obj
 0001:00014a90       ??K@YA?AVfloat3x3@@ABV0@ABM@Z 10015a90 f   hulllib.obj
 0001:00014b70       ??H@YA?AVfloat3x3@@ABV0@0@Z 10015b70 f   hulllib.obj
 0001:00014c50       ??G@YA?AVfloat3x3@@ABV0@0@Z 10015c50 f   hulllib.obj
 0001:00014d30       ??Y@YAAAVfloat3x3@@AAV0@ABV0@@Z 10015d30 f   hulllib.obj
 0001:00014da0       ??Z@YAAAVfloat3x3@@AAV0@ABV0@@Z 10015da0 f   hulllib.obj
 0001:00014e10       ??X@YAAAVfloat3x3@@AAV0@ABM@Z 10015e10 f   hulllib.obj
 0001:00014e80       ?ThreePlaneIntersection@@YA?AVfloat3@@ABVPlane@@00@Z 10015e80 f   hulllib.obj
 0001:00014fc0       ??8@YAHABVfloat4@@0@Z      10015fc0 f   hulllib.obj
 0001:00015020       ?cmul@@YA?AVfloat4@@ABV1@0@Z 10016020 f   hulllib.obj
 0001:00015060       ??D@YA?AVfloat4@@ABV0@M@Z  10016060 f   hulllib.obj
 0001:000150a0       ??D@YA?AVfloat4@@MABV0@@Z  100160a0 f   hulllib.obj
 0001:000150e0       ??H@YA?AVfloat4@@ABV0@0@Z  100160e0 f   hulllib.obj
 0001:00015120       ??G@YA?AVfloat4@@ABV0@0@Z  10016120 f   hulllib.obj
 0001:00015160       ?Homogenize@@YA?AVfloat4@@ABVfloat3@@ABM@Z 10016160 f   hulllib.obj
 0001:00015190       ?MatrixTranspose@@YA?AVfloat4x4@@ABV1@@Z 10016190 f   hulllib.obj
 0001:00015260       ?MatrixPerspectiveFov@@YA?AVfloat4x4@@MMMM@Z 10016260 f   hulllib.obj
 0001:000152f0       ?MatrixTranslation@@YA?AVfloat4x4@@ABVfloat3@@@Z 100162f0 f   hulllib.obj
 0001:00015350       ?MatrixRotationZ@@YA?AVfloat4x4@@M@Z 10016350 f   hulllib.obj
 0001:000153c0       ??8@YAHABVfloat4x4@@0@Z    100163c0 f   hulllib.obj
 0001:00015470       ?Inverse@@YA?AVfloat4x4@@ABV1@@Z 10016470 f   hulllib.obj
 0001:00015bf0       ??D@YA?AVQuaternion@@ABV0@0@Z 10016bf0 f   hulllib.obj
 0001:00015cd0       ??D@YA?AVQuaternion@@ABV0@M@Z 10016cd0 f   hulllib.obj
 0001:00015d10       ?Inverse@@YA?AVQuaternion@@ABV1@@Z 10016d10 f   hulllib.obj
 0001:00015d40       ??X@YAAAVQuaternion@@AAV0@M@Z 10016d40 f   hulllib.obj
 0001:00015d80       ?Normalize@Quaternion@@QAEXXZ 10016d80 f   hulllib.obj
 0001:00015e10       ??D@YA?AVfloat3@@ABVQuaternion@@ABV0@@Z 10016e10 f   hulllib.obj
 0001:00015f60       ??D@YA?AVfloat3@@ABV0@ABVQuaternion@@@Z 10016f60 f   hulllib.obj
 0001:00015f80       ??H@YA?AVQuaternion@@ABV0@0@Z 10016f80 f   hulllib.obj
 0001:00015fc0       ?dot@@YAMABVQuaternion@@0@Z 10016fc0 f   hulllib.obj
 0001:00015ff0       ?normalize@@YA?AVQuaternion@@V1@@Z 10016ff0 f   hulllib.obj
 0001:000160c0       ?slerp@@YA?AVQuaternion@@V1@ABV1@M@Z 100170c0 f   hulllib.obj
 0001:00016290       ?Interpolate@@YA?AVQuaternion@@ABV1@0M@Z 10017290 f   hulllib.obj
 0001:000162e0       ?Yaw@@YAMABVQuaternion@@@Z 100172e0 f   hulllib.obj
 0001:00016410       ?Pitch@@YAMABVQuaternion@@@Z 10017410 f   hulllib.obj
 0001:00016510       ?Yaw@@YAMABVfloat3@@@Z     10017510 f   hulllib.obj
 0001:00016560       ?Pitch@@YAMABVfloat3@@@Z   10017560 f   hulllib.obj
 0001:000165a0       ?Transform@Plane@@QAEXABVfloat3@@ABVQuaternion@@@Z 100175a0 f   hulllib.obj
 0001:000167a0       ?RotationArc@@YA?AVQuaternion@@Vfloat3@@0@Z 100177a0 f   hulllib.obj
 0001:00016980       ?MatrixFromQuatVec@@YA?AVfloat4x4@@ABVQuaternion@@ABVfloat3@@@Z 10017980 f   hulllib.obj
 0001:00016ae0       ?PlaneLineIntersection@@YA?AVfloat3@@ABVPlane@@ABV1@1@Z 10017ae0 f   hulllib.obj
 0001:00016c10       ?PlaneProject@@YA?AVfloat3@@ABVPlane@@ABV1@@Z 10017c10 f   hulllib.obj
 0001:00016c80       ?LineProject@@YA?AVfloat3@@ABV1@00@Z 10017c80 f   hulllib.obj
 0001:00016d70       ?LineProjectTime@@YAMABVfloat3@@00@Z 10017d70 f   hulllib.obj
 0001:00016e20       ?TriNormal@@YA?AVfloat3@@ABV1@00@Z 10017e20 f   hulllib.obj
 0001:00016f20       ?BoxInside@@YAHABVfloat3@@00@Z 10017f20 f   hulllib.obj
 0001:00016fa0       ?BoxIntersect@@YAHABVfloat3@@000PAV1@@Z 10017fa0 f   hulllib.obj
 0001:00017540       ?DistanceBetweenLines@@YAMABVfloat3@@000PAV1@1@Z 10018540 f   hulllib.obj
 0001:000178b0       ?VirtualTrackBall@@YA?AVQuaternion@@ABVfloat3@@000@Z 100188b0 f   hulllib.obj
 0001:00017d70       ?PolyHit@@YAHPBVfloat3@@HABV1@1PAV1@2@Z 10018d70 f   hulllib.obj
 0001:00018600       ??0PHullResult@@QAE@XZ     10019600 f i hulllib.obj
 0001:00018620       ??0HalfEdge@ConvexH@@QAE@XZ 10019620 f i hulllib.obj
 0001:00018630       ??0HalfEdge@ConvexH@@QAE@FEE@Z 10019630 f i hulllib.obj
 0001:00018660       ?PlaneTest@@YAHABVPlane@@ABVfloat3@@@Z 10019660 f   hulllib.obj
 0001:000186d0       ?orth@@YA?AVfloat3@@ABV1@@Z 100196d0 f   hulllib.obj
 0001:000187d0       ??8@YAHABVint3@@0@Z        100197d0 f   hulllib.obj
 0001:00018810       ?roll3@@YA?AVint3@@V1@@Z   10019810 f   hulllib.obj
 0001:00018840       ?isa@@YAHABVint3@@0@Z      10019840 f   hulllib.obj
 0001:00018910       ?b2b@@YAHABVint3@@0@Z      10019910 f   hulllib.obj
 0001:00018950       ?above@@YAHPAVfloat3@@ABVint3@@ABV1@M@Z 10019950 f   hulllib.obj
 0001:000189f0       ?hasedge@@YAHABVint3@@HH@Z 100199f0 f   hulllib.obj
 0001:00018a40       ?hasvert@@YAHABVint3@@H@Z  10019a40 f   hulllib.obj
 0001:00018a70       ?shareedge@@YAHABVint3@@0@Z 10019a70 f   hulllib.obj
 0001:00018b00       ?neib@Tri@@QAEAAHHH@Z      10019b00 f   hulllib.obj
 0001:00018bb0       ?checkit@@YAXPAVTri@@@Z    10019bb0 f   hulllib.obj
 0001:00018bc0       ??0int4@@QAE@HHHH@Z        10019bc0 f i hulllib.obj
 0001:00018bf0       ??Aint4@@QAEAAHH@Z         10019bf0 f i hulllib.obj
 0001:00018c00       ?hasVolume@@YA_NPAVfloat3@@HHHH@Z 10019c00 f   hulllib.obj
 0001:00018e40       ?ReleaseHull@@YAXAAVPHullResult@@@Z 10019e40 f   hulllib.obj
 0001:00018ea0       ?ReleaseResult@HullLibrary@@QAE?AW4HullError@@AAVHullResult@@@Z 10019ea0 f   hulllib.obj
 0001:00018f20       ?GetDist@@YAMMMMPBM@Z      10019f20 f   hulllib.obj
 0001:00018f60       ?CleanupVertices@HullLibrary@@AAE_NIPBMIAAIPAMM2@Z 10019f60 f   hulllib.obj
 0001:00019a00       ?BringOutYourDead@HullLibrary@@AAEXPBMIPAMAAIPAII@Z 1001aa00 f   hulllib.obj
 0001:00019cf0       ?ComputeNormal@HullLibrary@@AAEMPAMPBM11@Z 1001acf0 f   hulllib.obj
 0001:00019de0       ??A?$Array@Vfloat3@@@@QAEAAVfloat3@@H@Z 1001ade0 f i hulllib.obj
 0001:00019e00       ??A?$Array@VHalfEdge@ConvexH@@@@QAEAAVHalfEdge@ConvexH@@H@Z 1001ae00 f i hulllib.obj
 0001:00019e10       ??A?$Array@VPlane@@@@QAEAAVPlane@@H@Z 1001ae10 f i hulllib.obj
 0001:00019e30       ??A?$Array@H@@QAEAAHH@Z    1001ae30 f i hulllib.obj
 0001:00019e40       ??A?$Array@PAVTri@@@@QAEAAPAVTri@@H@Z 1001ae40 f i hulllib.obj
 0001:00019e50       ??$Max@M@@YAMABM0@Z        1001ae50 f i hulllib.obj
 0001:00019e70       ??$Min@M@@YAMABM0@Z        1001ae70 f i hulllib.obj
 0001:00019e90       ??1?$Array@Vfloat3@@@@QAE@XZ 1001ae90 f i hulllib.obj
 0001:00019ed0       ??1?$Array@VHalfEdge@ConvexH@@@@QAE@XZ 1001aed0 f i hulllib.obj
 0001:00019f10       ??1?$Array@VPlane@@@@QAE@XZ 1001af10 f i hulllib.obj
 0001:00019f50       ??1?$Array@H@@QAE@XZ       1001af50 f i hulllib.obj
 0001:00019f90       ??1?$Array@PAVTri@@@@QAE@XZ 1001af90 f i hulllib.obj
 0001:00019fd0       ??$Swap@H@@YAXAAH0@Z       1001afd0 f i hulllib.obj
 0001:00019ff0       ??$maxdir@Vfloat3@@@@YAHPBVfloat3@@HABV0@@Z 1001aff0 f i hulllib.obj
 0001:0001a240       ??$Min@H@@YAHABH0@Z        1001b240 f i hulllib.obj
 0001:0001a260       ??1?$Array@Vint3@@@@QAE@XZ 1001b260 f i hulllib.obj
 0001:0001a2a0       ?allocate@?$Array@Vfloat3@@@@QAEXH@Z 1001b2a0 f i hulllib.obj
 0001:0001a330       ?allocate@?$Array@VHalfEdge@ConvexH@@@@QAEXH@Z 1001b330 f i hulllib.obj
 0001:0001a3a0       ?allocate@?$Array@VPlane@@@@QAEXH@Z 1001b3a0 f i hulllib.obj
 0001:0001a430       ?allocate@?$Array@H@@QAEXH@Z 1001b430 f i hulllib.obj
 0001:0001a4a0       ?allocate@?$Array@PAVTri@@@@QAEXH@Z 1001b4a0 f i hulllib.obj
 0001:0001a510       ??$maxdirfiltered@Vfloat3@@@@YAHPBVfloat3@@HABV0@AAV?$Array@H@@@Z 1001b510 f i hulllib.obj
 0001:0001a7f0       ?allocate@?$Array@Vint3@@@@QAEXH@Z 1001b7f0 f i hulllib.obj
 0001:0001a880       ??0Quaternion@@QAE@Vfloat3@@M@Z 1001b880 f i hulllib.obj
 0001:0001a940       ?clampf@@YAMM@Z            1001b940 f   hulllib.obj
 0001:0001a990       ?VectorMin@@YA?AVfloat3@@ABV1@0@Z 1001b990 f   hulllib.obj
 0001:0001aa10       ?VectorMax@@YA?AVfloat3@@ABV1@0@Z 1001ba10 f   hulllib.obj
 0001:0001aa90       ??D@YA?AVfloat4@@ABV0@ABVfloat4x4@@@Z 1001ba90 f   hulllib.obj
 0001:0001abf0       ??D@YA?AVfloat4x4@@ABV0@0@Z 1001bbf0 f   hulllib.obj
 0001:0001ac70       ?MatrixRigidInverse@@YA?AVfloat4x4@@ABV1@@Z 1001bc70 f   hulllib.obj
 0001:0001ade0       ?MatrixLookAt@@YA?AVfloat4x4@@ABVfloat3@@00@Z 1001bde0 f   hulllib.obj
 0001:0001af90       ?YawPitchRoll@@YA?AVQuaternion@@MMM@Z 1001bf90 f   hulllib.obj
 0001:0001b0e0       ?Roll@@YAMVQuaternion@@@Z  1001c0e0 f   hulllib.obj
 0001:0001b260       ?SplitTest@@YAHAAVConvexH@@ABVPlane@@@Z 1001c260 f   hulllib.obj
 0001:0001b4d0       ?AssertIntact@@YAHAAVConvexH@@@Z 1001c4d0 f   hulllib.obj
 0001:0001bc10       ??1Tri@@QAE@XZ             1001cc10 f i hulllib.obj
 0001:0001bc30       ?b2bfix@@YAXPAVTri@@0@Z    1001cc30 f   hulllib.obj
 0001:0001bd10       ??_GTri@@QAEPAXI@Z         1001cd10 f i hulllib.obj
 0001:0001bd50       ?extrudable@@YAPAVTri@@M@Z 1001cd50 f   hulllib.obj
 0001:0001be70       ??1ConvexH@@QAE@XZ         1001ce70 f i hulllib.obj
 0001:0001bf40       ?AddConvexTriangle@HullLibrary@@AAEXPAVConvexHullTriangleInterface@@PBM11@Z 1001cf40 f   hulllib.obj
 0001:0001c1d0       ??0?$Array@Vfloat3@@@@QAE@H@Z 1001d1d0 f i hulllib.obj
 0001:0001c200       ?Add@?$Array@Vfloat3@@@@QAEAAVfloat3@@V2@@Z 1001d200 f i hulllib.obj
 0001:0001c270       ??0?$Array@VHalfEdge@ConvexH@@@@QAE@H@Z 1001d270 f i hulllib.obj
 0001:0001c2a0       ??0?$Array@VPlane@@@@QAE@H@Z 1001d2a0 f i hulllib.obj
 0001:0001c2d0       ?Add@?$Array@VPlane@@@@QAEAAVPlane@@V2@@Z 1001d2d0 f i hulllib.obj
 0001:0001c350       ??0?$Array@H@@QAE@H@Z      1001d350 f i hulllib.obj
 0001:0001c380       ?Add@?$Array@H@@QAEAAHH@Z  1001d380 f i hulllib.obj
 0001:0001c3d0       ??0?$Array@PAVTri@@@@QAE@H@Z 1001d3d0 f i hulllib.obj
 0001:0001c400       ?SetSize@?$Array@PAVTri@@@@QAEXH@Z 1001d400 f i hulllib.obj
 0001:0001c450       ?Add@?$Array@PAVTri@@@@QAEAAPAVTri@@PAV2@@Z 1001d450 f i hulllib.obj
 0001:0001c4a0       ??$maxdirsterid@Vfloat3@@@@YAHPBVfloat3@@HABV0@AAV?$Array@H@@@Z 1001d4a0 f i hulllib.obj
 0001:0001c880       ??0?$Array@Vint3@@@@QAE@H@Z 1001d880 f i hulllib.obj
 0001:0001c8b0       ?Add@?$Array@Vint3@@@@QAEAAVint3@@V2@@Z 1001d8b0 f i hulllib.obj
 0001:0001c920       ??0ConvexH@@QAE@HHH@Z      1001d920 f   hulllib.obj
 0001:0001c9e0       ?ConvexHDup@@YAPAVConvexH@@PAV1@@Z 1001d9e0 f   hulllib.obj
 0001:0001cad0       ?test_btbq@@YAPAVConvexH@@XZ 1001dad0 f   hulllib.obj
 0001:0001ce50       ?test_cube@@YAPAVConvexH@@XZ 1001de50 f   hulllib.obj
 0001:0001d610       ?ConvexHMakeCube@@YAPAVConvexH@@ABVfloat3@@0@Z 1001e610 f   hulllib.obj
 0001:0001d9e0       ?ConvexHCrop@@YAPAVConvexH@@AAV1@ABVPlane@@@Z 1001e9e0 f   hulllib.obj
 0001:0001e600       ??0Tri@@QAE@HHH@Z          1001f600 f i hulllib.obj
 0001:0001e6a0       ?removeb2b@@YAXPAVTri@@0@Z 1001f6a0 f   hulllib.obj
 0001:0001e710       ?extrude@@YAXPAVTri@@H@Z   1001f710 f   hulllib.obj
 0001:0001ea20       ?FindSimplex@@YA?AVint4@@PAVfloat3@@HAAV?$Array@H@@@Z 1001fa20 f   hulllib.obj
 0001:0001efb0       ?calchullgen@@YAHPAVfloat3@@HH@Z 1001ffb0 f   hulllib.obj
 0001:0001fb10       ?calchull@@YAHPAVfloat3@@HAAPAHAAHH@Z 10020b10 f   hulllib.obj
 0001:0001fce0       ?calchullpbev@@YAHPAVfloat3@@HHAAV?$Array@VPlane@@@@M@Z 10020ce0 f   hulllib.obj
 0001:000206b0       ??_GConvexH@@QAEPAXI@Z     100216b0 f i hulllib.obj
 0001:000206e0       ?CreateTriangleMesh@HullLibrary@@QAE?AW4HullError@@AAVHullResult@@PAVConvexHullTriangleInterface@@@Z 100216e0 f   hulllib.obj
 0001:00020f90       ?ComputeHull@@YA_NIPBMAAVPHullResult@@IM@Z 10021f90 f   hulllib.obj
 0001:00021250       ?CreateConvexHull@HullLibrary@@QAE?AW4HullError@@ABVHullDesc@@AAVHullResult@@@Z 10022250 f   hulllib.obj
 0001:00021610       ?Save@GaussMapBuilder@@UBE_NAAVStream@IceCore@@@Z 10022610 f   IceGaussMapBuilder.obj
 0001:00021690       ?Precompute@GaussMapBuilder@@QAE_NI@Z 10022690 f   IceGaussMapBuilder.obj
 0001:000219c0       ?Store@CustomArray@IceCore@@QAEAAV12@E@Z 100229c0 f i IceHullGaussMapsBuilder.obj
 0001:000219d0       ?SameDirection@Point@IceMaths@@QBE_NABV12@@Z 100229d0 f i IceHullGaussMapsBuilder.obj
 0001:00021a10       ??0Ray@IceMaths@@QAE@ABVPoint@1@0@Z 10022a10 f i IceHullGaussMapsBuilder.obj
 0001:00021a50       ??1Ray@IceMaths@@QAE@XZ    10022a50 f i IceHullGaussMapsBuilder.obj
 0001:00021a60       ?GetCenter@ConvexHull@@QBEABVPoint@IceMaths@@XZ 10022a60 f i IceHullGaussMapsBuilder.obj
 0001:00021a70       ?GetPolygon@ConvexHull@@QBEABUPxHullPolygonData@@I@Z 10022a70 f i IceHullGaussMapsBuilder.obj
 0001:00021a90       ??0GaussMapBuilder@@QAE@PAVGaussMap@@@Z 10022a90 f i IceHullGaussMapsBuilder.obj
 0001:00021ab0       ??1GaussMapBuilder@@UAE@XZ 10022ab0 f i IceHullGaussMapsBuilder.obj
 0001:00021ac0       ?PostInit@GaussMapBuilder@@UAEXXZ 10022ac0 f i IceHullGaussMapsBuilder.obj
 0001:00021ad0       ??_EGaussMapBuilder@@UAEPAXI@Z 10022ad0 f i IceHullGaussMapsBuilder.obj
 0001:00021ad0       ??_GGaussMapBuilder@@UAEPAXI@Z 10022ad0 f i IceHullGaussMapsBuilder.obj
 0001:00021d00       ??0ClosestPolygonMapBuilder@@QAE@PAVClosestPolygonMap@@@Z 10022d00 f   IceHullGaussMapsBuilder.obj
 0001:00021d20       ??1ClosestPolygonMapBuilder@@UAE@XZ 10022d20 f   IceHullGaussMapsBuilder.obj
 0001:00021d30       ?Initialize@ClosestPolygonMapBuilder@@UAE_NXZ 10022d30 f   IceHullGaussMapsBuilder.obj
 0001:00021d80       ?PrecomputeSample@ClosestPolygonMapBuilder@@UAE_NIABVPoint@IceMaths@@@Z 10022d80 f   IceHullGaussMapsBuilder.obj
 0001:00021dc0       ?PostInit@ClosestPolygonMapBuilder@@UAEXXZ 10022dc0 f   IceHullGaussMapsBuilder.obj
 0001:00021dd0       ??0RaycastMapBuilder@@QAE@PAVRaycastMap@@@Z 10022dd0 f   IceHullGaussMapsBuilder.obj
 0001:00021df0       ??1RaycastMapBuilder@@UAE@XZ 10022df0 f   IceHullGaussMapsBuilder.obj
 0001:00021e00       ?Save@RaycastMapBuilder@@UBE_NAAVStream@IceCore@@@Z 10022e00 f   IceHullGaussMapsBuilder.obj
 0001:00021e80       ?Initialize@RaycastMapBuilder@@UAE_NXZ 10022e80 f   IceHullGaussMapsBuilder.obj
 0001:00021ed0       ?RayPlaneIntersect@@YA_NABVRay@IceMaths@@ABVPlane@2@AAM@Z 10022ed0 f i IceHullGaussMapsBuilder.obj
 0001:00021f50       ?PrecomputeSample@RaycastMapBuilder@@UAE_NIABVPoint@IceMaths@@@Z 10022f50 f   IceHullGaussMapsBuilder.obj
 0001:00022450       ?PostInit@RaycastMapBuilder@@UAEXXZ 10023450 f   IceHullGaussMapsBuilder.obj
 0001:00022460       ??0SupportVertexMapBuilder@@QAE@PAVSupportVertexMap@@@Z 10023460 f   IceHullGaussMapsBuilder.obj
 0001:00022480       ??1SupportVertexMapBuilder@@UAE@XZ 10023480 f   IceHullGaussMapsBuilder.obj
 0001:00022490       ?Initialize@SupportVertexMapBuilder@@UAE_NXZ 10023490 f   IceHullGaussMapsBuilder.obj
 0001:00022510       ?PrecomputeSample@SupportVertexMapBuilder@@UAE_NIABVPoint@IceMaths@@@Z 10023510 f   IceHullGaussMapsBuilder.obj
 0001:00022780       ?PostInit@SupportVertexMapBuilder@@UAEXXZ 10023780 f   IceHullGaussMapsBuilder.obj
 0001:00022790       ?Save@SupportVertexMapBuilder@@UBE_NAAVStream@IceCore@@@Z 10023790 f   IceHullGaussMapsBuilder.obj
 0001:00022820       ??_EClosestPolygonMapBuilder@@UAEPAXI@Z 10023820 f i IceHullGaussMapsBuilder.obj
 0001:00022820       ??_GClosestPolygonMapBuilder@@UAEPAXI@Z 10023820 f i IceHullGaussMapsBuilder.obj
 0001:00022850       ??_ERaycastMapBuilder@@UAEPAXI@Z 10023850 f i IceHullGaussMapsBuilder.obj
 0001:00022850       ??_GRaycastMapBuilder@@UAEPAXI@Z 10023850 f i IceHullGaussMapsBuilder.obj
 0001:00022880       ??_GSupportVertexMapBuilder@@UAEPAXI@Z 10023880 f i IceHullGaussMapsBuilder.obj
 0001:00022880       ??_ESupportVertexMapBuilder@@UAEPAXI@Z 10023880 f i IceHullGaussMapsBuilder.obj
 0001:000228b0       ?_F@@YAPBDPBDZZ            100238b0 f i IceMeshBuilder2.obj
 0001:000228c0       ?Add@Container@IceCore@@QAEAAV12@M@Z 100238c0 f i IceMeshBuilder2.obj
 0001:00022900       ?SquareMagnitude@Point@IceMaths@@QBEMXZ 10023900 f i IceMeshBuilder2.obj
 0001:00022930       ??0Vertices@@QAE@XZ        10023930 f i IceMeshBuilder2.obj
 0001:00022940       ??1Vertices@@QAE@XZ        10023940 f i IceMeshBuilder2.obj
 0001:00022950       ?GetNbVertices@Vertices@@QBEIXZ 10023950 f i IceMeshBuilder2.obj
 0001:00022960       ?GetVertices@Vertices@@QBEPBVPoint@IceMaths@@XZ 10023960 f i IceMeshBuilder2.obj
 0001:00022970       ?AddVertex@Vertices@@QAEAAV1@ABVPoint@IceMaths@@@Z 10023970 f i IceMeshBuilder2.obj
 0001:00022a20       ?sqrt@NxMath@@SAMM@Z       10023a20 f i IceMeshBuilder2.obj
 0001:00022a30       ?atan2@NxMath@@SAMMM@Z     10023a30 f i IceMeshBuilder2.obj
 0001:00022a40       ?magnitude@NxVec3@@QBEMXZ  10023a40 f i IceMeshBuilder2.obj
 0001:00022a70       ?cross@NxVec3@@QAEXABV1@0@Z 10023a70 f i IceMeshBuilder2.obj
 0001:00022ac0       ??TNxVec3@@QBE?AV0@ABV0@@Z 10023ac0 f i IceMeshBuilder2.obj
 0001:00022b10       ??UNxVec3@@QBEMABV0@@Z     10023b10 f i IceMeshBuilder2.obj
 0001:00022b40       ?NxAngle@@YAMABVNxVec3@@0@Z 10023b40 f i IceMeshBuilder2.obj
 0001:00022bc0       ??0MeshBuilder2@@QAE@XZ    10023bc0 f   IceMeshBuilder2.obj
 0001:00022dc0       ?FreeUsedRam@MeshBuilder2@@AAEAAV1@XZ 10023dc0 f   IceMeshBuilder2.obj
 0001:00022fe0       ?SetupXVerts@Local@?1??Init@MeshBuilder2@@QAE_NABUMBCreate@@@Z@SA_NIPBVPoint@IceMaths@@AAPAV56@AAI@Z 10023fe0 f   IceMeshBuilder2.obj
 0001:00023070       ?AddFace@MeshBuilder2@@QAE_NABUMBFaceData@@@Z 10024070 f   IceMeshBuilder2.obj
 0001:00023660       ?FixNullSmoothingGroups@MeshBuilder2@@AAE_NXZ 10024660 f   IceMeshBuilder2.obj
 0001:00023960       ?OptimizeXMappings@MeshBuilder2@@AAE_NAAIAAPAVPoint@IceMaths@@W4VertexCode@@@Z 10024960 f   IceMeshBuilder2.obj
 0001:00023fb0       ?OptimizeGeometry@MeshBuilder2@@AAE_NXZ 10024fb0 f   IceMeshBuilder2.obj
 0001:00024160       ?ComputeNormals@MeshBuilder2@@AAE_NXZ 10025160 f   IceMeshBuilder2.obj
 0001:00024650       ?SaveXVertices@MeshBuilder2@@AAE_NXZ 10025650 f   IceMeshBuilder2.obj
 0001:00024830       ?StoreVertex@Local@?2??RebuildVertexData@MeshBuilder2@@AAEIPBIIAAVContainer@IceCore@@@Z@SAXABULocalInfo@3@IAAII@Z 10025830 f   IceMeshBuilder2.obj
 0001:00024980       ??1MeshBuilder2@@QAE@XZ    10025980 f   IceMeshBuilder2.obj
 0001:00024ac0       ?Init@MeshBuilder2@@QAE_NABUMBCreate@@@Z 10025ac0 f   IceMeshBuilder2.obj
 0001:00024ca0       ?OptimizeTopology@MeshBuilder2@@AAE_NXZ 10025ca0 f   IceMeshBuilder2.obj
 0001:00024d20       ?RebuildVertexData@MeshBuilder2@@AAEIPBIIAAVContainer@IceCore@@@Z 10025d20 f   IceMeshBuilder2.obj
 0001:00024f00       ?BuildTrilist@MeshBuilder2@@AAEIPBIIHI@Z 10025f00 f   IceMeshBuilder2.obj
 0001:00025800       ?ComputeSubmeshes@MeshBuilder2@@AAE_NXZ 10026800 f   IceMeshBuilder2.obj
 0001:00025ad0       ?Build@MeshBuilder2@@QAE_NAAUMBResult@@@Z 10026ad0 f   IceMeshBuilder2.obj
 0001:00026080       ?dot@NxVec3@@QBEMABV1@@Z   10027080 f i InternalTriangleMeshBuilder.obj
 0001:000260b0       ??GNxVec3@@QBE?AV0@ABV0@@Z 100270b0 f i InternalTriangleMeshBuilder.obj
 0001:000260e0       ??_UNxAllocateable@NxFoundation@@SAPAXIW4NxMemoryType@@@Z 100270e0 f i InternalTriangleMeshBuilder.obj
 0001:00026100       ??_VNxAllocateable@NxFoundation@@SAXPAX@Z 10027100 f i InternalTriangleMeshBuilder.obj
 0001:00026120       ?Tweak@Point@IceMaths@@QAEXII@Z 10027120 f i InternalTriangleMeshBuilder.obj
 0001:00026150       ??0AABB@IceMaths@@QAE@XZ   10027150 f i InternalTriangleMeshBuilder.obj
 0001:00026160       ??1AABB@IceMaths@@QAE@XZ   10027160 f i InternalTriangleMeshBuilder.obj
 0001:00026170       ?SetEmpty@AABB@IceMaths@@QAEXXZ 10027170 f i InternalTriangleMeshBuilder.obj
 0001:000261e0       ?Extend@AABB@IceMaths@@QAEXABVPoint@2@@Z 100271e0 f i InternalTriangleMeshBuilder.obj
 0001:00026270       ??0BuildSettings@Opcode@@QAE@XZ 10027270 f i InternalTriangleMeshBuilder.obj
 0001:000262a0       ??1AABBTreeBuilder@Opcode@@UAE@XZ 100272a0 f i InternalTriangleMeshBuilder.obj
 0001:000262b0       ?Reset@AABBTreeBuilder@Opcode@@QAEXXZ 100272b0 f i InternalTriangleMeshBuilder.obj
 0001:000262d0       ?GetSplittingValue@AABBTreeBuilder@Opcode@@UBEMPBIIABVAABB@IceMaths@@I@Z 100272d0 f i InternalTriangleMeshBuilder.obj
 0001:000262f0       ?ValidateSubdivision@AABBTreeBuilder@Opcode@@UAEHPBIIABVAABB@IceMaths@@@Z 100272f0 f i InternalTriangleMeshBuilder.obj
 0001:00026310       ??_GAABBTreeBuilder@Opcode@@UAEPAXI@Z 10027310 f i InternalTriangleMeshBuilder.obj
 0001:00026310       ??_EAABBTreeBuilder@Opcode@@UAEPAXI@Z 10027310 f i InternalTriangleMeshBuilder.obj
 0001:00026340       ??1AABBTreeOfAABBsBuilder@Opcode@@UAE@XZ 10027340 f i InternalTriangleMeshBuilder.obj
 0001:00026350       ?GetEdge@EdgeList@NxPhysics@@QBEABUPxEdgeData@@I@Z 10027350 f i InternalTriangleMeshBuilder.obj
 0001:00026360       ?getNumVertices@InternalTriangleMesh@@QBEIXZ 10027360 f i InternalTriangleMeshBuilder.obj
 0001:00026370       ?getVertices@InternalTriangleMesh@@QAEPAVNxVec3@@XZ 10027370 f i InternalTriangleMeshBuilder.obj
 0001:00026380       ?getTriangles@InternalTriangleMesh@@QAEPAUNxTriangle32@@XZ 10027380 f i InternalTriangleMeshBuilder.obj
 0001:00026390       ?getConvexEdgeThreshold@InternalTriangleMesh@@QBEMXZ 10027390 f i InternalTriangleMeshBuilder.obj
 0001:000263a0       ?setTrigSharedEdgeFlag@InternalTriangleMesh@@QAEXII@Z 100273a0 f i InternalTriangleMeshBuilder.obj
 0001:000263c0       ?GetNbConvexSubmeshes@ConvexDecomposer@@QBEIXZ 100273c0 f i InternalTriangleMeshBuilder.obj
 0001:000263d0       ?GetConvexTags@ConvexDecomposer@@QBEPBIXZ 100273d0 f i InternalTriangleMeshBuilder.obj
 0001:000263e0       ?GetNbFlatSubmeshes@ConvexDecomposer@@QBEIXZ 100273e0 f i InternalTriangleMeshBuilder.obj
 0001:000263f0       ?GetFlatTags@ConvexDecomposer@@QBEPBIXZ 100273f0 f i InternalTriangleMeshBuilder.obj
 0001:00026400       ??0InternalTriangleMeshBuilder@@QAE@PAVInternalTriangleMesh@@@Z 10027400 f   InternalTriangleMeshBuilder.obj
 0001:00026410       ??1InternalTriangleMeshBuilder@@QAE@XZ 10027410 f   InternalTriangleMeshBuilder.obj
 0001:00026420       ?remapTopology@InternalTriangleMeshBuilder@@QAEXPBI@Z 10027420 f   InternalTriangleMeshBuilder.obj
 0001:00026790       ?createOpcodeModel@InternalTriangleMeshBuilder@@QAE_NW4NxHeightFieldAxis@@M@Z 10027790 f   InternalTriangleMeshBuilder.obj
 0001:00026930       ??_GEdgeListBuilder@NxPhysics@@QAEPAXI@Z 10027930 f i InternalTriangleMeshBuilder.obj
 0001:00026960       ??_EAABB@IceMaths@@QAEPAXI@Z 10027960 f i InternalTriangleMeshBuilder.obj
 0001:000269d0       ?init@Edge@?P@??createSharedEdgeData@InternalTriangleMeshBuilder@@QAEXXZ@QAEXIIII@Z 100279d0 f   InternalTriangleMeshBuilder.obj
 0001:00026a10       ?differentSideEffect@Edge@?P@??createSharedEdgeData@InternalTriangleMeshBuilder@@QAEXXZ@QAE_NAAU13@AAV3@@Z 10027a10 f   InternalTriangleMeshBuilder.obj
 0001:00026a80       ?isSmaller@Edge@?P@??createSharedEdgeData@InternalTriangleMeshBuilder@@QAEXXZ@QAE_NPBU13@@Z 10027a80 f   InternalTriangleMeshBuilder.obj
 0001:00026ac0       ?quickSort@Edge@?P@??createSharedEdgeData@InternalTriangleMeshBuilder@@QAEXXZ@SAXPAU13@HH@Z 10027ac0 f   InternalTriangleMeshBuilder.obj
 0001:00026c40       ?saveCollisionTree@@YAXPBVHybridModel@Opcode@@_NAAVNxStream@@@Z 10027c40 f   InternalTriangleMeshBuilder.obj
 0001:00026d00       ?normalize@NxVec3@@QAEMXZ  10027d00 f i InternalTriangleMeshBuilder.obj
 0001:00026d70       ??0AABBTreeBuilder@Opcode@@QAE@XZ 10027d70 f i InternalTriangleMeshBuilder.obj
 0001:00026dc0       ??0AABBTreeOfAABBsBuilder@Opcode@@QAE@XZ 10027dc0 f i InternalTriangleMeshBuilder.obj
 0001:00026e10       ??_EAABBTreeOfAABBsBuilder@Opcode@@UAEPAXI@Z 10027e10 f i InternalTriangleMeshBuilder.obj
 0001:00026e10       ??_GAABBTreeOfAABBsBuilder@Opcode@@UAEPAXI@Z 10027e10 f i InternalTriangleMeshBuilder.obj
 0001:00026e40       ?cleanMesh@InternalTriangleMeshBuilder@@QAE_NXZ 10027e40 f   InternalTriangleMeshBuilder.obj
 0001:000277d0       ?createConvexParts@InternalTriangleMeshBuilder@@QAE_NXZ 100287d0 f   InternalTriangleMeshBuilder.obj
 0001:000279e0       ?processUniqueEdge@Edge@?P@??createSharedEdgeData@InternalTriangleMeshBuilder@@QAEXXZ@QAEXAAV3@@Z 100289e0 f   InternalTriangleMeshBuilder.obj
 0001:00027d70       ?createSharedEdgeData@InternalTriangleMeshBuilder@@QAEXXZ 10028d70 f   InternalTriangleMeshBuilder.obj
 0001:00027ff0       _NxCreatePMap              10028ff0 f   PMap.obj
 0001:00028100       _NxReleasePMap             10029100 f   PMap.obj
 0001:00028130       ??0NxMat33@@QAE@XZ         10029130 f i TriangleMeshBuilder.obj
 0001:00028140       ?HasActiveEdge01@PxEdgeTriangleAC@@SA_NABUPxEdgeTriangleData@@@Z 10029140 f i TriangleMeshBuilder.obj
 0001:00028150       ?HasActiveEdge12@PxEdgeTriangleAC@@SA_NABUPxEdgeTriangleData@@@Z 10029150 f i TriangleMeshBuilder.obj
 0001:00028160       ?HasActiveEdge20@PxEdgeTriangleAC@@SA_NABUPxEdgeTriangleData@@@Z 10029160 f i TriangleMeshBuilder.obj
 0001:00028170       ?GetNbFaces@EdgeList@NxPhysics@@QBEIXZ 10029170 f i TriangleMeshBuilder.obj
 0001:00028180       ?getVertices@InternalTriangleMesh@@QBEPBVNxVec3@@XZ 10029180 f i TriangleMeshBuilder.obj
 0001:00028190       ?getTriangles@InternalTriangleMesh@@QBEPBUNxTriangle32@@XZ 10029190 f i TriangleMeshBuilder.obj
 0001:000281a0       ?getMaterials@InternalTriangleMesh@@QBEPBGXZ 100291a0 f i TriangleMeshBuilder.obj
 0001:000281b0       ?getFaceRemap@InternalTriangleMesh@@QBEPBIXZ 100291b0 f i TriangleMeshBuilder.obj
 0001:000281c0       ?getEdgeList@InternalTriangleMesh@@QBEPBVEdgeListBuilder@NxPhysics@@XZ 100291c0 f i TriangleMeshBuilder.obj
 0001:000281e0       ?getOpcodeModel@InternalTriangleMesh@@QBEPBVHybridModel@Opcode@@XZ 100291e0 f i TriangleMeshBuilder.obj
 0001:000281f0       ?storeByte@NxStream@@QAEAAV1@C@Z 100291f0 f i TriangleMeshBuilder.obj
 0001:00028200       ?writeIntBuffer@@YAXPBII_NAAVNxStream@@@Z 10029200 f i TriangleMeshBuilder.obj
 0001:00028210       ?importMesh@TriangleMeshBuilder@@IAE_NABVNxTriangleMeshDesc@@@Z 10029210 f   TriangleMeshBuilder.obj
 0001:00028470       ?computeLocalBounds@TriangleMeshBuilder@@IAEXXZ 10029470 f   TriangleMeshBuilder.obj
 0001:00028640       ?SaveObj@TriangleMeshBuilder@@KAXABVNxTriangleMeshDesc@@PBD@Z 10029640 f   TriangleMeshBuilder.obj
 0001:00028730       ?loadFromDesc@TriangleMeshBuilder@@QAE_NABVNxTriangleMeshDesc@@@Z 10029730 f   TriangleMeshBuilder.obj
 0001:000289c0       ?computeMassInfo@TriangleMeshBuilder@@IBEPBVMeshMassInfo@@XZ 100299c0 f   TriangleMeshBuilder.obj
 0001:00028cf0       ?save@TriangleMeshBuilder@@QBE_NAAVNxStream@@@Z 10029cf0 f   TriangleMeshBuilder.obj
 0001:000292d0       ??0ValenciesBuilder@@QAE@XZ 1002a2d0 f   ValencyBuilder.obj
 0001:000292e0       ??1ValenciesBuilder@@QAE@XZ 1002a2e0 f   ValencyBuilder.obj
 0001:000292f0       ?Compute@ValenciesBuilder@@QAE_NABUVALENCIESCREATE@@@Z 1002a2f0 f   ValencyBuilder.obj
 0001:00029530       ?Save@ValenciesBuilder@@QBE_NAAVStream@IceCore@@@Z 1002a530 f   ValencyBuilder.obj
 0001:00029640       ?planeBoxOverlap@@YAHPBVNxVec3@@M0@Z 1002a640 f   FluidIntersectionBoxTriangle.obj
 0001:00029750       ?FluidTriBoxOverlap@@YAHPBVNxVec3@@0000@Z 1002a750 f   FluidIntersectionBoxTriangle.obj
 0001:0002a170       ?floor@NxMath@@SAMM@Z      1002b170 f i FluidMeshCooker.obj
 0001:0002a190       ?abs@NxMath@@SAMM@Z        1002b190 f i FluidMeshCooker.obj
 0001:0002a1a0       ?max@NxMath@@SAMMM@Z       1002b1a0 f i FluidMeshCooker.obj
 0001:0002a1c0       ?min@NxMath@@SAMMM@Z       1002b1c0 f i FluidMeshCooker.obj
 0001:0002a1e0       ??0NxVec3@@QAE@M@Z         1002b1e0 f i FluidMeshCooker.obj
 0001:0002a200       ?set@NxVec3@@QAEXMMM@Z     1002b200 f i FluidMeshCooker.obj
 0001:0002a220       ?max@NxVec3@@QAEXABV1@@Z   1002b220 f i FluidMeshCooker.obj
 0001:0002a2a0       ?min@NxVec3@@QAEXABV1@@Z   1002b2a0 f i FluidMeshCooker.obj
 0001:0002a320       ??YNxVec3@@QAEAAV0@ABV0@@Z 1002b320 f i FluidMeshCooker.obj
 0001:0002a350       ??1NxBounds3@@QAE@XZ       1002b350 f i FluidMeshCooker.obj
 0001:0002a360       ?set@NxBounds3@@QAEXMMMMMM@Z 1002b360 f i FluidMeshCooker.obj
 0001:0002a3a0       ?include@NxBounds3@@QAEXABVNxVec3@@@Z 1002b3a0 f i FluidMeshCooker.obj
 0001:0002a480       ?fatten@NxBounds3@@QAEXM@Z 1002b480 f i FluidMeshCooker.obj
 0001:0002a4d0       ??0NxI16Vec3@@QAE@XZ       1002b4d0 f i FluidMeshCooker.obj
 0001:0002a4e0       ??0NxI16Vec3@@QAE@ABV0@@Z  1002b4e0 f i FluidMeshCooker.obj
 0001:0002a510       ??0NxI16Vec3@@QAE@FFF@Z    1002b510 f i FluidMeshCooker.obj
 0001:0002a540       ??8NxI16Vec3@@QBE_NABV0@@Z 1002b540 f i FluidMeshCooker.obj
 0001:0002a580       ??HNxI16Vec3@@QAE?BV0@ABV0@@Z 1002b580 f i FluidMeshCooker.obj
 0001:0002a5c0       ??YNxI16Vec3@@QAEABV0@ABV0@@Z 1002b5c0 f i FluidMeshCooker.obj
 0001:0002a5f0       ??4NxI16Vec3@@QAEABV0@ABV0@@Z 1002b5f0 f i FluidMeshCooker.obj
 0001:0002a620       ??6NxI16Vec3@@QBE?BV0@I@Z  1002b620 f i FluidMeshCooker.obj
 0001:0002a660       ?set@NxI16Vec3@@QAEXABVNxVec3@@M@Z 1002b660 f i FluidMeshCooker.obj
 0001:0002a870       ?cellHashFunc@@YAIPAVNxI16Vec3@@I@Z 1002b870 f   FluidMeshCooker.obj
 0001:0002a8b0       ?packetHashFunc@@YAIPAVNxI16Vec3@@I@Z 1002b8b0 f   FluidMeshCooker.obj
 0001:0002a8e0       ?localHashFunc@@YAIPAVNxI16Vec3@@I@Z 1002b8e0 f   FluidMeshCooker.obj
 0001:0002aab0       ??0FluidTriangleCM@@QAE@XZ 1002bab0 f i FluidMeshCooker.obj
 0001:0002aac0       ?testTriangleSanity@@YA_NABUFluidTriangleCM@@M@Z 1002bac0 f   FluidMeshCooker.obj
 0001:0002ac00       ?fluidDestroyMeshPacketHash@@YAXPAUFluidMeshPacketHash@@@Z 1002bc00 f   FluidMeshCooker.obj
 0001:0002ac20       ?setEmpty@NxBounds3@@QAEXXZ 1002bc20 f i FluidMeshCooker.obj
 0001:0002b010       ??0NxBounds3@@QAE@XZ       1002c010 f i FluidMeshCooker.obj
 0001:0002b040       ?fluidCreateMeshPacketHash@@YAPAUFluidMeshPacketHash@@PBVNxTriangle@@IMMIIPAUFluidMeshCookerStats@@@Z 1002c040 f   FluidMeshCooker.obj
 0001:0002c6d0       ??0FluidMeshCellBucketVector@@QAE@I@Z 1002d6d0 f   FluidMeshCellBucket.obj
 0001:0002c720       ??1FluidMeshCellBucketVector@@QAE@XZ 1002d720 f   FluidMeshCellBucket.obj
 0001:0002c750       ??0FluidMeshCellNodeVector@@QAE@I@Z 1002d750 f   FluidMeshCellNode.obj
 0001:0002c7a0       ??1FluidMeshCellNodeVector@@QAE@XZ 1002d7a0 f   FluidMeshCellNode.obj
 0001:0002c7d0       ??0FluidMeshPacketHash@@QAE@IIIIMII@Z 1002d7d0 f   FluidMeshPacketHash.obj
 0001:0002c880       ??1FluidMeshPacketHash@@QAE@XZ 1002d880 f   FluidMeshPacketHash.obj
 0001:0002c900       ?write@FluidMeshPacketHash@@QAEXAAVNxStream@@@Z 1002d900 f   FluidMeshPacketHash.obj
 0001:0002c950       ??0FluidMeshPktBucketVector@@QAE@I@Z 1002d950 f   FluidMeshPktBucket.obj
 0001:0002c9a0       ??1FluidMeshPktBucketVector@@QAE@XZ 1002d9a0 f   FluidMeshPktBucket.obj
 0001:0002c9d0       ?write@FluidMeshPktBucketVector@@QAEXAAVNxStream@@@Z 1002d9d0 f   FluidMeshPktBucket.obj
 0001:0002cbf0       ?findCell@FluidMeshPktData@@QAEXPAGPAUFluidTriangleVector@@PBU2@PBVNxI16Vec3@@@Z 1002dbf0 f   FluidMeshPktData.obj
 0001:0002cd20       ?write@FluidMeshPktDataVector@@QAEXAAVNxStream@@@Z 1002dd20 f   FluidMeshPktData.obj
 0001:0002cd40       ??0FluidByteVector@@QAE@I@Z 1002dd40 f   FluidMeshPktData.obj
 0001:0002cd80       ??1FluidByteVector@@QAE@XZ 1002dd80 f   FluidMeshPktData.obj
 0001:0002cdb0       ??0FluidMeshPktDataVector@@QAE@I@Z 1002ddb0 f   FluidMeshPktData.obj
 0001:0002cdf0       ??1FluidMeshPktDataVector@@QAE@XZ 1002ddf0 f   FluidMeshPktData.obj
 0001:0002ce20       ??0FluidMeshPktNodeVector@@QAE@I@Z 1002de20 f   FluidMeshPktNode.obj
 0001:0002ce70       ??1FluidMeshPktNodeVector@@QAE@XZ 1002de70 f   FluidMeshPktNode.obj
 0001:0002cea0       ?write@FluidMeshPktNodeVector@@QAEXAAVNxStream@@@Z 1002dea0 f   FluidMeshPktNode.obj
 0001:0002ced0       ??0FluidTriangleVector@@QAE@I@Z 1002ded0 f   FluidTriangle.obj
 0001:0002cf20       ??1FluidTriangleVector@@QAE@XZ 1002df20 f   FluidTriangle.obj
 0001:0002cf50       ?write@FluidTriangleVector@@QAEXAAVNxStream@@@Z 1002df50 f   FluidTriangle.obj
 0001:0002cf80       ?zero@NxVec3@@QAEXXZ       1002df80 f i Box.obj
 0001:0002cf90       ?add@NxVec3@@QAEXABV1@0@Z  1002df90 f i Box.obj
 0001:0002cfc0       ?subtract@NxVec3@@QAEXABV1@0@Z 1002dfc0 f i Box.obj
 0001:0002cff0       ??GNxVec3@@QBE?AV0@XZ      1002dff0 f i Box.obj
 0001:0002d020       ??DNxVec3@@QBE?AV0@M@Z     1002e020 f i Box.obj
 0001:0002d050       ??ZNxVec3@@QAEAAV0@ABV0@@Z 1002e050 f i Box.obj
 0001:0002d080       ??0NxMat33@@QAE@ABV0@@Z    1002e080 f i Box.obj
 0001:0002d0a0       ??4NxMat33@@QAEABV0@ABV0@@Z 1002e0a0 f i Box.obj
 0001:0002d0c0       ?getColumn@NxMat33@@QBEXHAAVNxVec3@@@Z 1002e0c0 f i Box.obj
 0001:0002d0f0       ??RNxMat33@@QBEABMHH@Z     1002e0f0 f i Box.obj
 0001:0002d110       ?id@NxMat33@@QAEXXZ        1002e110 f i Box.obj
 0001:0002d140       ?setTransposed@NxMat33@@QAEXABV1@@Z 1002e140 f i Box.obj
 0001:0002d1c0       ?multiplyByTranspose@NxMat33@@QBEXABVNxVec3@@AAV2@@Z 1002e1c0 f i Box.obj
 0001:0002d230       ?multiply@NxMat33@@QAEXABV1@0@Z 1002e230 f i Box.obj
 0001:0002d3a0       ?getCenter@NxBounds3@@QBEXAAVNxVec3@@@Z 1002e3a0 f i Box.obj
 0001:0002d400       ?getExtents@NxBounds3@@QBEXAAVNxVec3@@@Z 1002e400 f i Box.obj
 0001:0002d460       ??0NxMat34@@QAE@ABVNxMat33@@ABVNxVec3@@@Z 1002e460 f i Box.obj
 0001:0002d4a0       ??0NxMat34@@QAE@_N@Z       1002e4a0 f i Box.obj
 0001:0002d4f0       ??0NxBox@@QAE@XZ           1002e4f0 f i Box.obj
 0001:0002d500       ??1NxBox@@QAE@XZ           1002e500 f i Box.obj
 0001:0002d510       ?rotate@NxBox@@QBEXABVNxMat34@@AAV1@@Z 1002e510 f i Box.obj
 0001:0002d720       ?leftTransformPoint@NxFoundation@@YAXABVNxVec3@@AAV2@ABVNxMat33@@@Z 1002e720 f i Box.obj
 0001:0002d790       ?rightTransformPoint@NxFoundation@@YAXABVNxVec3@@AAV2@ABVNxMat33@@@Z 1002e790 f i Box.obj
 0001:0002d800       ?transformPoint@NxFoundation@@YAXABVNxVec3@@AAV2@ABVNxMat34@@@Z 1002e800 f i Box.obj
 0001:0002d890       ?boxContainsPoint@NxFoundation@@YA_NABVNxBox@@ABVNxVec3@@@Z 1002e890 f   Box.obj
 0001:0002d990       ?createBox@NxFoundation@@YAXAAVNxBox@@ABVNxBounds3@@ABVNxMat34@@@Z 1002e990 f   Box.obj
 0001:0002dae0       ?computeBoxPlanes@NxFoundation@@YA_NABVNxBox@@PAVNxPlane@@@Z 1002eae0 f   Box.obj
 0001:0002de30       ?computeBoxPoints@NxFoundation@@YA_NABVNxBox@@PAVNxVec3@@@Z 1002ee30 f   Box.obj
 0001:0002e110       ?computeBoxVertexNormals@NxFoundation@@YA_NABVNxBox@@PAVNxVec3@@@Z 1002f110 f   Box.obj
 0001:0002e540       ?getBoxEdges@NxFoundation@@YAPBIXZ 1002f540 f   Box.obj
 0001:0002e550       ?getBoxEdgesAxes@NxFoundation@@YAPBHXZ 1002f550 f   Box.obj
 0001:0002e560       ?getBoxTriangles@NxFoundation@@YAPBIXZ 1002f560 f   Box.obj
 0001:0002e570       ?getBoxLocalEdgeNormals@NxFoundation@@YAPBVNxVec3@@XZ 1002f570 f   Box.obj
 0001:0002e580       ?computeBoxWorldEdgeNormal@NxFoundation@@YAXABVNxBox@@IAAVNxVec3@@@Z 1002f580 f   Box.obj
 0001:0002e600       ?largestAxis@NxFoundation@@YAIABVNxVec3@@@Z 1002f600 f i Box.obj
 0001:0002e640       ?computeCapsuleAroundBox@NxFoundation@@YAXABVNxBox@@AAVNxCapsule@@@Z 1002f640 f   Box.obj
 0001:0002e8c0       ?invertPRMatrix@NxFoundation@@YAXAAVNxMat34@@ABV2@@Z 1002f8c0 f   Box.obj
 0001:0002e9b0       ?isBoxAInsideBoxB@NxFoundation@@YA_NABVNxBox@@0@Z 1002f9b0 f   Box.obj
 0001:0002ece0       ?getBoxQuads@NxFoundation@@YAPBIXZ 1002fce0 f   Box.obj
 0001:0002ecf0       ?boxVertexToQuad@NxFoundation@@YAPBII@Z 1002fcf0 f   Box.obj
 0001:0002ed10       ?malloc@DefaultAllocator@NxFoundation@@UAEPAXI@Z 1002fd10 f   DefaultAllocator.obj
 0001:0002ed30       ?mallocDEBUG@DefaultAllocator@NxFoundation@@UAEPAXIPBDH@Z 1002fd30 f   DefaultAllocator.obj
 0001:0002ed40       ?realloc@DefaultAllocator@NxFoundation@@UAEPAXPAXI@Z 1002fd40 f   DefaultAllocator.obj
 0001:0002ed60       ?free@DefaultAllocator@NxFoundation@@UAEXPAX@Z 1002fd60 f   DefaultAllocator.obj
 0001:0002ed80       ??1NxFoundationSDK@@MAE@XZ 1002fd80 f i FoundationSDK.obj
 0001:0002ed90       ??_GNxFoundationSDK@@MAEPAXI@Z 1002fd90 f i FoundationSDK.obj
 0001:0002ed90       ??_ENxFoundationSDK@@MAEPAXI@Z 1002fd90 f i FoundationSDK.obj
 0001:0002edc0       ??1NxUserAllocator@@UAE@XZ 1002fdc0 f i FoundationSDK.obj
 0001:0002edd0       ?mallocDEBUG@NxUserAllocator@@UAEPAXIPBDH0W4NxMemoryType@@@Z 1002fdd0 f i FoundationSDK.obj
 0001:0002edf0       ?malloc@NxUserAllocator@@UAEPAXIW4NxMemoryType@@@Z 1002fdf0 f i FoundationSDK.obj
 0001:0002ee00       ?checkDEBUG@NxUserAllocator@@UAEXXZ 1002fe00 f i FoundationSDK.obj
 0001:0002ee10       ??_GNxUserAllocator@@UAEPAXI@Z 1002fe10 f i FoundationSDK.obj
 0001:0002ee10       ??_ENxUserAllocator@@UAEPAXI@Z 1002fe10 f i FoundationSDK.obj
 0001:0002ee40       ?addRef@FoundationSDK@NxFoundation@@QAEXXZ 1002fe40 f i FoundationSDK.obj
 0001:0002ee50       ??1NxUserAllocatorDefault@@UAE@XZ 1002fe50 f i FoundationSDK.obj
 0001:0002ee60       ??0NxUserAllocator@@QAE@XZ 1002fe60 f i FoundationSDK.obj
 0001:0002ee70       ??0NxFoundationSDK@@QAE@XZ 1002fe70 f i FoundationSDK.obj
 0001:0002ee80       ?release@FoundationSDK@NxFoundation@@UAEXXZ 1002fe80 f   FoundationSDK.obj
 0001:0002eec0       ?setErrorStream@FoundationSDK@NxFoundation@@UAEXPAVNxUserOutputStream@@@Z 1002fec0 f   FoundationSDK.obj
 0001:0002eed0       ?setAllocaThreshold@FoundationSDK@NxFoundation@@UAEXI@Z 1002fed0 f   FoundationSDK.obj
 0001:0002ef00       ?getErrorStream@FoundationSDK@NxFoundation@@UAEPAVNxUserOutputStream@@XZ 1002ff00 f   FoundationSDK.obj
 0001:0002ef10       ?getAllocator@FoundationSDK@NxFoundation@@UAEAAVNxUserAllocator@@XZ 1002ff10 f   FoundationSDK.obj
 0001:0002ef20       ?getRemoteDebugger@FoundationSDK@NxFoundation@@UAEPAVNxRemoteDebugger@@XZ 1002ff20 f   FoundationSDK.obj
 0001:0002ef30       ?event@FoundationSDK@NxFoundation@@UAEXIAAVObservable@2@@Z 1002ff30 f   FoundationSDK.obj
 0001:0002ef70       ?getLastError@FoundationSDK@NxFoundation@@UAE?AW4NxErrorCode@@XZ 1002ff70 f   FoundationSDK.obj
 0001:0002ef80       ?getFirstError@FoundationSDK@NxFoundation@@UAE?AW4NxErrorCode@@XZ 1002ff80 f   FoundationSDK.obj
 0001:0002ef90       ?errorImpl@FoundationSDK@NxFoundation@@AAE_NW4NxErrorCode@@PBDHPA_N1PAD@Z 1002ff90 f   FoundationSDK.obj
 0001:0002f120       ??0?$NxArray@PAVObservable@NxFoundation@@VUserAllocatorAccess@2@@@QAE@XZ 10030120 f i FoundationSDK.obj
 0001:0002f130       ?deallocate@?$NxArray@PAVObservable@NxFoundation@@VUserAllocatorAccess@2@@@AAEXPAPAVObservable@NxFoundation@@@Z 10030130 f i FoundationSDK.obj
 0001:0002f150       ?destroy@?$NxArray@PAVObservable@NxFoundation@@VUserAllocatorAccess@2@@@AAEXPAPAVObservable@NxFoundation@@0@Z 10030150 f i FoundationSDK.obj
 0001:0002f160       ??0NxUserAllocatorDefault@@QAE@XZ 10030160 f i FoundationSDK.obj
 0001:0002f170       ?malloc@NxUserAllocatorDefault@@UAEPAXIW4NxMemoryType@@@Z 10030170 f i FoundationSDK.obj
 0001:0002f190       ?malloc@NxUserAllocatorDefault@@UAEPAXI@Z 10030190 f i FoundationSDK.obj
 0001:0002f1b0       ?mallocDEBUG@NxUserAllocatorDefault@@UAEPAXIPBDH0W4NxMemoryType@@@Z 100301b0 f i FoundationSDK.obj
 0001:0002f1c0       ?mallocDEBUG@NxUserAllocatorDefault@@UAEPAXIPBDH@Z 100301c0 f i FoundationSDK.obj
 0001:0002f1d0       ?realloc@NxUserAllocatorDefault@@UAEPAXPAXI@Z 100301d0 f i FoundationSDK.obj
 0001:0002f1f0       ?free@NxUserAllocatorDefault@@UAEXPAX@Z 100301f0 f i FoundationSDK.obj
 0001:0002f210       ??_ENxUserAllocatorDefault@@UAEPAXI@Z 10030210 f i FoundationSDK.obj
 0001:0002f210       ??_GNxUserAllocatorDefault@@UAEPAXI@Z 10030210 f i FoundationSDK.obj
 0001:0002f240       ??1?$NxArray@PAVObservable@NxFoundation@@VUserAllocatorAccess@2@@@QAE@XZ 10030240 f i FoundationSDK.obj
 0001:0002f280       ??0?$NxArraySDK@PAVObservable@NxFoundation@@@NxFoundation@@QAE@XZ 10030280 f i FoundationSDK.obj
 0001:0002f290       ??1?$NxArraySDK@PAVObservable@NxFoundation@@@NxFoundation@@QAE@XZ 10030290 f i FoundationSDK.obj
 0001:0002f2d0       ??0Observable@NxFoundation@@QAE@XZ 100302d0 f i FoundationSDK.obj
 0001:0002f2f0       ??1Observable@NxFoundation@@QAE@XZ 100302f0 f i FoundationSDK.obj
 0001:0002f330       ??1FoundationSDK@NxFoundation@@EAE@XZ 10030330 f   FoundationSDK.obj
 0001:0002f390       ??_EFoundationSDK@NxFoundation@@GBI@AEPAXI@Z 10030390 f i FoundationSDK.obj
 0001:0002f3a0       ??0FoundationSDK@NxFoundation@@AAE@XZ 100303a0 f   FoundationSDK.obj
 0001:0002f3f0       ??_GFoundationSDK@NxFoundation@@EAEPAXI@Z 100303f0 f i FoundationSDK.obj
 0001:0002f3f0       ??_EFoundationSDK@NxFoundation@@EAEPAXI@Z 100303f0 f i FoundationSDK.obj
 0001:0002f420       ?createFoundationSDK@FoundationSDK@NxFoundation@@SAPAVNxFoundationSDK@@IPAVNxUserOutputStream@@PAVNxUserAllocator@@AAW4NxSDKCreateError@@@Z 10030420 f   FoundationSDK.obj
 0001:0002f4c0       ??0NxMutex@@QAE@XZ         100304c0 f   NxMutex.obj
 0001:0002f500       ??1NxMutex@@QAE@XZ         10030500 f   NxMutex.obj
 0001:0002f530       ?lock@NxMutex@@QAE_NXZ     10030530 f   NxMutex.obj
 0001:0002f570       ?trylock@NxMutex@@QAE_NXZ  10030570 f   NxMutex.obj
 0001:0002f5e0       ?unlock@NxMutex@@QAE_NXZ   100305e0 f   NxMutex.obj
 0001:0002f610       ??0NxSync@@QAE@XZ          10030610 f   NxSync.obj
 0001:0002f630       ??1NxSync@@QAE@XZ          10030630 f   NxSync.obj
 0001:0002f640       ?reset@NxSync@@QAEXXZ      10030640 f   NxSync.obj
 0001:0002f650       ?set@NxSync@@QAEXXZ        10030650 f   NxSync.obj
 0001:0002f660       ?wait@NxSync@@QAE_NI@Z     10030660 f   NxSync.obj
 0001:0002f690       ?getHandle@NxSync@@QAEPAXXZ 10030690 f   NxSync.obj
 0001:0002f6a0       ?waitAny@NxSync@@SAHPAPAV1@II@Z 100306a0 f   NxSync.obj
 0001:0002f720       ??0NxThread@@QAE@XZ        10030720 f   NxThread.obj
 0001:0002f780       ?start@NxThread@@QAEXI@Z   10030780 f   NxThread.obj
 0001:0002f7f0       ?signalQuit@NxThread@@QAEXXZ 100307f0 f   NxThread.obj
 0001:0002f810       ?waitForQuit@NxThread@@QAE_NXZ 10030810 f   NxThread.obj
 0001:0002f840       ?quitIsSignalled@NxThread@@QAE_NXZ 10030840 f   NxThread.obj
 0001:0002f860       ?quit@NxThread@@QAEXXZ     10030860 f   NxThread.obj
 0001:0002f880       ?kill@NxThread@@QAEXXZ     10030880 f   NxThread.obj
 0001:0002f8c0       ?sleep@NxThread@@SAXI@Z    100308c0 f   NxThread.obj
 0001:0002f8d0       ?execute@NxThread@@UAEXXZ  100308d0 f   NxThread.obj
 0001:0002f8e0       ?setAffinityMask@NxThread@@UAEII@Z 100308e0 f   NxThread.obj
 0001:0002f900       ?setPriority@NxThread@@QAEXW4NxThreadPriority@@@Z 10030900 f   NxThread.obj
 0001:0002f960       ??0NxThread@@QAE@P6APAXPAX@Z0@Z 10030960 f   NxThread.obj
 0001:0002f9f0       ??1NxThread@@UAE@XZ        100309f0 f   NxThread.obj
 0001:0002fa60       ??_ENxThread@@UAEPAXI@Z    10030a60 f i NxThread.obj
 0001:0002fa60       ??_GNxThread@@UAEPAXI@Z    10030a60 f i NxThread.obj
 0001:0002fa90       ?event@Observable@NxFoundation@@UAEXIAAV12@@Z 10030a90 f   Observable.obj
 0001:0002faa0       ?size@?$NxArray@PAVObservable@NxFoundation@@VUserAllocatorAccess@2@@@QBEIXZ 10030aa0 f i Observable.obj
 0001:0002fab0       ??A?$NxArray@PAVObservable@NxFoundation@@VUserAllocatorAccess@2@@@QAEAAPAVObservable@NxFoundation@@I@Z 10030ab0 f i Observable.obj
 0001:0002fac0       ?popBack@?$NxArray@PAVObservable@NxFoundation@@VUserAllocatorAccess@2@@@QAEXXZ 10030ac0 f i Observable.obj
 0001:0002fad0       ?capacity@?$NxArray@PAVObservable@NxFoundation@@VUserAllocatorAccess@2@@@QBEIXZ 10030ad0 f i Observable.obj
 0001:0002faf0       ?copy@?$NxArray@PAVObservable@NxFoundation@@VUserAllocatorAccess@2@@@AAEPAPAVObservable@NxFoundation@@PBQAV23@0PAPAV23@@Z 10030af0 f i Observable.obj
 0001:0002fb20       ?allocate@?$NxArray@PAVObservable@NxFoundation@@VUserAllocatorAccess@2@@@AAEPAPAVObservable@NxFoundation@@I@Z 10030b20 f i Observable.obj
 0001:0002fb50       ?notifyObservers@Observable@NxFoundation@@QAEXI@Z 10030b50 f   Observable.obj
 0001:0002fba0       ?getNumObservers@Observable@NxFoundation@@QAEIXZ 10030ba0 f   Observable.obj
 0001:0002fbb0       ?pop_back@?$NxArray@PAVObservable@NxFoundation@@VUserAllocatorAccess@2@@@QAEXXZ 10030bb0 f i Observable.obj
 0001:0002fbc0       ?reserve@?$NxArray@PAVObservable@NxFoundation@@VUserAllocatorAccess@2@@@QAEXI@Z 10030bc0 f i Observable.obj
 0001:0002fc70       ?removeObserver@Observable@NxFoundation@@QAEXAAV12@@Z 10030c70 f   Observable.obj
 0001:0002fcf0       ?pushBack@?$NxArray@PAVObservable@NxFoundation@@VUserAllocatorAccess@2@@@QAEXABQAVObservable@NxFoundation@@@Z 10030cf0 f i Observable.obj
 0001:0002fdc0       ?push_back@?$NxArray@PAVObservable@NxFoundation@@VUserAllocatorAccess@2@@@QAEXABQAVObservable@NxFoundation@@@Z 10030dc0 f i Observable.obj
 0001:0002fe90       ?addObserver@Observable@NxFoundation@@QAEXAAV12@@Z 10030e90 f   Observable.obj
 0001:0002ff60       ?NxTlsSet@@YAIIPAX@Z       10030f60 f i Profiler.obj
 0001:0002ff80       ?realloc@UserAllocatorAccess@NxFoundation@@QAEPAXPAXI@Z 10030f80 f i Profiler.obj
 0001:0002ff90       ??0NxMutexLock@@QAE@AAVNxMutex@@@Z 10030f90 f i Profiler.obj
 0001:0002ffb0       ??1NxMutexLock@@QAE@XZ     10030fb0 f i Profiler.obj
 0001:0002ffc0       ?initClock@ProfilerClock@NxFoundation@@SAXXZ 10030fc0 f i Profiler.obj
 0001:00030000       ?convert@ProfilerClock@NxFoundation@@SA_K_K@Z 10031000 f i Profiler.obj
 0001:00030030       ??0ProfileName@NxFoundation@@QAE@XZ 10031030 f i Profiler.obj
 0001:00030050       ?reset@ProfileName@NxFoundation@@QAEXXZ 10031050 f i Profiler.obj
 0001:00030080       ?Compare@InOrder@?P@??getProfileData@Profiler@NxFoundation@@QAEPAVNxProfilerData@@_N@Z@SAHPBX1@Z 10031080 f   Profiler.obj
 0001:000300a0       ??0?$NxArray@UProfileName@NxFoundation@@VUserAllocatorAccess@2@@@QAE@XZ 100310a0 f i Profiler.obj
 0001:000300b0       ?size@?$NxArray@UProfileName@NxFoundation@@VUserAllocatorAccess@2@@@QBEIXZ 100310b0 f i Profiler.obj
 0001:000300e0       ??A?$NxArray@UProfileName@NxFoundation@@VUserAllocatorAccess@2@@@QAEAAUProfileName@NxFoundation@@I@Z 100310e0 f i Profiler.obj
 0001:00030100       ?begin@?$NxArray@UProfileName@NxFoundation@@VUserAllocatorAccess@2@@@QAEPAUProfileName@NxFoundation@@XZ 10031100 f i Profiler.obj
 0001:00030110       ?front@?$NxArray@UProfileName@NxFoundation@@VUserAllocatorAccess@2@@@QAEAAUProfileName@NxFoundation@@XZ 10031110 f i Profiler.obj
 0001:00030120       ??0?$NxArray@VNxProfileZone@@VUserAllocatorAccess@NxFoundation@@@@QAE@XZ 10031120 f i Profiler.obj
 0001:00030130       ?size@?$NxArray@VNxProfileZone@@VUserAllocatorAccess@NxFoundation@@@@QBEIXZ 10031130 f i Profiler.obj
 0001:00030150       ??A?$NxArray@VNxProfileZone@@VUserAllocatorAccess@NxFoundation@@@@QAEAAVNxProfileZone@@I@Z 10031150 f i Profiler.obj
 0001:00030170       ?begin@?$NxArray@VNxProfileZone@@VUserAllocatorAccess@NxFoundation@@@@QAEPAVNxProfileZone@@XZ 10031170 f i Profiler.obj
 0001:00030180       ?end@?$NxArray@VNxProfileZone@@VUserAllocatorAccess@NxFoundation@@@@QAEPAVNxProfileZone@@XZ 10031180 f i Profiler.obj
 0001:00030190       ?front@?$NxArray@VNxProfileZone@@VUserAllocatorAccess@NxFoundation@@@@QAEAAVNxProfileZone@@XZ 10031190 f i Profiler.obj
 0001:000301a0       ??A?$NxArray@IVUserAllocatorAccess@NxFoundation@@@@QAEAAII@Z 100311a0 f i Profiler.obj
 0001:000301b0       ?begin@?$NxArray@IVUserAllocatorAccess@NxFoundation@@@@QAEPAIXZ 100311b0 f i Profiler.obj
 0001:000301c0       ?size@?$NxArray@PAVProfiler@NxFoundation@@VUserAllocatorAccess@2@@@QBEIXZ 100311c0 f i Profiler.obj
 0001:000301d0       ??A?$NxArray@PAVProfiler@NxFoundation@@VUserAllocatorAccess@2@@@QAEAAPAVProfiler@NxFoundation@@I@Z 100311d0 f i Profiler.obj
 0001:000301e0       ?size@?$NxArray@PBDVUserAllocatorAccess@NxFoundation@@@@QBEIXZ 100311e0 f i Profiler.obj
 0001:000301f0       ??A?$NxArray@PBDVUserAllocatorAccess@NxFoundation@@@@QAEAAPBDI@Z 100311f0 f i Profiler.obj
 0001:00030200       ?end@?$NxArray@UProfileName@NxFoundation@@VUserAllocatorAccess@2@@@QAEPAUProfileName@NxFoundation@@XZ 10031200 f i Profiler.obj
 0001:00030210       ?reallocate@?$NxArray@UProfileName@NxFoundation@@VUserAllocatorAccess@2@@@AAEPAUProfileName@NxFoundation@@IPAU23@@Z 10031210 f i Profiler.obj
 0001:00030240       ?deallocate@?$NxArray@UProfileName@NxFoundation@@VUserAllocatorAccess@2@@@AAEXPAUProfileName@NxFoundation@@@Z 10031240 f i Profiler.obj
 0001:00030260       ?destroy@?$NxArray@UProfileName@NxFoundation@@VUserAllocatorAccess@2@@@AAEXPAUProfileName@NxFoundation@@0@Z 10031260 f i Profiler.obj
 0001:00030270       ?capacity@?$NxArray@VNxProfileZone@@VUserAllocatorAccess@NxFoundation@@@@QBEIXZ 10031270 f i Profiler.obj
 0001:000302a0       ?fill@?$NxArray@VNxProfileZone@@VUserAllocatorAccess@NxFoundation@@@@AAEXPAVNxProfileZone@@IABV2@@Z 100312a0 f i Profiler.obj
 0001:00030300       ?copy@?$NxArray@VNxProfileZone@@VUserAllocatorAccess@NxFoundation@@@@AAEPAVNxProfileZone@@PBV2@0PAV2@@Z 10031300 f i Profiler.obj
 0001:00030360       ?deallocate@?$NxArray@VNxProfileZone@@VUserAllocatorAccess@NxFoundation@@@@AAEXPAVNxProfileZone@@@Z 10031360 f i Profiler.obj
 0001:00030380       ?destroy@?$NxArray@VNxProfileZone@@VUserAllocatorAccess@NxFoundation@@@@AAEXPAVNxProfileZone@@0@Z 10031380 f i Profiler.obj
 0001:00030390       ?size@?$NxArray@IVUserAllocatorAccess@NxFoundation@@@@QBEIXZ 10031390 f i Profiler.obj
 0001:000303a0       ?end@?$NxArray@IVUserAllocatorAccess@NxFoundation@@@@QAEPAIXZ 100313a0 f i Profiler.obj
 0001:000303b0       ?reallocate@?$NxArray@IVUserAllocatorAccess@NxFoundation@@@@AAEPAIIPAI@Z 100313b0 f i Profiler.obj
 0001:000303e0       ?deallocate@?$NxArray@PAVProfiler@NxFoundation@@VUserAllocatorAccess@2@@@AAEXPAPAVProfiler@NxFoundation@@@Z 100313e0 f i Profiler.obj
 0001:00030400       ?destroy@?$NxArray@PAVProfiler@NxFoundation@@VUserAllocatorAccess@2@@@AAEXPAPAVProfiler@NxFoundation@@0@Z 10031400 f i Profiler.obj
 0001:00030410       ?capacity@?$NxArray@UProfileName@NxFoundation@@VUserAllocatorAccess@2@@@QBEIXZ 10031410 f i Profiler.obj
 0001:00030440       ?fill@?$NxArray@UProfileName@NxFoundation@@VUserAllocatorAccess@2@@@AAEXPAUProfileName@NxFoundation@@IABU23@@Z 10031440 f i Profiler.obj
 0001:00030480       ?copy@?$NxArray@UProfileName@NxFoundation@@VUserAllocatorAccess@2@@@AAEPAUProfileName@NxFoundation@@PBU23@0PAU23@@Z 10031480 f i Profiler.obj
 0001:000304c0       ?allocate@?$NxArray@UProfileName@NxFoundation@@VUserAllocatorAccess@2@@@AAEPAUProfileName@NxFoundation@@I@Z 100314c0 f i Profiler.obj
 0001:000304f0       ?allocate@?$NxArray@VNxProfileZone@@VUserAllocatorAccess@NxFoundation@@@@AAEPAVNxProfileZone@@I@Z 100314f0 f i Profiler.obj
 0001:00030520       ?capacity@?$NxArray@IVUserAllocatorAccess@NxFoundation@@@@QBEIXZ 10031520 f i Profiler.obj
 0001:00030540       ?fill@?$NxArray@IVUserAllocatorAccess@NxFoundation@@@@AAEXPAIIABI@Z 10031540 f i Profiler.obj
 0001:00030570       ?copy@?$NxArray@IVUserAllocatorAccess@NxFoundation@@@@AAEPAIPBI0PAI@Z 10031570 f i Profiler.obj
 0001:000305a0       ?capacity@?$NxArray@PAVProfiler@NxFoundation@@VUserAllocatorAccess@2@@@QBEIXZ 100315a0 f i Profiler.obj
 0001:000305c0       ?copy@?$NxArray@PAVProfiler@NxFoundation@@VUserAllocatorAccess@2@@@AAEPAPAVProfiler@NxFoundation@@PBQAV23@0PAPAV23@@Z 100315c0 f i Profiler.obj
 0001:000305f0       ?allocate@?$NxArray@PAVProfiler@NxFoundation@@VUserAllocatorAccess@2@@@AAEPAPAVProfiler@NxFoundation@@I@Z 100315f0 f i Profiler.obj
 0001:00030620       ?allocate@?$NxArray@IVUserAllocatorAccess@NxFoundation@@@@AAEPAII@Z 10031620 f i Profiler.obj
 0001:00030650       ?createName@Profiler@NxFoundation@@QAEXPBDI@Z 10031650 f i Profiler.obj
 0001:000306c0       ??1?$NxArray@UProfileName@NxFoundation@@VUserAllocatorAccess@2@@@QAE@XZ 100316c0 f i Profiler.obj
 0001:00030700       ??1?$NxArray@VNxProfileZone@@VUserAllocatorAccess@NxFoundation@@@@QAE@XZ 10031700 f i Profiler.obj
 0001:00030740       ?clear@?$NxArray@VNxProfileZone@@VUserAllocatorAccess@NxFoundation@@@@QAEXXZ 10031740 f i Profiler.obj
 0001:00030750       ?erase@?$NxArray@VNxProfileZone@@VUserAllocatorAccess@NxFoundation@@@@QAEXPAVNxProfileZone@@0@Z 10031750 f i Profiler.obj
 0001:000307f0       ?reserve@?$NxArray@UProfileName@NxFoundation@@VUserAllocatorAccess@2@@@QAEXI@Z 100317f0 f i Profiler.obj
 0001:000308f0       ?insert@?$NxArray@UProfileName@NxFoundation@@VUserAllocatorAccess@2@@@QAEXPAUProfileName@NxFoundation@@IABU23@@Z 100318f0 f i Profiler.obj
 0001:00030b00       ?erase@?$NxArray@UProfileName@NxFoundation@@VUserAllocatorAccess@2@@@QAEXPAUProfileName@NxFoundation@@0@Z 10031b00 f i Profiler.obj
 0001:00030b80       ?reserve@?$NxArray@VNxProfileZone@@VUserAllocatorAccess@NxFoundation@@@@QAEXI@Z 10031b80 f i Profiler.obj
 0001:00030ca0       ?erase@?$NxArray@IVUserAllocatorAccess@NxFoundation@@@@QAEXPAI0@Z 10031ca0 f i Profiler.obj
 0001:00030d00       ?reserve@?$NxArray@PAVProfiler@NxFoundation@@VUserAllocatorAccess@2@@@QAEXI@Z 10031d00 f i Profiler.obj
 0001:00030db0       ?reserve@?$NxArray@IVUserAllocatorAccess@NxFoundation@@@@QAEXI@Z 10031db0 f i Profiler.obj
 0001:00030e60       ??0?$NxArraySDK@VNxProfileZone@@@NxFoundation@@QAE@XZ 10031e60 f i Profiler.obj
 0001:00030e70       ??1?$NxArraySDK@VNxProfileZone@@@NxFoundation@@QAE@XZ 10031e70 f i Profiler.obj
 0001:00030eb0       ??1?$NxArraySDK@UProfileName@NxFoundation@@@NxFoundation@@QAE@XZ 10031eb0 f i Profiler.obj
 0001:00030ef0       ??0?$NxArraySDK@UProfileName@NxFoundation@@@NxFoundation@@QAE@XZ 10031ef0 f i Profiler.obj
 0001:00030f00       ?resize@?$NxArray@UProfileName@NxFoundation@@VUserAllocatorAccess@2@@@QAEXIABUProfileName@NxFoundation@@@Z 10031f00 f i Profiler.obj
 0001:000311f0       ?pushBack@?$NxArray@UProfileName@NxFoundation@@VUserAllocatorAccess@2@@@QAEAAUProfileName@NxFoundation@@XZ 100321f0 f i Profiler.obj
 0001:00031320       ?pushBack@?$NxArray@VNxProfileZone@@VUserAllocatorAccess@NxFoundation@@@@QAEXABVNxProfileZone@@@Z 10032320 f i Profiler.obj
 0001:000314a0       ?insert@?$NxArray@VNxProfileZone@@VUserAllocatorAccess@NxFoundation@@@@QAEXPAVNxProfileZone@@IABV2@@Z 100324a0 f i Profiler.obj
 0001:00031710       ?pushBack@?$NxArray@PAVProfiler@NxFoundation@@VUserAllocatorAccess@2@@@QAEXABQAVProfiler@NxFoundation@@@Z 10032710 f i Profiler.obj
 0001:000317e0       ?insert@?$NxArray@IVUserAllocatorAccess@NxFoundation@@@@QAEXPAIIABI@Z 100327e0 f i Profiler.obj
 0001:00031940       ?allocateNames@Profiler@NxFoundation@@QAEXI@Z 10032940 f i Profiler.obj
 0001:00031d10       ?getProfileData@Profiler@NxFoundation@@QAEPAVNxProfilerData@@_N@Z 10032d10 f   Profiler.obj
 0001:00032d00       ?getProfileData@ProfilerManager@NxFoundation@@QAEPAVNxProfilerData@@_N@Z 10033d00 f   Profiler.obj
 0001:00032fe0       ?resize@?$NxArray@IVUserAllocatorAccess@NxFoundation@@@@QAEXIABI@Z 10033fe0 f i Profiler.obj
 0001:000331e0       ??0Profiler@NxFoundation@@QAE@XZ 100341e0 f   Profiler.obj
 0001:000335c0       ?addPerThreadProfiler@ProfilerManager@NxFoundation@@AAEPAVProfiler@2@XZ 100345c0 f   Profiler.obj
 0001:00033bd0       ?magnitudeSquared@NxVec3@@QBEMXZ 10034bd0 f i Sphere.obj
 0001:00033c00       ?distance@NxVec3@@QBEMABV1@@Z 10034c00 f i Sphere.obj
 0001:00033c40       ?distanceSquared@NxVec3@@QBEMABV1@@Z 10034c40 f i Sphere.obj
 0001:00033c80       ??KNxVec3@@QBE?AV0@M@Z     10034c80 f i Sphere.obj
 0001:00033cc0       ??_0NxVec3@@QAEAAV0@M@Z    10034cc0 f i Sphere.obj
 0001:00033cf0       ?cross@NxVec3@@QBE?AV1@ABV1@@Z 10034cf0 f i Sphere.obj
 0001:00033d40       ??D@YA?AVNxVec3@@MABV0@@Z  10034d40 f i Sphere.obj
 0001:00033d70       ??0NxSphere@@QAE@XZ        10034d70 f i Sphere.obj
 0001:00033d80       ??1NxSphere@@QAE@XZ        10034d80 f i Sphere.obj
 0001:00033d90       ?setRow@NxMat33@@QAEXHABVNxVec3@@@Z 10034d90 f i Sphere.obj
 0001:00033dc0       ?determinant@NxMat33@@QBEMXZ 10034dc0 f i Sphere.obj
 0001:00033e10       ??4NxSphere@@QAEAAV0@ABV0@@Z 10034e10 f i Sphere.obj
 0001:00033e40       ?fastComputeSphere@NxFoundation@@YA_NAAVNxSphere@@IPBVNxVec3@@@Z 10034e40 f   Sphere.obj
 0001:000346e0       ??1Miniball@NxFoundation@@QAE@XZ 100356e0 f i Sphere.obj
 0001:000346f0       ??0Miniball@NxFoundation@@QAE@XZ 100356f0 f   Sphere.obj
 0001:00034710       ??0Miniball@NxFoundation@@QAE@ABV01@@Z 10035710 f   Sphere.obj
 0001:00034740       ??0Miniball@NxFoundation@@QAE@ABVNxVec3@@@Z 10035740 f   Sphere.obj
 0001:00034770       ??0Miniball@NxFoundation@@QAE@ABVNxVec3@@M@Z 10035770 f   Sphere.obj
 0001:000347a0       ??0Miniball@NxFoundation@@QAE@ABVNxVec3@@0@Z 100357a0 f   Sphere.obj
 0001:00034850       ??0Miniball@NxFoundation@@QAE@ABVNxVec3@@00@Z 10035850 f   Sphere.obj
 0001:00034ae0       ??0Miniball@NxFoundation@@QAE@ABVNxVec3@@000@Z 10035ae0 f   Sphere.obj
 0001:00034e10       ??4Miniball@NxFoundation@@QAEAAV01@ABV01@@Z 10035e10 f   Sphere.obj
 0001:00034e40       ?d@Miniball@NxFoundation@@QBEMABVNxVec3@@@Z 10035e40 f   Sphere.obj
 0001:00034e80       ?d2@Miniball@NxFoundation@@QBEMABVNxVec3@@@Z 10035e80 f   Sphere.obj
 0001:00034ed0       ?d@Miniball@NxFoundation@@SAMABV12@ABVNxVec3@@@Z 10035ed0 f   Sphere.obj
 0001:00034f20       ?d@Miniball@NxFoundation@@SAMABVNxVec3@@ABV12@@Z 10035f20 f   Sphere.obj
 0001:00034f70       ?d2@Miniball@NxFoundation@@SAMABV12@ABVNxVec3@@@Z 10035f70 f   Sphere.obj
 0001:00034fc0       ?d2@Miniball@NxFoundation@@SAMABVNxVec3@@ABV12@@Z 10035fc0 f   Sphere.obj
 0001:00035010       ?recurseMini@Miniball@NxFoundation@@CA?AV12@QAPAVNxVec3@@II@Z 10036010 f   Sphere.obj
 0001:00035280       ?miniBall@Miniball@NxFoundation@@SA?AV12@QAVNxVec3@@I@Z 10036280 f   Sphere.obj
 0001:00035330       ?smallBall@Miniball@NxFoundation@@SA?AV12@QAVNxVec3@@I@Z 10036330 f   Sphere.obj
 0001:000356a0       ?computeSphere@NxFoundation@@YA?AW4NxBSphereMethod@@AAVNxSphere@@IPBVNxVec3@@@Z 100366a0 f   Sphere.obj
 0001:00035800       ?mergeSpheres@NxFoundation@@YAXAAVNxSphere@@ABV2@1@Z 10036800 f   Sphere.obj
 0001:00035950       ?GetTimeTicks@Time@NxFoundation@@CANXZ 10036950 f   Time.obj
 0001:00035970       ?GetClockFrequency@Time@NxFoundation@@CANXZ 10036970 f   Time.obj
 0001:000359c0       ?GetElapsedSeconds@Time@NxFoundation@@QAENXZ 100369c0 f   Time.obj
 0001:00035a30       ?PeekElapsedSeconds@Time@NxFoundation@@QAENXZ 10036a30 f   Time.obj
 0001:00035a90       ??0Time@NxFoundation@@QAE@XZ 10036a90 f   Time.obj
 0001:00035ab0       ?isZero@NxVec3@@QBEHXZ     10036ab0 f i Utilities.obj
 0001:00035ae0       ??ANxVec3@@QAEAAMH@Z       10036ae0 f i Utilities.obj
 0001:00035af0       ??ANxVec3@@QBEMH@Z         10036af0 f i Utilities.obj
 0001:00035b00       ?distance@NxPlane@@QBEMABVNxVec3@@@Z 10036b00 f i Utilities.obj
 0001:00035b30       ?computeDirection@NxSegment@@QBEXAAVNxVec3@@@Z 10036b30 f i Utilities.obj
 0001:00035b60       ?rayPlaneIntersect@@YA_NABVNxRay@@ABVNxPlane@@AAMAAVNxVec3@@@Z 10036b60 f   Utilities.obj
 0001:00035c30       ?Center@NxTriangle@@QBEXAAVNxVec3@@@Z 10036c30 f i Utilities.obj
 0001:00035cb0       ?NxRayTriIntersect@@YA_NABVNxVec3@@0000AAM11_N@Z 10036cb0 f   Utilities.obj
 0001:00036090       ?raySphereIntersect@@YA_NABVNxVec3@@0M0MAAMAAV1@@Z 10037090 f   Utilities.obj
 0001:00036320       ?computeBounds@NxFoundation@@YAXAAVNxVec3@@0IPBV2@@Z 10037320 f   Utilities.obj
 0001:00036400       ?jacobiTransform@NxFoundation@@YA_NHQAN0@Z 10037400 f   Utilities.obj
 0001:00036ff0       ?diagonalizeInertiaTensor@NxFoundation@@YA_NABVNxMat33@@AAVNxVec3@@AAV2@@Z 10037ff0 f   Utilities.obj
 0001:00037100       ?findRotationMatrix@NxFoundation@@YAXABVNxVec3@@0AAVNxMat33@@@Z 10038100 f   Utilities.obj
 0001:000374d0       ?crc32@NxFoundation@@YAIPBXI@Z 100384d0 f   Utilities.obj
 0001:00037510       ?transformInertiaTensor@@YAXABVNxVec3@@ABVNxMat33@@AAV2@@Z 10038510 f   Utilities.obj
 0001:00037650       ?triBoxIntersect@@YA_NABVNxVec3@@0000@Z 10038650 f   Utilities.obj
 0001:00038090       ?boxBoxIntersect@@YA_NABVNxVec3@@0ABVNxMat33@@001_N@Z 10039090 f   Utilities.obj
 0001:00038690       ?segmentPlaneIntersect@@YAXABVNxVec3@@0ABVNxPlane@@AAMAAV1@@Z 10039690 f   Utilities.obj
 0001:00038800       ?Inflate@NxTriangle@@QAEXM_N@Z 10039800 f i Utilities.obj
 0001:00038900       ?RayPolygon@@YA_NIPBVNxVec3@@PBEABVNxRay@@AAM@Z 10039900 f   Utilities.obj
 0001:00038a20       ?rayCapsuleIntersect@@YAIABVNxVec3@@0ABVNxCapsule@@QAM@Z 10039a20 f   Utilities.obj
 0001:000392a0       ?buildSmoothNormals@@YA_NIIPBVNxVec3@@PBIPBGPAV1@_N@Z 1003a2a0 f   Utilities.obj
 0001:00039a00       ?normalToTangents@NxFoundation@@YAXABVNxVec3@@AAV2@1@Z 1003aa00 f   Utilities.obj
 0001:00039bd0       ??1VolumeIntegrator@NxFoundation@@QAE@XZ 1003abd0 f   VolumeIntegration.obj
 0001:00039be0       ?computeCenterOfMass@VolumeIntegrator@NxFoundation@@AAE?AVNxVec3@@XZ 1003abe0 f   VolumeIntegration.obj
 0001:00039c70       ?computeInertiaTensor@VolumeIntegrator@NxFoundation@@AAEXPAN@Z 1003ac70 f   VolumeIntegration.obj
 0001:00039d30       ?computeCOMInertiaTensor@VolumeIntegrator@NxFoundation@@AAEXPAN@Z 1003ad30 f   VolumeIntegration.obj
 0001:00039e70       ?computeProjectionIntegrals@VolumeIntegrator@NxFoundation@@AAEXABUFace@12@@Z 1003ae70 f   VolumeIntegration.obj
 0001:0003a350       ?computeFaceIntegrals@VolumeIntegrator@NxFoundation@@AAEXABUFace@12@@Z 1003b350 f   VolumeIntegration.obj
 0001:0003a610       ??0VolumeIntegrator@NxFoundation@@QAE@VNxSimpleTriangleMesh@@N@Z 1003b610 f   VolumeIntegration.obj
 0001:0003a660       ?computeFaceNormal@VolumeIntegrator@NxFoundation@@AAEXAAUFace@12@PAI@Z 1003b660 f   VolumeIntegration.obj
 0001:0003a810       ?computeVolumeIntegrals@VolumeIntegrator@NxFoundation@@QAE_NAAUNxIntegrals@@@Z 1003b810 f   VolumeIntegration.obj
 0001:0003ac90       ?computeVolumeIntegrals@NxFoundation@@YA_NABVNxSimpleTriangleMesh@@MAAUNxIntegrals@@@Z 1003bc90 f   VolumeIntegration.obj
 0001:0003acf0       ?NpRayTriIntersect@@YA_NABVNxVec3@@0000AAM11_N@Z 1003bcf0 f   IntersectionRayTriangle.obj
 0001:0003b0d0       ?_prefetch@IceCore@@YAXPBX@Z 1003c0d0 f i OPC_AABBTree.obj
 0001:0003b0e0       ?LargestAxis@Point@IceMaths@@QBE?AW4PointComponent@2@XZ 1003c0e0 f i OPC_AABBTree.obj
 0001:0003b120       ??ZPoint@IceMaths@@QAEAAV01@ABV01@@Z 1003c120 f i OPC_AABBTree.obj
 0001:0003b150       ??_0Point@IceMaths@@QAEAAV01@M@Z 1003c150 f i OPC_AABBTree.obj
 0001:0003b180       ??BPoint@IceMaths@@QBEPBMXZ 1003c180 f i OPC_AABBTree.obj
 0001:0003b190       ??BPoint@IceMaths@@QAEPAMXZ 1003c190 f i OPC_AABBTree.obj
 0001:0003b1a0       ?GetMin@AABB@IceMaths@@QBEXAAVPoint@2@@Z 1003c1a0 f i OPC_AABBTree.obj
 0001:0003b1c0       ?GetMax@AABB@IceMaths@@QBEXAAVPoint@2@@Z 1003c1c0 f i OPC_AABBTree.obj
 0001:0003b1e0       ?GetMin@AABB@IceMaths@@QBEMI@Z 1003c1e0 f i OPC_AABBTree.obj
 0001:0003b1f0       ?GetMax@AABB@IceMaths@@QBEMI@Z 1003c1f0 f i OPC_AABBTree.obj
 0001:0003b200       ?GetCenter@AABB@IceMaths@@QBEXAAVPoint@2@@Z 1003c200 f i OPC_AABBTree.obj
 0001:0003b250       ?GetExtents@AABB@IceMaths@@QBEXAAVPoint@2@@Z 1003c250 f i OPC_AABBTree.obj
 0001:0003b2a0       ?PlanesAABBOverlap@Ctc@@YA_NABVAABB@IceMaths@@PBVPlane@3@AAII@Z 1003c2a0 f i OPC_AABBTree.obj
 0001:0003b3c0       ?SetCount@AABBTreeBuilder@Opcode@@QAEXI@Z 1003c3c0 f i OPC_AABBTree.obj
 0001:0003b3d0       ?IncreaseCount@AABBTreeBuilder@Opcode@@QAEXI@Z 1003c3d0 f i OPC_AABBTree.obj
 0001:0003b3f0       ?GetCount@AABBTreeBuilder@Opcode@@QBEIXZ 1003c3f0 f i OPC_AABBTree.obj
 0001:0003b400       ?SetNbInvalidSplits@AABBTreeBuilder@Opcode@@QAEXI@Z 1003c400 f i OPC_AABBTree.obj
 0001:0003b410       ?IncreaseNbInvalidSplits@AABBTreeBuilder@Opcode@@QAEXXZ 1003c410 f i OPC_AABBTree.obj
 0001:0003b420       ?SetBit@BitArray@Opcode@@QAEXI@Z 1003c420 f i OPC_AABBTree.obj
 0001:0003b450       ?ClearBit@BitArray@Opcode@@QAEXI@Z 1003c450 f i OPC_AABBTree.obj
 0001:0003b480       ?ClearAll@BitArray@Opcode@@QAEXXZ 1003c480 f i OPC_AABBTree.obj
 0001:0003b4b0       ?IsSet@BitArray@Opcode@@QBEHI@Z 1003c4b0 f i OPC_AABBTree.obj
 0001:0003b4e0       ?GetBits@BitArray@Opcode@@QBEPBIXZ 1003c4e0 f i OPC_AABBTree.obj
 0001:0003b4f0       ?GetSize@BitArray@Opcode@@QBEIXZ 1003c4f0 f i OPC_AABBTree.obj
 0001:0003b500       ?GetAABB@AABBTreeNode@Opcode@@QBEABVAABB@IceMaths@@XZ 1003c500 f i OPC_AABBTree.obj
 0001:0003b510       ?GetAABB@AABBTreeNode@Opcode@@QAEAAVAABB@IceMaths@@XZ 1003c510 f i OPC_AABBTree.obj
 0001:0003b520       ?GetPos@AABBTreeNode@Opcode@@QBEPBV12@XZ 1003c520 f i OPC_AABBTree.obj
 0001:0003b530       ?GetNeg@AABBTreeNode@Opcode@@QBEPBV12@XZ 1003c530 f i OPC_AABBTree.obj
 0001:0003b550       ?IsLeaf@AABBTreeNode@Opcode@@QBE_NXZ 1003c550 f i OPC_AABBTree.obj
 0001:0003b560       ?GetNodeSize@AABBTreeNode@Opcode@@QBEIXZ 1003c560 f i OPC_AABBTree.obj
 0001:0003b570       ?GetPrimitives@AABBTreeNode@Opcode@@QBEPBIXZ 1003c570 f i OPC_AABBTree.obj
 0001:0003b580       ?GetNbPrimitives@AABBTreeNode@Opcode@@QBEIXZ 1003c580 f i OPC_AABBTree.obj
 0001:0003b590       ?GetNbNodes@AABBTree@Opcode@@QBEIXZ 1003c590 f i OPC_AABBTree.obj
 0001:0003b5a0       ?StartProfile@@YAXAAI@Z    1003c5a0 f i OPC_AABBTree.obj
 0001:0003b5b0       ?EndProfile@@YAXAAI@Z      1003c5b0 f i OPC_AABBTree.obj
 0001:0003b5d0       ??0FIFOStack2@Opcode@@QAE@XZ 1003c5d0 f i OPC_AABBTree.obj
 0001:0003b5f0       ??1FIFOStack2@Opcode@@QAE@XZ 1003c5f0 f i OPC_AABBTree.obj
 0001:0003b600       ?Pop@FIFOStack2@Opcode@@QAE_NAAI@Z 1003c600 f   OPC_AABBTree.obj
 0001:0003b660       ??0AABBTreeNode@Opcode@@QAE@XZ 1003c660 f   OPC_AABBTree.obj
 0001:0003b680       ??_EAABBTreeNode@Opcode@@QAEPAXI@Z 1003c680 f i OPC_AABBTree.obj
 0001:0003b700       ?Split@AABBTreeNode@Opcode@@QAEIIPAVAABBTreeBuilder@2@@Z 1003c700 f   OPC_AABBTree.obj
 0001:0003b790       ?_Refit@AABBTreeNode@Opcode@@QAEXPAVAABBTreeBuilder@2@@Z 1003c790 f   OPC_AABBTree.obj
 0001:0003b7e0       ??_GFIFOStack2@Opcode@@QAEPAXI@Z 1003c7e0 f i OPC_AABBTree.obj
 0001:0003b810       ?_Walk@Local@?1??Walk@AABBTree@Opcode@@QBEIP6A_NPBVAABBTreeNode@4@IPAX@Z1@Z@SAX0AAI321@Z 1003c810 f   OPC_AABBTree.obj
 0001:0003b8e0       ?Refit@AABBTree@Opcode@@QAE_NPAVAABBTreeBuilder@2@@Z 1003c8e0 f   OPC_AABBTree.obj
 0001:0003b910       ?ComputeUnionBox@@YAXAAVAABB@IceMaths@@PBIIPBV12@@Z 1003c910 f i OPC_AABBTree.obj
 0001:0003bad0       ?Refit2@AABBTree@Opcode@@QAE_NPAVAABBTreeBuilder@2@@Z 1003cad0 f   OPC_AABBTree.obj
 0001:0003bc30       ?BitsToDwords@@YAII@Z      1003cc30 f i OPC_AABBTree.obj
 0001:0003bc50       ??0BitArray@Opcode@@QAE@XZ 1003cc50 f   OPC_AABBTree.obj
 0001:0003bc70       ?Init@BitArray@Opcode@@QAE_NI@Z 1003cc70 f   OPC_AABBTree.obj
 0001:0003bcf0       ??1BitArray@Opcode@@QAE@XZ 1003ccf0 f   OPC_AABBTree.obj
 0001:0003bd20       ?Refit3@AABBTree@Opcode@@QAE_NIPBVAABB@IceMaths@@ABVContainer@IceCore@@@Z 1003cd20 f   OPC_AABBTree.obj
 0001:0003bf70       ?MarkForRefit@AABBTree@Opcode@@QAEXI@Z 1003cf70 f   OPC_AABBTree.obj
 0001:0003c000       ?RefitMarked@AABBTree@Opcode@@QAEXIPBVAABB@IceMaths@@@Z 1003d000 f   OPC_AABBTree.obj
 0001:0003c210       ?GetUsedBytes@AABBTree@Opcode@@QBEIXZ 1003d210 f   OPC_AABBTree.obj
 0001:0003c230       ?IsComplete@AABBTree@Opcode@@QBE_NXZ 1003d230 f   OPC_AABBTree.obj
 0001:0003c250       ?Test@AABBTree@Opcode@@QAEXXZ 1003d250 f   OPC_AABBTree.obj
 0001:0003c260       ?Test2@AABBTree@Opcode@@QAEXXZ 1003d260 f   OPC_AABBTree.obj
 0001:0003c270       ?_TestAgainstPlanes@AABBTreeNode@Opcode@@QBEXPBVPlane@IceMaths@@IP6AXIPAIHPAX@Z2@Z 1003d270 f   OPC_AABBTree.obj
 0001:0003c340       ?_TestAgainstPlanes@AABBTreeNode@Opcode@@QBEXPBVPlane@IceMaths@@IAAVContainer@IceCore@@1@Z 1003d340 f   OPC_AABBTree.obj
 0001:0003c480       ??1AABBTreeNode@Opcode@@QAE@XZ 1003d480 f   OPC_AABBTree.obj
 0001:0003c4e0       ?Subdivide@AABBTreeNode@Opcode@@QAE_NPAVAABBTreeBuilder@2@@Z 1003d4e0 f   OPC_AABBTree.obj
 0001:0003cb10       ?_BuildHierarchy@AABBTreeNode@Opcode@@QAEXPAVAABBTreeBuilder@2@@Z 1003db10 f   OPC_AABBTree.obj
 0001:0003cd70       ??0AABBTree@Opcode@@QAE@XZ 1003dd70 f   OPC_AABBTree.obj
 0001:0003cd90       ?Release@AABBTree@Opcode@@QAEXXZ 1003dd90 f   OPC_AABBTree.obj
 0001:0003ce20       ?Build@AABBTree@Opcode@@QAE_NPAVAABBTreeBuilder@2@@Z 1003de20 f   OPC_AABBTree.obj
 0001:0003d070       ?Build@AABBTree@Opcode@@QAEIPAVAABBTreeBuilder@2@II@Z 1003e070 f   OPC_AABBTree.obj
 0001:0003d370       ?Walk@AABBTree@Opcode@@QBEIP6A_NPBVAABBTreeNode@2@IPAX@Z1@Z 1003e370 f   OPC_AABBTree.obj
 0001:0003d3b0       ??0BitArray@Opcode@@QAE@I@Z 1003e3b0 f   OPC_AABBTree.obj
 0001:0003d3d0       ??1AABBTree@Opcode@@QAE@XZ 1003e3d0 f   OPC_AABBTree.obj
 0001:0003d440       ?ComputeDepth@AABBTree@Opcode@@QBEIXZ 1003e440 f   OPC_AABBTree.obj
 0001:0003d480       ?LittleEndian@IceCore@@YADXZ 1003e480 f i OPC_BaseModel.obj
 0001:0003d490       ??0OPCODECREATE@Opcode@@QAE@XZ 1003e490 f   OPC_BaseModel.obj
 0001:0003d4e0       ??0BaseModel@Opcode@@QAE@XZ 1003e4e0 f   OPC_BaseModel.obj
 0001:0003d500       ??_GAABBTree@Opcode@@QAEPAXI@Z 1003e500 f i OPC_BaseModel.obj
 0001:0003d530       ?CreateTree@BaseModel@Opcode@@IAE_N_N0@Z 1003e530 f   OPC_BaseModel.obj
 0001:0003d640       ?Refit@BaseModel@Opcode@@UAE_NXZ 1003e640 f   OPC_BaseModel.obj
 0001:0003d660       ?ComputeSize@BaseModel@Opcode@@UBEIXZ 1003e660 f   OPC_BaseModel.obj
 0001:0003d680       ?Save@BaseModel@Opcode@@UBE_N_NAAVCustomArray@IceCore@@@Z 1003e680 f   OPC_BaseModel.obj
 0001:0003d710       ?ReleaseBase@BaseModel@Opcode@@IAEXXZ 1003e710 f   OPC_BaseModel.obj
 0001:0003d760       ?Load@BaseModel@Opcode@@UAE_NABVCustomArray@IceCore@@@Z 1003e760 f   OPC_BaseModel.obj
 0001:0003d870       ??1BaseModel@Opcode@@UAE@XZ 1003e870 f   OPC_BaseModel.obj
 0001:0003d8d0       ??_GBaseModel@Opcode@@UAEPAXI@Z 1003e8d0 f i OPC_BaseModel.obj
 0001:0003d8d0       ??_EBaseModel@Opcode@@UAEPAXI@Z 1003e8d0 f i OPC_BaseModel.obj
 0001:0003d950       ??0Collider@Opcode@@QAE@XZ 1003e950 f   OPC_Collider.obj
 0001:0003d970       ?InitQuery@Collider@Opcode@@MAEXXZ 1003e970 f i OPC_Collider.obj
 0001:0003d980       ??1Collider@Opcode@@UAE@XZ 1003e980 f   OPC_Collider.obj
 0001:0003d990       ??_ECollider@Opcode@@UAEPAXI@Z 1003e990 f i OPC_Collider.obj
 0001:0003d990       ??_GCollider@Opcode@@UAEPAXI@Z 1003e990 f i OPC_Collider.obj
 0001:0003d9c0       ?SetPlusInfinity@Point@IceMaths@@QAEAAV12@XZ 1003e9c0 f i OPC_HybridModel.obj
 0001:0003d9e0       ?SetMinusInfinity@Point@IceMaths@@QAEAAV12@XZ 1003e9e0 f i OPC_HybridModel.obj
 0001:0003da00       ?Min@Point@IceMaths@@QAEAAV12@ABV12@@Z 1003ea00 f i OPC_HybridModel.obj
 0001:0003da70       ?Max@Point@IceMaths@@QAEAAV12@ABV12@@Z 1003ea70 f i OPC_HybridModel.obj
 0001:0003dae0       ?GetMin@CollisionAABB@Opcode@@QBEXAAVPoint@IceMaths@@@Z 1003eae0 f i OPC_HybridModel.obj
 0001:0003db20       ?GetMax@CollisionAABB@Opcode@@QBEXAAVPoint@IceMaths@@@Z 1003eb20 f i OPC_HybridModel.obj
 0001:0003db60       ?SetMinMax@CollisionAABB@Opcode@@QAEXABVPoint@IceMaths@@0@Z 1003eb60 f i OPC_HybridModel.obj
 0001:0003dc00       ?GetNbTriangles@MeshInterface@Opcode@@QBEIXZ 1003ec00 f i OPC_HybridModel.obj
 0001:0003dc10       ?GetTriangle@MeshInterface@Opcode@@QBEXAAUVertexPointers@2@I@Z 1003ec10 f i OPC_HybridModel.obj
 0001:0003dc70       ??1AABBTreeOfTrianglesBuilder@Opcode@@UAE@XZ 1003ec70 f i OPC_HybridModel.obj
 0001:0003dc80       ?GetIndices@AABBTree@Opcode@@QBEPBIXZ 1003ec80 f i OPC_HybridModel.obj
 0001:0003dc90       ?GetNodes@AABBTree@Opcode@@QBEPBVAABBTreeNode@2@XZ 1003ec90 f i OPC_HybridModel.obj
 0001:0003dca0       ?HasPosLeaf@AABBNoLeafNode@Opcode@@QBEHXZ 1003eca0 f i OPC_HybridModel.obj
 0001:0003dcb0       ?HasNegLeaf@AABBNoLeafNode@Opcode@@QBEHXZ 1003ecb0 f i OPC_HybridModel.obj
 0001:0003dcc0       ?GetPos@AABBNoLeafNode@Opcode@@QBEPBV12@XZ 1003ecc0 f i OPC_HybridModel.obj
 0001:0003dcd0       ?GetNeg@AABBNoLeafNode@Opcode@@QBEPBV12@XZ 1003ecd0 f i OPC_HybridModel.obj
 0001:0003dce0       ?GetPosPrimitive@AABBNoLeafNode@Opcode@@QBEIXZ 1003ece0 f i OPC_HybridModel.obj
 0001:0003dcf0       ?GetNegPrimitive@AABBNoLeafNode@Opcode@@QBEIXZ 1003ecf0 f i OPC_HybridModel.obj
 0001:0003dd00       ?GetNbNodes@AABBOptimizedTree@Opcode@@QBEIXZ 1003ed00 f i OPC_HybridModel.obj
 0001:0003dd10       ?GetNodes@AABBNoLeafTree@Opcode@@QBEPBVAABBNoLeafNode@2@XZ 1003ed10 f i OPC_HybridModel.obj
 0001:0003dd20       ?HasLeafNodes@BaseModel@Opcode@@QBEHXZ 1003ed20 f i OPC_HybridModel.obj
 0001:0003dd30       ?IsQuantized@BaseModel@Opcode@@QBEHXZ 1003ed30 f i OPC_HybridModel.obj
 0001:0003dd40       ?SetMeshInterface@BaseModel@Opcode@@QAEXPBVMeshInterface@2@@Z 1003ed40 f i OPC_HybridModel.obj
 0001:0003dd50       ??0LeafTriangles@Opcode@@QAE@XZ 1003ed50 f i OPC_HybridModel.obj
 0001:0003dd60       ??1LeafTriangles@Opcode@@QAE@XZ 1003ed60 f i OPC_HybridModel.obj
 0001:0003dd70       ?GetNbTriangles@LeafTriangles@Opcode@@QBEIXZ 1003ed70 f i OPC_HybridModel.obj
 0001:0003dd80       ?GetTriangleIndex@LeafTriangles@Opcode@@QBEIXZ 1003ed80 f i OPC_HybridModel.obj
 0001:0003dd90       ?SetData@LeafTriangles@Opcode@@QAEXII@Z 1003ed90 f i OPC_HybridModel.obj
 0001:0003ddb0       ?GetLeafTriangles@HybridModel@Opcode@@QBEPBVLeafTriangles@2@XZ 1003edb0 f i OPC_HybridModel.obj
 0001:0003ddc0       ?GetIndices@HybridModel@Opcode@@QBEPBIXZ 1003edc0 f i OPC_HybridModel.obj
 0001:0003ddd0       ??0HybridModel@Opcode@@QAE@XZ 1003edd0 f   OPC_HybridModel.obj
 0001:0003de00       ??_ELeafTriangles@Opcode@@QAEPAXI@Z 1003ee00 f i OPC_HybridModel.obj
 0001:0003de70       ??0Internal@@QAE@XZ        1003ee70 f i OPC_HybridModel.obj
 0001:0003de90       ??1Internal@@QAE@XZ        1003ee90 f i OPC_HybridModel.obj
 0001:0003dec0       ?CountLeaves@Local@?M@??Build@HybridModel@Opcode@@UAE_NABUOPCODECREATE@4@@Z@SA_NPBVAABBTreeNode@4@IPAX@Z 1003eec0 f   OPC_HybridModel.obj
 0001:0003dee0       ?SetupLeafData@Local@?M@??Build@HybridModel@Opcode@@UAE_NABUOPCODECREATE@4@@Z@SA_NPBVAABBTreeNode@4@IPAX@Z 1003eee0 f   OPC_HybridModel.obj
 0001:0003df80       ?Save@HybridModel@Opcode@@UBE_N_NAAVCustomArray@IceCore@@@Z 1003ef80 f   OPC_HybridModel.obj
 0001:0003e080       ?Load@HybridModel@Opcode@@UAE_NABVCustomArray@IceCore@@@Z 1003f080 f   OPC_HybridModel.obj
 0001:0003e2d0       ?GetUsedBytes@HybridModel@Opcode@@UBEIXZ 1003f2d0 f   OPC_HybridModel.obj
 0001:0003e310       ?ComputeMinMax@@YAXAAVPoint@IceMaths@@0ABUVertexPointers@Opcode@@@Z 1003f310 f i OPC_HybridModel.obj
 0001:0003e4c0       ?Refit@HybridModel@Opcode@@UAE_NXZ 1003f4c0 f   OPC_HybridModel.obj
 0001:0003f190       ??0AABBTreeOfTrianglesBuilder@Opcode@@QAE@XZ 10040190 f i OPC_HybridModel.obj
 0001:0003f1e0       ??_EAABBTreeOfTrianglesBuilder@Opcode@@UAEPAXI@Z 100401e0 f i OPC_HybridModel.obj
 0001:0003f1e0       ??_GAABBTreeOfTrianglesBuilder@Opcode@@UAEPAXI@Z 100401e0 f i OPC_HybridModel.obj
 0001:0003f210       ?Release@HybridModel@Opcode@@AAEXXZ 10040210 f   OPC_HybridModel.obj
 0001:0003f290       ?Build@HybridModel@Opcode@@UAE_NABUOPCODECREATE@2@@Z 10040290 f   OPC_HybridModel.obj
 0001:0003f730       ?Build@HybridModel@Opcode@@UAE_NABVMeshInterface@2@ABVCustomArray@IceCore@@@Z 10040730 f   OPC_HybridModel.obj
 0001:0003f770       ??1HybridModel@Opcode@@UAE@XZ 10040770 f   OPC_HybridModel.obj
 0001:0003f7e0       ??_GHybridModel@Opcode@@UAEPAXI@Z 100407e0 f i OPC_HybridModel.obj
 0001:0003f7e0       ??_EHybridModel@Opcode@@UAEPAXI@Z 100407e0 f i OPC_HybridModel.obj
 0001:0003f810       ??0MeshInterface@Opcode@@QAE@XZ 10040810 f   OPC_MeshInterface.obj
 0001:0003f830       ??1MeshInterface@Opcode@@QAE@XZ 10040830 f   OPC_MeshInterface.obj
 0001:0003f840       ?IsValid@MeshInterface@Opcode@@QBE_NXZ 10040840 f   OPC_MeshInterface.obj
 0001:0003f870       ?CheckTopology@MeshInterface@Opcode@@QBEIXZ 10040870 f   OPC_MeshInterface.obj
 0001:0003f8e0       ?SetPointers@MeshInterface@Opcode@@QAE_NPBVIndexedTriangle@IceMaths@@PBVPoint@4@@Z 100408e0 f   OPC_MeshInterface.obj
 0001:0003f930       ?RemapClient@MeshInterface@Opcode@@QBE_NIPBI@Z 10040930 f   OPC_MeshInterface.obj
 0001:0003fb00       ??0Model@Opcode@@QAE@XZ    10040b00 f   OPC_Model.obj
 0001:0003fb20       ?Release@Model@Opcode@@AAEXXZ 10040b20 f   OPC_Model.obj
 0001:0003fb30       ?Build@Model@Opcode@@UAE_NABVMeshInterface@2@ABVCustomArray@IceCore@@@Z 10040b30 f   OPC_Model.obj
 0001:0003fb70       ?GetUsedBytes@Model@Opcode@@UBEIXZ 10040b70 f   OPC_Model.obj
 0001:0003fb90       ??1Model@Opcode@@UAE@XZ    10040b90 f   OPC_Model.obj
 0001:0003fc00       ?Build@Model@Opcode@@UAE_NABUOPCODECREATE@2@@Z 10040c00 f   OPC_Model.obj
 0001:0003fe40       ??_EModel@Opcode@@UAEPAXI@Z 10040e40 f i OPC_Model.obj
 0001:0003fe40       ??_GModel@Opcode@@UAEPAXI@Z 10040e40 f i OPC_Model.obj
 0001:0003fe70       ??DPoint@IceMaths@@QBE?AV01@ABVMatrix4x4@1@@Z 10040e70 f i OPC_OBBCollider.obj
 0001:0003fee0       ??0Matrix3x3@IceMaths@@QAE@XZ 10040ee0 f i OPC_OBBCollider.obj
 0001:0003fef0       ??0Matrix3x3@IceMaths@@QAE@MMMMMMMMM@Z 10040ef0 f i OPC_OBBCollider.obj
 0001:0003ff50       ??0Matrix3x3@IceMaths@@QAE@ABV01@@Z 10040f50 f i OPC_OBBCollider.obj
 0001:0003ff70       ??1Matrix3x3@IceMaths@@QAE@XZ 10040f70 f i OPC_OBBCollider.obj
 0001:0003ff80       ??DMatrix3x3@IceMaths@@QBE?AV01@ABV01@@Z 10040f80 f i OPC_OBBCollider.obj
 0001:000400c0       ??AMatrix3x3@IceMaths@@QBEABVPoint@1@H@Z 100410c0 f i OPC_OBBCollider.obj
 0001:000400d0       ??0Matrix4x4@IceMaths@@QAE@XZ 100410d0 f i OPC_OBBCollider.obj
 0001:000400e0       ??0Matrix4x4@IceMaths@@QAE@MMMMMMMMMMMMMMMM@Z 100410e0 f i OPC_OBBCollider.obj
 0001:00040180       ??0Matrix4x4@IceMaths@@QAE@ABV01@@Z 10041180 f i OPC_OBBCollider.obj
 0001:000401a0       ??1Matrix4x4@IceMaths@@QAE@XZ 100411a0 f i OPC_OBBCollider.obj
 0001:000401b0       ?Set@Matrix4x4@IceMaths@@QAEAAV12@MMMMMMMMMMMMMMMM@Z 100411b0 f i OPC_OBBCollider.obj
 0001:00040250       ?GetTrans@Matrix4x4@IceMaths@@QBEXAAVPoint@2@@Z 10041250 f i OPC_OBBCollider.obj
 0001:00040270       ?SetTrans@Matrix4x4@IceMaths@@QAEXABVPoint@2@@Z 10041270 f i OPC_OBBCollider.obj
 0001:00040290       ??BMatrix4x4@IceMaths@@QBE?AVMatrix3x3@1@XZ 10041290 f i OPC_OBBCollider.obj
 0001:000402f0       ??DMatrix4x4@IceMaths@@QBE?AV01@ABV01@@Z 100412f0 f i OPC_OBBCollider.obj
 0001:000405f0       ?InvertPRMatrix@IceMaths@@YAXAAVMatrix4x4@1@ABV21@@Z 100415f0 f i OPC_OBBCollider.obj
 0001:000406c0       ??0OBB@IceMaths@@QAE@ABVPoint@1@0ABVMatrix3x3@1@@Z 100416c0 f i OPC_OBBCollider.obj
 0001:00040710       ??1OBB@IceMaths@@QAE@XZ    10041710 f i OPC_OBBCollider.obj
 0001:00040720       ?TransformPoint@Opcode@@YAXAAVPoint@IceMaths@@ABV23@ABVMatrix3x3@3@1@Z 10041720 f i OPC_OBBCollider.obj
 0001:000407a0       ?HasPosLeaf@AABBQuantizedNoLeafNode@Opcode@@QBEHXZ 100417a0 f i OPC_OBBCollider.obj
 0001:000407b0       ?HasNegLeaf@AABBQuantizedNoLeafNode@Opcode@@QBEHXZ 100417b0 f i OPC_OBBCollider.obj
 0001:000407c0       ?GetPos@AABBQuantizedNoLeafNode@Opcode@@QBEPBV12@XZ 100417c0 f i OPC_OBBCollider.obj
 0001:000407d0       ?GetNeg@AABBQuantizedNoLeafNode@Opcode@@QBEPBV12@XZ 100417d0 f i OPC_OBBCollider.obj
 0001:000407e0       ?GetPosPrimitive@AABBQuantizedNoLeafNode@Opcode@@QBEIXZ 100417e0 f i OPC_OBBCollider.obj
 0001:000407f0       ?GetNegPrimitive@AABBQuantizedNoLeafNode@Opcode@@QBEIXZ 100417f0 f i OPC_OBBCollider.obj
 0001:00040800       ?GetNodes@AABBQuantizedNoLeafTree@Opcode@@QBEPBVAABBQuantizedNoLeafNode@2@XZ 10041800 f i OPC_OBBCollider.obj
 0001:00040810       ?GetTree@BaseModel@Opcode@@QBEPBVAABBOptimizedTree@2@XZ 10041810 f i OPC_OBBCollider.obj
 0001:00040820       ?HasSingleNode@BaseModel@Opcode@@QBEHXZ 10041820 f i OPC_OBBCollider.obj
 0001:00040830       ?GetMeshInterface@BaseModel@Opcode@@QBEPBVMeshInterface@2@XZ 10041830 f i OPC_OBBCollider.obj
 0001:00040840       ?GetContactStatus@Collider@Opcode@@QBEHXZ 10041840 f i OPC_OBBCollider.obj
 0001:00040850       ?FirstContactEnabled@Collider@Opcode@@QBEHXZ 10041850 f i OPC_OBBCollider.obj
 0001:00040860       ?TemporalCoherenceEnabled@Collider@Opcode@@QBEHXZ 10041860 f i OPC_OBBCollider.obj
 0001:00040870       ?ContactFound@Collider@Opcode@@QBEHXZ 10041870 f i OPC_OBBCollider.obj
 0001:00040890       ?SkipPrimitiveTests@Collider@Opcode@@QBEHXZ 10041890 f i OPC_OBBCollider.obj
 0001:000408a0       ?Setup@Collider@Opcode@@IAEHPBVBaseModel@2@@Z 100418a0 f i OPC_OBBCollider.obj
 0001:000408d0       ?InitQuery@VolumeCollider@Opcode@@MAEXXZ 100418d0 f i OPC_OBBCollider.obj
 0001:000408e0       ?IsCacheValid@VolumeCollider@Opcode@@IAEHAAUVolumeCache@2@@Z 100418e0 f i OPC_OBBCollider.obj
 0001:00040910       ?BoxBoxOverlap@OBBCollider@Opcode@@IAEHABVPoint@IceMaths@@0@Z 10041910 f i OPC_OBBCollider.obj
 0001:00040e50       ?planeBoxOverlap@@YAHABVPoint@IceMaths@@M0@Z 10041e50 f i OPC_OBBCollider.obj
 0001:00040f60       ?TriBoxOverlap@OBBCollider@Opcode@@IAEHABVPoint@IceMaths@@00@Z 10041f60 f i OPC_OBBCollider.obj
 0001:00041970       ??0OBBCollider@Opcode@@QAE@XZ 10042970 f   OPC_OBBCollider.obj
 0001:000419f0       ??1OBBCollider@Opcode@@UAE@XZ 100429f0 f   OPC_OBBCollider.obj
 0001:00041a70       ?ValidateSettings@OBBCollider@Opcode@@UAEPBDXZ 10042a70 f   OPC_OBBCollider.obj
 0001:00041a90       ?InitQuery@OBBCollider@Opcode@@IAEHAAUOBBCache@2@ABVOBB@IceMaths@@PBVMatrix4x4@5@2@Z 10042a90 f   OPC_OBBCollider.obj
 0001:000422a0       ?InitTraversal@OBBCollider@Opcode@@IAEXXZ 100432a0 f   OPC_OBBCollider.obj
 0001:00042570       ?OBBContainsBox@OBBCollider@Opcode@@IAEHABVPoint@IceMaths@@0@Z 10043570 f i OPC_OBBCollider.obj
 0001:00042700       ?_Collide@OBBCollider@Opcode@@IAEXPBVAABBNoLeafNode@2@@Z 10043700 f   OPC_OBBCollider.obj
 0001:00042f20       ?_CollideNoPrimitiveTest@OBBCollider@Opcode@@IAEXPBVAABBNoLeafNode@2@@Z 10043f20 f   OPC_OBBCollider.obj
 0001:000436a0       ?_Collide@OBBCollider@Opcode@@IAEXPBVAABBQuantizedNoLeafNode@2@@Z 100446a0 f   OPC_OBBCollider.obj
 0001:00043fa0       ?_CollideNoPrimitiveTest@OBBCollider@Opcode@@IAEXPBVAABBQuantizedNoLeafNode@2@@Z 10044fa0 f   OPC_OBBCollider.obj
 0001:000447f0       ?_Collide@OBBCollider@Opcode@@IAEXPBVAABBTreeNode@2@@Z 100457f0 f   OPC_OBBCollider.obj
 0001:00044fa0       ??0HybridOBBCollider@Opcode@@QAE@XZ 10045fa0 f   OPC_OBBCollider.obj
 0001:00045000       ??1HybridOBBCollider@Opcode@@UAE@XZ 10046000 f   OPC_OBBCollider.obj
 0001:00045070       ?Collide@HybridOBBCollider@Opcode@@QAE_NAAUOBBCache@2@ABVOBB@IceMaths@@ABVHybridModel@2@PBVMatrix4x4@5@3@Z 10046070 f   OPC_OBBCollider.obj
 0001:000455d0       ??_EOBBCollider@Opcode@@UAEPAXI@Z 100465d0 f i OPC_OBBCollider.obj
 0001:000455d0       ??_GOBBCollider@Opcode@@UAEPAXI@Z 100465d0 f i OPC_OBBCollider.obj
 0001:00045600       ?Collide@OBBCollider@Opcode@@QAE_NAAUOBBCache@2@ABVOBB@IceMaths@@ABVModel@2@PBVMatrix4x4@5@3@Z 10046600 f   OPC_OBBCollider.obj
 0001:00045730       ?Collide@OBBCollider@Opcode@@QAE_NAAUOBBCache@2@ABVOBB@IceMaths@@PBVAABBTree@2@@Z 10046730 f   OPC_OBBCollider.obj
 0001:00045790       ??_EHybridOBBCollider@Opcode@@UAEPAXI@Z 10046790 f i OPC_OBBCollider.obj
 0001:00045790       ??_GHybridOBBCollider@Opcode@@UAEPAXI@Z 10046790 f i OPC_OBBCollider.obj
 0001:000457c0       ??0CollisionAABB@Opcode@@QAE@XZ 100467c0 f i OPC_OptimizedTree.obj
 0001:000457d0       ??1CollisionAABB@Opcode@@QAE@XZ 100467d0 f i OPC_OptimizedTree.obj
 0001:000457e0       ??0QuantizedAABB@Opcode@@QAE@XZ 100467e0 f i OPC_OptimizedTree.obj
 0001:000457f0       ??1QuantizedAABB@Opcode@@QAE@XZ 100467f0 f i OPC_OptimizedTree.obj
 0001:00045800       ??0AABBNoLeafNode@Opcode@@QAE@XZ 10046800 f i OPC_OptimizedTree.obj
 0001:00045810       ??1AABBNoLeafNode@Opcode@@QAE@XZ 10046810 f i OPC_OptimizedTree.obj
 0001:00045820       ?GetNodeSize@AABBNoLeafNode@Opcode@@QBEIXZ 10046820 f i OPC_OptimizedTree.obj
 0001:00045830       ??0AABBQuantizedNoLeafNode@Opcode@@QAE@XZ 10046830 f i OPC_OptimizedTree.obj
 0001:00045840       ??1AABBQuantizedNoLeafNode@Opcode@@QAE@XZ 10046840 f i OPC_OptimizedTree.obj
 0001:00045850       ??0AABBOptimizedTree@Opcode@@QAE@XZ 10046850 f i OPC_OptimizedTree.obj
 0001:00045870       ??1AABBOptimizedTree@Opcode@@UAE@XZ 10046870 f i OPC_OptimizedTree.obj
 0001:00045880       ??_EAABBOptimizedTree@Opcode@@UAEPAXI@Z 10046880 f i OPC_OptimizedTree.obj
 0001:00045880       ??_GAABBOptimizedTree@Opcode@@UAEPAXI@Z 10046880 f i OPC_OptimizedTree.obj
 0001:000459b0       ??0AABBNoLeafTree@Opcode@@QAE@XZ 100469b0 f   OPC_OptimizedTree.obj
 0001:000459d0       ?GetUsedBytes@AABBNoLeafTree@Opcode@@UBEIXZ 100469d0 f i OPC_OptimizedTree.obj
 0001:000459e0       ??_EAABBNoLeafNode@Opcode@@QAEPAXI@Z 100469e0 f i OPC_OptimizedTree.obj
 0001:00045a50       ?Build@AABBNoLeafTree@Opcode@@UAE_NPAVAABBTree@2@@Z 10046a50 f   OPC_OptimizedTree.obj
 0001:00045bd0       ?Refit@AABBNoLeafTree@Opcode@@UAE_NPBVMeshInterface@2@@Z 10046bd0 f   OPC_OptimizedTree.obj
 0001:000460a0       ?_Walk@Local@?3??Walk@AABBNoLeafTree@Opcode@@UBE_NP6A_NPBXPAX@Z1@Z@SAXPBVAABBNoLeafNode@4@21@Z 100470a0 f   OPC_OptimizedTree.obj
 0001:00046100       ?ComputeSize@AABBNoLeafTree@Opcode@@UBEIXZ 10047100 f   OPC_OptimizedTree.obj
 0001:00046110       ??0CollisionAABB@Opcode@@QAE@ABV01@@Z 10047110 f i OPC_OptimizedTree.obj
 0001:00046150       ?Load@AABBNoLeafTree@Opcode@@UAE_N_NABVCustomArray@IceCore@@@Z 10047150 f   OPC_OptimizedTree.obj
 0001:00046460       ??0AABBQuantizedNoLeafTree@Opcode@@QAE@XZ 10047460 f   OPC_OptimizedTree.obj
 0001:00046480       ?GetUsedBytes@AABBQuantizedNoLeafTree@Opcode@@UBEIXZ 10047480 f i OPC_OptimizedTree.obj
 0001:00046490       ??_EAABBQuantizedNoLeafNode@Opcode@@QAEPAXI@Z 10047490 f i OPC_OptimizedTree.obj
 0001:00046500       ?Build@AABBQuantizedNoLeafTree@Opcode@@UAE_NPAVAABBTree@2@@Z 10047500 f   OPC_OptimizedTree.obj
 0001:00046d70       ?Refit@AABBQuantizedNoLeafTree@Opcode@@UAE_NPBVMeshInterface@2@@Z 10047d70 f   OPC_OptimizedTree.obj
 0001:00046d80       ?_Walk@Local@?3??Walk@AABBQuantizedNoLeafTree@Opcode@@UBE_NP6A_NPBXPAX@Z1@Z@SAXPBVAABBQuantizedNoLeafNode@4@21@Z 10047d80 f   OPC_OptimizedTree.obj
 0001:00046de0       ?ComputeSize@AABBQuantizedNoLeafTree@Opcode@@UBEIXZ 10047de0 f   OPC_OptimizedTree.obj
 0001:00046e00       ?Save@AABBQuantizedNoLeafTree@Opcode@@UBE_N_NAAVCustomArray@IceCore@@@Z 10047e00 f   OPC_OptimizedTree.obj
 0001:00046fe0       ?Load@AABBQuantizedNoLeafTree@Opcode@@UAE_N_NABVCustomArray@IceCore@@@Z 10047fe0 f   OPC_OptimizedTree.obj
 0001:00047280       ??1AABBNoLeafTree@Opcode@@UAE@XZ 10048280 f   OPC_OptimizedTree.obj
 0001:00047310       ?Walk@AABBNoLeafTree@Opcode@@UBE_NP6A_NPBXPAX@Z1@Z 10048310 f   OPC_OptimizedTree.obj
 0001:00047340       ??0AABBNoLeafNode@Opcode@@QAE@ABV01@@Z 10048340 f i OPC_OptimizedTree.obj
 0001:00047370       ??1AABBQuantizedNoLeafTree@Opcode@@UAE@XZ 10048370 f   OPC_OptimizedTree.obj
 0001:00047400       ?Walk@AABBQuantizedNoLeafTree@Opcode@@UBE_NP6A_NPBXPAX@Z1@Z 10048400 f   OPC_OptimizedTree.obj
 0001:00047430       ??_GAABBNoLeafTree@Opcode@@UAEPAXI@Z 10048430 f i OPC_OptimizedTree.obj
 0001:00047430       ??_EAABBNoLeafTree@Opcode@@UAEPAXI@Z 10048430 f i OPC_OptimizedTree.obj
 0001:00047460       ?Save@AABBNoLeafTree@Opcode@@UBE_N_NAAVCustomArray@IceCore@@@Z 10048460 f   OPC_OptimizedTree.obj
 0001:00047650       ??_GAABBQuantizedNoLeafTree@Opcode@@UAEPAXI@Z 10048650 f i OPC_OptimizedTree.obj
 0001:00047650       ??_EAABBQuantizedNoLeafTree@Opcode@@UAEPAXI@Z 10048650 f i OPC_OptimizedTree.obj
 0001:00047680       ??XPoint@IceMaths@@QAEAAV01@ABVMatrix4x4@1@@Z 10048680 f i OPC_PointDistance.obj
 0001:000476f0       ??0IndexedTriangle@IceMaths@@QAE@III@Z 100486f0 f i OPC_PointDistance.obj
 0001:00047710       ?Setup@PointDistanceQuery@Opcode@@AAEHPBVMeshInterface@2@@Z 10048710 f i OPC_PointDistance.obj
 0001:00047d80       ?PointTriangleSqrDist@@YAMABVPoint@IceMaths@@ABVIndexedTriangle@2@PBV12@PAM3@Z 10048d80 f i OPC_PointDistance.obj
 0001:00047f20       ??0PointDistanceQuery@Opcode@@QAE@XZ 10048f20 f   OPC_PointDistance.obj
 0001:00047f40       ??1PointDistanceQuery@Opcode@@UAE@XZ 10048f40 f   OPC_PointDistance.obj
 0001:00047f50       ??_EPointDistanceQuery@Opcode@@UAEPAXI@Z 10048f50 f i OPC_PointDistance.obj
 0001:00047f50       ??_GPointDistanceQuery@Opcode@@UAEPAXI@Z 10048f50 f i OPC_PointDistance.obj
 0001:00047f80       ?DIST_PRIM@PointDistanceQuery@Opcode@@AAEXI@Z 10048f80 f i OPC_PointDistance.obj
 0001:00048130       ?InitQuery@PointDistanceQuery@Opcode@@AAEXABVPoint@IceMaths@@PBVMatrix4x4@4@PAI@Z 10049130 f   OPC_PointDistance.obj
 0001:000482a0       ?_Distance@PointDistanceQuery@Opcode@@AAEXPBVAABBNoLeafNode@2@@Z 100492a0 f   OPC_PointDistance.obj
 0001:00048350       ?_Distance@PointDistanceQuery@Opcode@@AAEXPBVAABBQuantizedNoLeafNode@2@@Z 10049350 f   OPC_PointDistance.obj
 0001:00048470       ?ComputeDistance@PointDistanceQuery@Opcode@@QAE_NABVPoint@IceMaths@@PBVAABBNoLeafTree@2@PBVMatrix4x4@4@PAI@Z 10049470 f   OPC_PointDistance.obj
 0001:000484c0       ?ComputeDistance@PointDistanceQuery@Opcode@@QAE_NABVPoint@IceMaths@@PBVAABBQuantizedNoLeafTree@2@PBVMatrix4x4@4@PAI@Z 100494c0 f   OPC_PointDistance.obj
 0001:00048540       ?ComputeDistance@PointDistanceQuery@Opcode@@QAE_NABVPoint@IceMaths@@PBVModel@2@PBVMatrix4x4@4@PAI@Z 10049540 f   OPC_PointDistance.obj
 0001:000485a0       ??DIceMaths@@YA?AVPoint@0@MABV10@@Z 100495a0 f i OPC_RayCollider.obj
 0001:000485d0       ?GetRow@Matrix3x3@IceMaths@@QBEABVPoint@2@I@Z 100495d0 f i OPC_RayCollider.obj
 0001:000485e0       ??DMatrix3x3@IceMaths@@QBE?AVPoint@1@ABV21@@Z 100495e0 f i OPC_RayCollider.obj
 0001:00048650       ??0CollisionFace@Opcode@@QAE@XZ 10049650 f i OPC_RayCollider.obj
 0001:00048660       ??1CollisionFace@Opcode@@QAE@XZ 10049660 f i OPC_RayCollider.obj
 0001:00048670       ?GetNbFaces@CollisionFaces@Opcode@@QBEIXZ 10049670 f i OPC_RayCollider.obj
 0001:00048680       ?GetFaces@CollisionFaces@Opcode@@QBEPBVCollisionFace@2@XZ 10049680 f i OPC_RayCollider.obj
 0001:00048690       ?Reset@CollisionFaces@Opcode@@QAEXXZ 10049690 f i OPC_RayCollider.obj
 0001:000486b0       ?AddFace@CollisionFaces@Opcode@@QAEXABVCollisionFace@2@@Z 100496b0 f i OPC_RayCollider.obj
 0001:00048710       ?SetupSegment@RayCollider@Opcode@@IAEXXZ 10049710 f i OPC_RayCollider.obj
 0001:000487c0       ?SegmentAABBOverlap@RayCollider@Opcode@@IAEHABVPoint@IceMaths@@0@Z 100497c0 f i OPC_RayCollider.obj
 0001:000488f0       ?RayAABBOverlap@RayCollider@Opcode@@IAEHABVPoint@IceMaths@@0@Z 100498f0 f i OPC_RayCollider.obj
 0001:00048a70       ?RayTriOverlap@RayCollider@Opcode@@IAEHABVPoint@IceMaths@@00@Z 10049a70 f i OPC_RayCollider.obj
 0001:00048de0       ??0RayCollider@Opcode@@QAE@XZ 10049de0 f   OPC_RayCollider.obj
 0001:00048e30       ??1RayCollider@Opcode@@UAE@XZ 10049e30 f   OPC_RayCollider.obj
 0001:00048e40       ?ValidateSettings@RayCollider@Opcode@@UAEPBDXZ 10049e40 f   OPC_RayCollider.obj
 0001:00048ec0       ?InitQuery@RayCollider@Opcode@@IAEHABVRay@IceMaths@@PBVMatrix4x4@4@PAI@Z 10049ec0 f   OPC_RayCollider.obj
 0001:000493e0       ?_SegmentStab@RayCollider@Opcode@@IAEXPBVAABBNoLeafNode@2@@Z 1004a3e0 f   OPC_RayCollider.obj
 0001:000497e0       ?_RayStab@RayCollider@Opcode@@IAEXPBVAABBNoLeafNode@2@@Z 1004a7e0 f   OPC_RayCollider.obj
 0001:00049c00       ?_SegmentStab@RayCollider@Opcode@@IAEXPBVAABBQuantizedNoLeafNode@2@@Z 1004ac00 f   OPC_RayCollider.obj
 0001:0004a0a0       ?_RayStab@RayCollider@Opcode@@IAEXPBVAABBQuantizedNoLeafNode@2@@Z 1004b0a0 f   OPC_RayCollider.obj
 0001:0004a550       ?_SegmentStab@RayCollider@Opcode@@IAEXPBVAABBTreeNode@2@AAVContainer@IceCore@@@Z 1004b550 f   OPC_RayCollider.obj
 0001:0004a740       ?_SegmentClosestStab@RayCollider@Opcode@@IAEXPBVAABBTreeNode@2@P6AIPBIIAAMPAX@Z3@Z 1004b740 f   OPC_RayCollider.obj
 0001:0004aa00       ?_RayStab@RayCollider@Opcode@@IAEXPBVAABBTreeNode@2@AAVContainer@IceCore@@@Z 1004ba00 f   OPC_RayCollider.obj
 0001:0004ac40       ?TestAndShrink@RayCollider@Opcode@@IAEXI@Z 1004bc40 f   OPC_RayCollider.obj
 0001:0004ad90       ?_SegmentClosestStab@RayCollider@Opcode@@IAEXPBVAABBNoLeafNode@2@@Z 1004bd90 f   OPC_RayCollider.obj
 0001:0004afa0       ?_SegmentClosestStab@RayCollider@Opcode@@IAEXPBVAABBQuantizedNoLeafNode@2@@Z 1004bfa0 f   OPC_RayCollider.obj
 0001:0004b290       ??0HybridRayCollider@Opcode@@QAE@XZ 1004c290 f   OPC_RayCollider.obj
 0001:0004b2e0       ??1HybridRayCollider@Opcode@@UAE@XZ 1004c2e0 f   OPC_RayCollider.obj
 0001:0004b2f0       ?TestLeaf@HybridRayCollider@Opcode@@IAEXI@Z 1004c2f0 f   OPC_RayCollider.obj
 0001:0004b620       ?TestLeafAndShrink@HybridRayCollider@Opcode@@IAEXI@Z 1004c620 f   OPC_RayCollider.obj
 0001:0004b980       ?_SegmentStabNPT@HybridRayCollider@Opcode@@IAEXPBVAABBNoLeafNode@2@@Z 1004c980 f   OPC_RayCollider.obj
 0001:0004bb20       ?_RayStabNPT@HybridRayCollider@Opcode@@IAEXPBVAABBNoLeafNode@2@@Z 1004cb20 f   OPC_RayCollider.obj
 0001:0004bd10       ?_SegmentStabNPT@HybridRayCollider@Opcode@@IAEXPBVAABBQuantizedNoLeafNode@2@@Z 1004cd10 f   OPC_RayCollider.obj
 0001:0004bf60       ?_RayStabNPT@HybridRayCollider@Opcode@@IAEXPBVAABBQuantizedNoLeafNode@2@@Z 1004cf60 f   OPC_RayCollider.obj
 0001:0004c1f0       ??_GRayCollider@Opcode@@UAEPAXI@Z 1004d1f0 f i OPC_RayCollider.obj
 0001:0004c1f0       ??_ERayCollider@Opcode@@UAEPAXI@Z 1004d1f0 f i OPC_RayCollider.obj
 0001:0004c220       ?Collide@RayCollider@Opcode@@QAE_NABVRay@IceMaths@@ABVModel@2@PBVMatrix4x4@4@PAI@Z 1004d220 f   OPC_RayCollider.obj
 0001:0004c3b0       ?Collide@RayCollider@Opcode@@QAE_NABVRay@IceMaths@@PBVAABBTree@2@AAVContainer@IceCore@@@Z 1004d3b0 f   OPC_RayCollider.obj
 0001:0004c430       ?ClosestHit@RayCollider@Opcode@@QAE_NABVRay@IceMaths@@PBVAABBTree@2@P6AIPBIIAAMPAX@Z4@Z 1004d430 f   OPC_RayCollider.obj
 0001:0004c4a0       ??_EHybridRayCollider@Opcode@@UAEPAXI@Z 1004d4a0 f i OPC_RayCollider.obj
 0001:0004c4a0       ??_GHybridRayCollider@Opcode@@UAEPAXI@Z 1004d4a0 f i OPC_RayCollider.obj
 0001:0004c4d0       ?Collide@HybridRayCollider@Opcode@@QAE_NABVRay@IceMaths@@ABVHybridModel@2@PBVMatrix4x4@4@PAI@Z 1004d4d0 f   OPC_RayCollider.obj
 0001:0004c7b0       ?GetCenter@AABB@IceMaths@@QBEMI@Z 1004d7b0 f i OPC_TreeBuilders.obj
 0001:0004c7d0       ?ComputeGlobalBox@AABBTreeOfAABBsBuilder@Opcode@@UBE_NPBIIAAVAABB@IceMaths@@@Z 1004d7d0 f   OPC_TreeBuilders.obj
 0001:0004c870       ?GetSplittingValue@AABBTreeOfAABBsBuilder@Opcode@@UBEMII@Z 1004d870 f   OPC_TreeBuilders.obj
 0001:0004c8a0       ?GetSplittingValues@AABBTreeOfAABBsBuilder@Opcode@@UBEXIAAVPoint@IceMaths@@@Z 1004d8a0 f   OPC_TreeBuilders.obj
 0001:0004c8c0       ?ComputeGlobalBox@AABBTreeOfTrianglesBuilder@Opcode@@UBE_NPBIIAAVAABB@IceMaths@@@Z 1004d8c0 f   OPC_TreeBuilders.obj
 0001:0004cb90       ?GetSplittingValue@AABBTreeOfTrianglesBuilder@Opcode@@UBEMII@Z 1004db90 f   OPC_TreeBuilders.obj
 0001:0004cc00       ?GetSplittingValues@AABBTreeOfTrianglesBuilder@Opcode@@UBEXIAAVPoint@IceMaths@@@Z 1004dc00 f   OPC_TreeBuilders.obj
 0001:0004cca0       ?GetSplittingValue@AABBTreeOfTrianglesBuilder@Opcode@@UBEMPBIIABVAABB@IceMaths@@I@Z 1004dca0 f   OPC_TreeBuilders.obj
 0001:0004cef0       ?ComputeGlobalBox@AABBTreeOfVerticesBuilder@Opcode@@UBE_NPBIIAAVAABB@IceMaths@@@Z 1004def0 f   OPC_TreeBuilders.obj
 0001:0004cf70       ?GetSplittingValue@AABBTreeOfVerticesBuilder@Opcode@@UBEMII@Z 1004df70 f   OPC_TreeBuilders.obj
 0001:0004cf90       ?GetSplittingValues@AABBTreeOfVerticesBuilder@Opcode@@UBEXIAAVPoint@IceMaths@@@Z 1004df90 f   OPC_TreeBuilders.obj
 0001:0004cfc0       ?GetSplittingValue@AABBTreeOfVerticesBuilder@Opcode@@UBEMPBIIABVAABB@IceMaths@@I@Z 1004dfc0 f   OPC_TreeBuilders.obj
 0001:0004d0c0       ??0VolumeCollider@Opcode@@QAE@XZ 1004e0c0 f   OPC_VolumeCollider.obj
 0001:0004d0f0       ??1VolumeCollider@Opcode@@UAE@XZ 1004e0f0 f   OPC_VolumeCollider.obj
 0001:0004d110       ?ValidateSettings@VolumeCollider@Opcode@@UAEPBDXZ 1004e110 f   OPC_VolumeCollider.obj
 0001:0004d120       ?_Dump@VolumeCollider@Opcode@@IAEXPBVAABBNoLeafNode@2@@Z 1004e120 f   OPC_VolumeCollider.obj
 0001:0004d1d0       ?_Dump@VolumeCollider@Opcode@@IAEXPBVAABBQuantizedNoLeafNode@2@@Z 1004e1d0 f   OPC_VolumeCollider.obj
 0001:0004d280       ?Max@Point@IceMaths@@QBEMXZ 1004e280 f i IceAABB.obj
 0001:0004d2d0       ??0HPoint@IceMaths@@QAE@XZ 1004e2d0 f i IceAABB.obj
 0001:0004d2e0       ??1HPoint@IceMaths@@QAE@XZ 1004e2e0 f i IceAABB.obj
 0001:0004d2f0       ?SetCenterExtents@AABB@IceMaths@@QAEXABVPoint@2@0@Z 1004e2f0 f i IceAABB.obj
 0001:0004d360       ?Add@AABB@IceMaths@@QAEAAV12@ABV12@@Z 1004e360 f   IceAABB.obj
 0001:0004d4d0       ?MakeCube@AABB@IceMaths@@QBEMAAV12@@Z 1004e4d0 f   IceAABB.obj
 0001:0004d5a0       ?MakeSphere@AABB@IceMaths@@QBEXAAVSphere@2@@Z 1004e5a0 f   IceAABB.obj
 0001:0004d600       ?IsInside@AABB@IceMaths@@QBE_NABV12@@Z 1004e600 f   IceAABB.obj
 0001:0004d670       ?ComputePlanes@AABB@IceMaths@@QBE_NPAVPlane@2@@Z 1004e670 f   IceAABB.obj
 0001:0004d950       ?ComputePoints@AABB@IceMaths@@QBE_NPAVPoint@2@@Z 1004e950 f   IceAABB.obj
 0001:0004db70       ?GetVertexNormals@AABB@IceMaths@@QBEPBVPoint@2@XZ 1004eb70 f   IceAABB.obj
 0001:0004db80       ?GetEdges@AABB@IceMaths@@QBEPBIXZ 1004eb80 f   IceAABB.obj
 0001:0004db90       ?GetEdgeNormals@AABB@IceMaths@@QBEPBVPoint@2@XZ 1004eb90 f   IceAABB.obj
 0001:0004dba0       ?ComputeOutline@AABB@IceMaths@@QBEPBCABVPoint@2@AAH@Z 1004eba0 f   IceAABB.obj
 0001:0004dce0       ?ComputeBoxArea@AABB@IceMaths@@QBEMABVPoint@2@ABVMatrix4x4@2@MMAAH@Z 1004ece0 f   IceAABB.obj
 0001:0004def0       _GetAllocator              1004eef0 f   IceAllocator.obj
 0001:0004df10       _SetAllocator              1004ef10 f   IceAllocator.obj
 0001:0004df20       ??0DefaultAllocator@@QAE@XZ 1004ef20 f i IceAllocator.obj
 0001:0004df30       ?malloc@DefaultAllocator@@UAEPAXIW4MemoryType@IceCore@@@Z 1004ef30 f i IceAllocator.obj
 0001:0004df50       ?realloc@DefaultAllocator@@UAEPAXPAXI@Z 1004ef50 f i IceAllocator.obj
 0001:0004df70       ?free@DefaultAllocator@@UAEXPAX@Z 1004ef70 f i IceAllocator.obj
 0001:0004df90       ?mallocDebug@DefaultAllocator@@UAEPAXIPBDI0W4MemoryType@IceCore@@@Z 1004ef90 f i IceAllocator.obj
 0001:0004dfa0       ?DeleteIndex@ContainerSizeT@IceCore@@QAEXI@Z 1004efa0 f i IceContainer.obj
 0001:0004dfc0       ??0Container@IceCore@@QAE@XZ 1004efc0 f   IceContainer.obj
 0001:0004dfe0       ?Empty@Container@IceCore@@QAEAAV12@XZ 1004efe0 f   IceContainer.obj
 0001:0004e040       ?Resize@Container@IceCore@@AAE_NI@Z 1004f040 f   IceContainer.obj
 0001:0004e120       ?SetSize@Container@IceCore@@QAE_NI@Z 1004f120 f   IceContainer.obj
 0001:0004e1b0       ?Refit@Container@IceCore@@QAE_NXZ 1004f1b0 f   IceContainer.obj
 0001:0004e260       ?Contains@Container@IceCore@@QBE_NIPAI@Z 1004f260 f   IceContainer.obj
 0001:0004e2a0       ?Delete@Container@IceCore@@QAE_NI@Z 1004f2a0 f   IceContainer.obj
 0001:0004e300       ?DeleteKeepingOrder@Container@IceCore@@QAE_NI@Z 1004f300 f   IceContainer.obj
 0001:0004e370       ?FindNext@Container@IceCore@@QAEAAV12@AAIW4FindMode@2@@Z 1004f370 f   IceContainer.obj
 0001:0004e3f0       ?FindPrev@Container@IceCore@@QAEAAV12@AAIW4FindMode@2@@Z 1004f3f0 f   IceContainer.obj
 0001:0004e470       ?GetUsedRam@Container@IceCore@@QBEIXZ 1004f470 f   IceContainer.obj
 0001:0004e480       ?GetGrowthFactor@Container@IceCore@@QBEMXZ 1004f480 f   IceContainer.obj
 0001:0004e490       ?SetGrowthFactor@Container@IceCore@@QAEXM@Z 1004f490 f   IceContainer.obj
 0001:0004e4c0       ??4Container@IceCore@@QAEXABV01@@Z 1004f4c0 f   IceContainer.obj
 0001:0004e510       ??0ContainerSizeT@IceCore@@QAE@XZ 1004f510 f   IceContainer.obj
 0001:0004e530       ?Empty@ContainerSizeT@IceCore@@QAEAAV12@XZ 1004f530 f   IceContainer.obj
 0001:0004e590       ?Contains@ContainerSizeT@IceCore@@QBE_NIPAI@Z 1004f590 f   IceContainer.obj
 0001:0004e5d0       ?Delete@ContainerSizeT@IceCore@@QAE_NI@Z 1004f5d0 f   IceContainer.obj
 0001:0004e630       ?DeleteKeepingOrder@ContainerSizeT@IceCore@@QAEII@Z 1004f630 f   IceContainer.obj
 0001:0004e6a0       ?Resize@ContainerSizeT@IceCore@@AAE_NI@Z 1004f6a0 f   IceContainer.obj
 0001:0004e780       ??0Container@IceCore@@QAE@IM@Z 1004f780 f   IceContainer.obj
 0001:0004e7d0       ??0Container@IceCore@@QAE@ABV01@@Z 1004f7d0 f   IceContainer.obj
 0001:0004e830       ??1Container@IceCore@@QAE@XZ 1004f830 f   IceContainer.obj
 0001:0004e880       ?InitSharedBuffers@Container@IceCore@@QAEXIPAI@Z 1004f880 f   IceContainer.obj
 0001:0004e8f0       ??1ContainerSizeT@IceCore@@QAE@XZ 1004f8f0 f   IceContainer.obj
 0001:0004e940       ?InitSharedBuffers@ContainerSizeT@IceCore@@QAEXIPAI@Z 1004f940 f   IceContainer.obj
 0001:0004e9b0       ?GetAddress@CustomArray@IceCore@@QBEPAXXZ 1004f9b0 f i IceCustomArray.obj
 0001:0004ea10       ??0CustomCell@IceCore@@QAE@XZ 1004fa10 f   IceCustomArray.obj
 0001:0004ea30       ??1CustomCell@IceCore@@QAE@XZ 1004fa30 f   IceCustomArray.obj
 0001:0004ea60       ??_GCustomCell@IceCore@@QAEPAXI@Z 1004fa60 f i IceCustomArray.obj
 0001:0004eab0       ?NewBlock@CustomArray@IceCore@@AAE_NPAVCustomCell@2@I@Z 1004fab0 f   IceCustomArray.obj
 0001:0004eb50       ?CheckArray@CustomArray@IceCore@@AAEAAV12@I@Z 1004fb50 f   IceCustomArray.obj
 0001:0004eb80       ?SaveCell@CustomArray@IceCore@@AAE_NPAVCustomCell@2@PAU_iobuf@@@Z 1004fb80 f   IceCustomArray.obj
 0001:0004ebc0       ?GetSize@CustomArray@IceCore@@QBEIXZ 1004fbc0 f   IceCustomArray.obj
 0001:0004ebf0       ?PrepareAccess@CustomArray@IceCore@@AAEPAXI@Z 1004fbf0 f   IceCustomArray.obj
 0001:0004ec20       ?Store@CustomArray@IceCore@@QAEAAV12@D@Z 1004fc20 f   IceCustomArray.obj
 0001:0004ec70       ?PushAddress@CustomArray@IceCore@@QAE_NXZ 1004fc70 f   IceCustomArray.obj
 0001:0004ed60       ?PopAddressAndStore@CustomArray@IceCore@@QAEAAV12@H@Z 1004fd60 f   IceCustomArray.obj
 0001:0004ed90       ?PopAddressAndStore@CustomArray@IceCore@@QAEAAV12@_N@Z 1004fd90 f   IceCustomArray.obj
 0001:0004edc0       ?PopAddressAndStore@CustomArray@IceCore@@QAEAAV12@D@Z 1004fdc0 f   IceCustomArray.obj
 0001:0004edf0       ?PopAddressAndStore@CustomArray@IceCore@@QAEAAV12@E@Z 1004fdf0 f   IceCustomArray.obj
 0001:0004ee20       ?PopAddressAndStore@CustomArray@IceCore@@QAEAAV12@F@Z 1004fe20 f   IceCustomArray.obj
 0001:0004ee50       ?PopAddressAndStore@CustomArray@IceCore@@QAEAAV12@G@Z 1004fe50 f   IceCustomArray.obj
 0001:0004ee80       ?PopAddressAndStore@CustomArray@IceCore@@QAEAAV12@J@Z 1004fe80 f   IceCustomArray.obj
 0001:0004eeb0       ?PopAddressAndStore@CustomArray@IceCore@@QAEAAV12@K@Z 1004feb0 f   IceCustomArray.obj
 0001:0004eee0       ?PopAddressAndStore@CustomArray@IceCore@@QAEAAV12@I@Z 1004fee0 f   IceCustomArray.obj
 0001:0004ef10       ?PopAddressAndStore@CustomArray@IceCore@@QAEAAV12@M@Z 1004ff10 f   IceCustomArray.obj
 0001:0004ef40       ?PopAddressAndStore@CustomArray@IceCore@@QAEAAV12@N@Z 1004ff40 f   IceCustomArray.obj
 0001:0004ef70       ?GetByte@CustomArray@IceCore@@QBEEXZ 1004ff70 f   IceCustomArray.obj
 0001:0004ef90       ?GetWord@CustomArray@IceCore@@QBEGXZ 1004ff90 f   IceCustomArray.obj
 0001:0004efb0       ?GetDword@CustomArray@IceCore@@QBEIXZ 1004ffb0 f   IceCustomArray.obj
 0001:0004efd0       ?GetFloat@CustomArray@IceCore@@QBEMXZ 1004ffd0 f   IceCustomArray.obj
 0001:0004eff0       ?GetString@CustomArray@IceCore@@QBEPBEXZ 1004fff0 f   IceCustomArray.obj
 0001:0004f030       ?GetBuffer@CustomArray@IceCore@@QBEPBXI@Z 10050030 f   IceCustomArray.obj
 0001:0004f060       ?Reset@CustomArray@IceCore@@QAEAAV12@I@Z 10050060 f   IceCustomArray.obj
 0001:0004f090       ?GetChunk@CustomArray@IceCore@@QAEPAXPBD@Z 10050090 f   IceCustomArray.obj
 0001:0004f210       ?StoreBit@CustomArray@IceCore@@QAEAAV12@_N@Z 10050210 f i IceCustomArray.obj
 0001:0004f280       ?Init@CustomArray@IceCore@@AAEXIPAXPAU_iobuf@@I@Z 10050280 f   IceCustomArray.obj
 0001:0004f300       ?Empty@CustomArray@IceCore@@AAEAAV12@XZ 10050300 f   IceCustomArray.obj
 0001:0004f3a0       ?EndBits@CustomArray@IceCore@@QAEAAV12@XZ 100503a0 f   IceCustomArray.obj
 0001:0004f430       ??0CustomArray@IceCore@@QAE@IPAX@Z 10050430 f   IceCustomArray.obj
 0001:0004f4b0       ??0CustomArray@IceCore@@QAE@PBD@Z 100504b0 f   IceCustomArray.obj
 0001:0004f590       ??1CustomArray@IceCore@@QAE@XZ 10050590 f   IceCustomArray.obj
 0001:0004f5a0       ?Clean@CustomArray@IceCore@@QAEAAV12@XZ 100505a0 f   IceCustomArray.obj
 0001:0004f5d0       ?ExportToDisk@CustomArray@IceCore@@QAE_NPAU_iobuf@@@Z 100505d0 f   IceCustomArray.obj
 0001:0004f650       ?Padd@CustomArray@IceCore@@QAEAAV12@XZ 10050650 f   IceCustomArray.obj
 0001:0004f6e0       ?Collapse@CustomArray@IceCore@@QAEPAXPAX@Z 100506e0 f   IceCustomArray.obj
 0001:0004f7e0       ?Store@CustomArray@IceCore@@QAEAAV12@H@Z 100507e0 f   IceCustomArray.obj
 0001:0004f840       ?Store@CustomArray@IceCore@@QAEAAV12@_N@Z 10050840 f   IceCustomArray.obj
 0001:0004f8a0       ?Store@CustomArray@IceCore@@QAEAAV12@F@Z 100508a0 f   IceCustomArray.obj
 0001:0004f900       ?Store@CustomArray@IceCore@@QAEAAV12@I@Z 10050900 f   IceCustomArray.obj
 0001:0004f960       ?Store@CustomArray@IceCore@@QAEAAV12@M@Z 10050960 f   IceCustomArray.obj
 0001:0004f9c0       ?Store@CustomArray@IceCore@@QAEAAV12@N@Z 100509c0 f   IceCustomArray.obj
 0001:0004fa20       ?Store@CustomArray@IceCore@@QAEAAV12@PBD@Z 10050a20 f   IceCustomArray.obj
 0001:0004faa0       ?Store@CustomArray@IceCore@@QAEAAV12@PBXI@Z 10050aa0 f   IceCustomArray.obj
 0001:0004fb20       ?Store@CustomArray@IceCore@@QAEAAV12@PAV12@@Z 10050b20 f   IceCustomArray.obj
 0001:0004fb80       ?StoreASCIICode@CustomArray@IceCore@@AAEAAV12@D@Z 10050b80 f   IceCustomArray.obj
 0001:0004fbd0       ?StoreASCII@CustomArray@IceCore@@QAEAAV12@PBD@Z 10050bd0 f   IceCustomArray.obj
 0001:0004fd00       ??0CustomArray@IceCore@@QAE@AAV01@@Z 10050d00 f   IceCustomArray.obj
 0001:0004fde0       ??4CustomArray@IceCore@@QAEAAV01@AAV01@@Z 10050de0 f   IceCustomArray.obj
 0001:0004fea0       ?ExportToDisk@CustomArray@IceCore@@QAE_NPBD0@Z 10050ea0 f   IceCustomArray.obj
 0001:0004ff10       ?StoreASCII@CustomArray@IceCore@@QAEAAV12@H@Z 10050f10 f   IceCustomArray.obj
 0001:0004ff80       ?StoreASCII@CustomArray@IceCore@@QAEAAV12@_N@Z 10050f80 f   IceCustomArray.obj
 0001:0004ffc0       ?StoreASCII@CustomArray@IceCore@@QAEAAV12@D@Z 10050fc0 f   IceCustomArray.obj
 0001:00050030       ?StoreASCII@CustomArray@IceCore@@QAEAAV12@E@Z 10051030 f   IceCustomArray.obj
 0001:000500a0       ?StoreASCII@CustomArray@IceCore@@QAEAAV12@F@Z 100510a0 f   IceCustomArray.obj
 0001:00050110       ?StoreASCII@CustomArray@IceCore@@QAEAAV12@G@Z 10051110 f   IceCustomArray.obj
 0001:00050180       ?StoreASCII@CustomArray@IceCore@@QAEAAV12@J@Z 10051180 f   IceCustomArray.obj
 0001:000501f0       ?StoreASCII@CustomArray@IceCore@@QAEAAV12@K@Z 100511f0 f   IceCustomArray.obj
 0001:00050260       ?StoreASCII@CustomArray@IceCore@@QAEAAV12@I@Z 10051260 f   IceCustomArray.obj
 0001:000502d0       ?StoreASCII@CustomArray@IceCore@@QAEAAV12@M@Z 100512d0 f   IceCustomArray.obj
 0001:00050340       ?StoreASCII@CustomArray@IceCore@@QAEAAV12@N@Z 10051340 f   IceCustomArray.obj
 0001:000503b0       ??0HPoint@IceMaths@@QAE@MMMM@Z 100513b0 f i IceHPoint.obj
 0001:000503e0       ??DHPoint@IceMaths@@QBE?AVPoint@1@ABVMatrix3x3@1@@Z 100513e0 f   IceHPoint.obj
 0001:00050450       ??DHPoint@IceMaths@@QBE?AV01@ABVMatrix4x4@1@@Z 10051450 f   IceHPoint.obj
 0001:00050520       ??XHPoint@IceMaths@@QAEAAV01@ABVMatrix4x4@1@@Z 10051520 f   IceHPoint.obj
 0001:000505e0       ?UnitRandomFloat@IceCore@@YAMXZ 100515e0 f i IceIndexedTriangle.obj
 0001:00050610       ?SquareDistance@Point@IceMaths@@QBEMABV12@@Z 10051610 f i IceIndexedTriangle.obj
 0001:00050650       ?SmallestAxis@Point@IceMaths@@QBE?AW4PointComponent@2@XZ 10051650 f i IceIndexedTriangle.obj
 0001:00050690       ?Normal@IndexedTriangle@IceMaths@@QBEXPBVPoint@2@AAV32@@Z 10051690 f i IceIndexedTriangle.obj
 0001:00050780       ?Center@IndexedTriangle@IceMaths@@QBEXPBVPoint@2@AAV32@@Z 10051780 f i IceIndexedTriangle.obj
 0001:00050810       ?Flip@IndexedTriangle@IceMaths@@QAEXXZ 10051810 f   IceIndexedTriangle.obj
 0001:00050840       ?Area@IndexedTriangle@IceMaths@@QBEMPBVPoint@2@@Z 10051840 f   IceIndexedTriangle.obj
 0001:00050900       ?Perimeter@IndexedTriangle@IceMaths@@QBEMPBVPoint@2@@Z 10051900 f   IceIndexedTriangle.obj
 0001:00050a20       ?Compacity@IndexedTriangle@IceMaths@@QBEMPBVPoint@2@@Z 10051a20 f   IceIndexedTriangle.obj
 0001:00050a90       ?CenteredNormal@IndexedTriangle@IceMaths@@QBEXPBVPoint@2@AAV32@@Z 10051a90 f   IceIndexedTriangle.obj
 0001:00050bd0       ?RandomPoint@IndexedTriangle@IceMaths@@QBEXPBVPoint@2@AAV32@@Z 10051bd0 f   IceIndexedTriangle.obj
 0001:00050d50       ?IsVisible@IndexedTriangle@IceMaths@@QBE_NPBVPoint@2@ABV32@@Z 10051d50 f   IceIndexedTriangle.obj
 0001:00050e00       ?BackfaceCulling@IndexedTriangle@IceMaths@@QBE_NPBVPoint@2@ABV32@@Z 10051e00 f   IceIndexedTriangle.obj
 0001:00050ed0       ?ComputeOcclusionPotential@IndexedTriangle@IceMaths@@QBEMPBVPoint@2@ABV32@@Z 10051ed0 f   IceIndexedTriangle.obj
 0001:00050fa0       ?ReplaceVertex@IndexedTriangle@IceMaths@@QAE_NII@Z 10051fa0 f   IceIndexedTriangle.obj
 0001:00050ff0       ?IsDegenerate@IndexedTriangle@IceMaths@@QBE_NXZ 10051ff0 f   IceIndexedTriangle.obj
 0001:00051010       ?HasVertex@IndexedTriangle@IceMaths@@QBE_NI@Z 10052010 f   IceIndexedTriangle.obj
 0001:00051040       ?HasVertex@IndexedTriangle@IceMaths@@QBE_NIPAI@Z 10052040 f   IceIndexedTriangle.obj
 0001:000510a0       ?FindEdge@IndexedTriangle@IceMaths@@QBEEII@Z 100520a0 f   IceIndexedTriangle.obj
 0001:00051120       ?OppositeVertex@IndexedTriangle@IceMaths@@QBEIII@Z 10052120 f   IceIndexedTriangle.obj
 0001:000511a0       ?GetVRefs@IndexedTriangle@IceMaths@@QBEXEAAI00@Z 100521a0 f   IceIndexedTriangle.obj
 0001:00051220       ?MinEdgeLength@IndexedTriangle@IceMaths@@QBEMPBVPoint@2@@Z 10052220 f   IceIndexedTriangle.obj
 0001:00051340       ?MaxEdgeLength@IndexedTriangle@IceMaths@@QBEMPBVPoint@2@@Z 10052340 f   IceIndexedTriangle.obj
 0001:00051460       ?ComputePoint@IndexedTriangle@IceMaths@@QBEXPBVPoint@2@MMAAV32@PAI@Z 10052460 f   IceIndexedTriangle.obj
 0001:00051630       ?Angle@IndexedTriangle@IceMaths@@QBEMABV12@PBVPoint@2@@Z 10052630 f   IceIndexedTriangle.obj
 0001:000516f0       ?Equal@IndexedTriangle@IceMaths@@QBE_NABV12@@Z 100526f0 f   IceIndexedTriangle.obj
 0001:00051750       ?Area@IndexedTriangle16@IceMaths@@QBEMPBVPoint@2@@Z 10052750 f   IceIndexedTriangle.obj
 0001:00051810       ?DenormalizedNormal@IndexedTriangle16@IceMaths@@QBEXPBVPoint@2@AAV32@@Z 10052810 f   IceIndexedTriangle.obj
 0001:000518a0       ?Center@IndexedTriangle16@IceMaths@@QBEXPBVPoint@2@AAV32@@Z 100528a0 f   IceIndexedTriangle.obj
 0001:00051930       ?BackfaceCulling@IndexedTriangle16@IceMaths@@QBE_NPBVPoint@2@ABV32@@Z 10052930 f   IceIndexedTriangle.obj
 0001:00051a00       ?IsDegenerate@IndexedTriangle16@IceMaths@@QBE_NXZ 10052a00 f   IceIndexedTriangle.obj
 0001:00051a30       ??$TSwap@G@IceCore@@YAXAAG0@Z 10052a30 f i IceIndexedTriangle.obj
 0001:00051a50       ?Flip@IndexedTriangle16@IceMaths@@QAEXXZ 10052a50 f   IceIndexedTriangle.obj
 0001:00051a70       ??BMatrix3x3@IceMaths@@QBE?AVMatrix4x4@1@XZ 10052a70 f   IceMatrix3x3.obj
 0001:00051af0       ?CoFactor@Matrix4x4@IceMaths@@QBEMII@Z 10052af0 f   IceMatrix4x4.obj
 0001:00051c30       ?Determinant@Matrix4x4@IceMaths@@QBEMXZ 10052c30 f   IceMatrix4x4.obj
 0001:00051ca0       ?Invert@Matrix4x4@IceMaths@@QAEAAV12@XZ 10052ca0 f   IceMatrix4x4.obj
 0001:00051e80       ??DPoint@IceMaths@@QBE?AV01@ABVMatrix3x3@1@@Z 10052e80 f i IceOBB.obj
 0001:00051ef0       ??0OBB@IceMaths@@QAE@XZ    10052ef0 f i IceOBB.obj
 0001:00051f00       ?Rotate@OBB@IceMaths@@QBEXABVMatrix4x4@2@AAV12@@Z 10052f00 f i IceOBB.obj
 0001:00051fb0       ?ContainsPoint@OBB@IceMaths@@QBE_NABVPoint@2@@Z 10052fb0 f   IceOBB.obj
 0001:000520b0       ?Create@OBB@IceMaths@@QAEXABVAABB@2@ABVMatrix4x4@2@@Z 100530b0 f   IceOBB.obj
 0001:00052170       ?ComputePlanes@OBB@IceMaths@@QBE_NPAVPlane@2@@Z 10053170 f   IceOBB.obj
 0001:00052490       ?ComputePoints@OBB@IceMaths@@QBE_NPAVPoint@2@@Z 10053490 f   IceOBB.obj
 0001:00052870       ?ComputeVertexNormals@OBB@IceMaths@@QBE_NPAVPoint@2@@Z 10053870 f   IceOBB.obj
 0001:000528e0       ?GetEdges@OBB@IceMaths@@QBEPBIXZ 100538e0 f   IceOBB.obj
 0001:000528f0       ?GetLocalEdgeNormals@OBB@IceMaths@@QBEPBVPoint@2@XZ 100538f0 f   IceOBB.obj
 0001:00052900       ?ComputeWorldEdgeNormal@OBB@IceMaths@@QBEXIAAVPoint@2@@Z 10053900 f   IceOBB.obj
 0001:00052950       ?ComputeLSS@OBB@IceMaths@@QBEXAAVLSS@2@@Z 10053950 f   IceOBB.obj
 0001:00052bd0       ?IsInside@OBB@IceMaths@@QBEHABV12@@Z 10053bd0 f   IceOBB.obj
 0001:00052e60       ?GetQuads@OBB@IceMaths@@QBEPBIXZ 10053e60 f   IceOBB.obj
 0001:00052e70       ?Set@Plane@IceMaths@@QAEAAV12@ABVPoint@2@00@Z 10053e70 f   IcePlane.obj
 0001:00052f60       ?PositiveUnitRandomVector@Point@IceMaths@@QAEAAV12@XZ 10053f60 f   IcePoint.obj
 0001:00053050       ?UnitRandomVector@Point@IceMaths@@QAEAAV12@XZ 10054050 f   IcePoint.obj
 0001:00053150       ??BPoint@IceMaths@@QBE?AVHPoint@1@XZ 10054150 f   IcePoint.obj
 0001:00053180       ?Refract@Point@IceMaths@@QAEAAV12@ABV12@0MAAV12@@Z 10054180 f   IcePoint.obj
 0001:00053270       ?ProjectToPlane@Point@IceMaths@@QAEAAV12@ABVPlane@2@@Z 10054270 f   IcePoint.obj
 0001:000532e0       ?ProjectToScreen@Point@IceMaths@@QBEXMMABVMatrix4x4@2@AAVHPoint@2@@Z 100542e0 f   IcePoint.obj
 0001:00053390       ?SetNotUsed@Point@IceMaths@@QAEXXZ 10054390 f   IcePoint.obj
 0001:000533a0       ?IsNotUsed@Point@IceMaths@@QBEHXZ 100543a0 f   IcePoint.obj
 0001:000533d0       ?UpdatePtr@IceCore@@YAXAAPAXI@Z 100543d0 f i IcePolygon.obj
 0001:000533f0       ?FSinCos@IceCore@@YAXAAM0M@Z 100543f0 f i IcePolygon.obj
 0001:00053430       ??0Polygon@IceMaths@@QAE@XZ 10054430 f   IcePolygon.obj
 0001:00053450       ??0Polygon@IceMaths@@QAE@I@Z 10054450 f   IcePolygon.obj
 0001:00053490       ??1Polygon@IceMaths@@QAE@XZ 10054490 f   IcePolygon.obj
 0001:000534c0       ?SetVerts@Polygon@IceMaths@@QAE_NIPBVPoint@2@PBVMatrix4x4@2@@Z 100544c0 f   IcePolygon.obj
 0001:000535f0       ??0IndexedPolygon@IceMaths@@QAE@XZ 100545f0 f   IcePolygon.obj
 0001:00053610       ??0IndexedPolygon@IceMaths@@QAE@IPAI@Z 10054610 f   IcePolygon.obj
 0001:00053670       ??1IndexedPolygon@IceMaths@@QAE@XZ 10054670 f   IcePolygon.obj
 0001:000536a0       ?GeneratePolygon@IceMaths@@YA_NIPAXIW4Orientation@1@MM@Z 100546a0 f   IcePolygon.obj
 0001:000537b0       ?CreatePolygonPlane@IceMaths@@YA_NAAVPlane@1@IPBIPBVPoint@1@@Z 100547b0 f   IcePolygon.obj
 0001:000539f0       ?ComputeNewellPlane@IceMaths@@YA_NAAVPlane@1@IPBEPBVPoint@1@@Z 100549f0 f   IcePolygon.obj
 0001:00053e30       ??0Polygon@IceMaths@@QAE@ABV01@@Z 10054e30 f   IcePolygon.obj
 0001:00053e70       _SRand                     10054e70 f   IceRandom.obj
 0001:00053e80       _Rand                      10054e80 f   IceRandom.obj
 0001:00053e90       ?GetRandomNumber@IceCore@@YAII@Z 10054e90 f   IceRandom.obj
 0001:00053ec0       ??0RadixSort@IceCore@@QAE@XZ 10054ec0 f   IceRevisitedRadix.obj
 0001:00053ef0       ??1RadixSort@IceCore@@QAE@XZ 10054ef0 f   IceRevisitedRadix.obj
 0001:00053f50       ?Resize@RadixSort@IceCore@@AAE_NI@Z 10054f50 f   IceRevisitedRadix.obj
 0001:00054000       ?CheckResize@RadixSort@IceCore@@AAEXI@Z 10055000 f i IceRevisitedRadix.obj
 0001:00054040       ?Sort@RadixSort@IceCore@@QAEAAV12@PBIIW4RadixHint@2@@Z 10055040 f   IceRevisitedRadix.obj
 0001:00054700       ?Sort@RadixSort@IceCore@@QAEAAV12@PBMI@Z 10055700 f   IceRevisitedRadix.obj
 0001:00054de0       ?GetUsedRam@RadixSort@IceCore@@QBEIXZ 10055de0 f   IceRevisitedRadix.obj
 0001:00054e00       ?SetRankBuffers@RadixSort@IceCore@@QAE_NPAI0@Z 10055e00 f   IceRevisitedRadix.obj
 0001:00054e30       ?Store@CustomArray@IceCore@@QAEAAV12@G@Z 10055e30 f i IceSerialize.obj
 0001:00054e40       ?WriteChunk@IceCore@@YAXEEEEAAVCustomArray@1@@Z 10055e40 f   IceSerialize.obj
 0001:00054e80       ?WriteChunk@IceCore@@YAXEEEEAAVStream@1@@Z 10055e80 f   IceSerialize.obj
 0001:00054ec0       ?ReadChunk@IceCore@@YAXAAE000ABVCustomArray@1@@Z 10055ec0 f   IceSerialize.obj
 0001:00054f10       ?ReadChunk@IceCore@@YAXAAE000ABVStream@1@@Z 10055f10 f   IceSerialize.obj
 0001:00054f60       ?ReadWord@IceCore@@YAG_NABVCustomArray@1@@Z 10055f60 f   IceSerialize.obj
 0001:00054fa0       ?ReadWord@IceCore@@YAG_NABVStream@1@@Z 10055fa0 f   IceSerialize.obj
 0001:00054fe0       ?ReadDword@IceCore@@YAI_NABVCustomArray@1@@Z 10055fe0 f   IceSerialize.obj
 0001:00055030       ?ReadDword@IceCore@@YAI_NABVStream@1@@Z 10056030 f   IceSerialize.obj
 0001:00055080       ?ReadFloat@IceCore@@YAM_NABVCustomArray@1@@Z 10056080 f   IceSerialize.obj
 0001:000550d0       ?ReadFloat@IceCore@@YAM_NABVStream@1@@Z 100560d0 f   IceSerialize.obj
 0001:00055130       ?WriteWord@IceCore@@YAXG_NAAVCustomArray@1@@Z 10056130 f   IceSerialize.obj
 0001:00055170       ?WriteWord@IceCore@@YAXG_NAAVStream@1@@Z 10056170 f   IceSerialize.obj
 0001:000551b0       ?WriteDword@IceCore@@YAXI_NAAVCustomArray@1@@Z 100561b0 f   IceSerialize.obj
 0001:00055200       ?WriteDword@IceCore@@YAXI_NAAVStream@1@@Z 10056200 f   IceSerialize.obj
 0001:00055250       ?WriteFloat@IceCore@@YAXM_NAAVCustomArray@1@@Z 10056250 f   IceSerialize.obj
 0001:000552a0       ?WriteFloat@IceCore@@YAXM_NAAVStream@1@@Z 100562a0 f   IceSerialize.obj
 0001:000552f0       ?ReadWordBuffer@IceCore@@YA_NPAGI_NABVStream@1@@Z 100562f0 f   IceSerialize.obj
 0001:00055340       ?ReadFloatBuffer@IceCore@@YA_NPAMI_NABVStream@1@@Z 10056340 f   IceSerialize.obj
 0001:000553b0       ?WriteWordBuffer@IceCore@@YAXPBGI_NAAVStream@1@@Z 100563b0 f   IceSerialize.obj
 0001:00055420       ?WriteFloatBuffer@IceCore@@YAXPBMI_NAAVStream@1@@Z 10056420 f   IceSerialize.obj
 0001:000554a0       ?WriteHeader@IceCore@@YA_NEEEEI_NAAVStream@1@@Z 100564a0 f   IceSerialize.obj
 0001:00055580       ?ReadHeader@IceCore@@YA_NEEEEAAIAA_NABVStream@1@@Z 10056580 f   IceSerialize.obj
 0001:00055670       ?ComputeMaxIndex@IceCore@@YAIPBII@Z 10056670 f   IceSerialize.obj
 0001:000556a0       ?ComputeMaxIndex@IceCore@@YAGPBGI@Z 100566a0 f   IceSerialize.obj
 0001:000556d0       ?StoreIndices@IceCore@@YAXGIPBGAAVStream@1@_N@Z 100566d0 f   IceSerialize.obj
 0001:00055780       ?ReadIndices@IceCore@@YAXGIPAGABVStream@1@_N@Z 10056780 f   IceSerialize.obj
 0001:00055830       ?StoreIndices@IceCore@@YAXIIPBIAAVCustomArray@1@_N@Z 10056830 f   IceSerialize.obj
 0001:00055960       ?ReadIndices@IceCore@@YAXIIPAIABVCustomArray@1@_N@Z 10056960 f   IceSerialize.obj
 0001:00055a70       ?ReadDwordBuffer@IceCore@@YA_NPAII_NABVStream@1@@Z 10056a70 f i IceSerialize.obj
 0001:00055a80       ?WriteDwordBuffer@IceCore@@YAXPBII_NAAVStream@1@@Z 10056a80 f i IceSerialize.obj
 0001:00055a90       ?StoreIndices@IceCore@@YAXIIPBIAAVStream@1@_N@Z 10056a90 f   IceSerialize.obj
 0001:00055b80       ?ReadIndices@IceCore@@YAXIIPAIABVStream@1@_N@Z 10056b80 f   IceSerialize.obj
 0001:00055c60       ?Center@Triangle@IceMaths@@QBEXAAVPoint@2@@Z 10056c60 f i IceTriangle.obj
 0001:00055d30       ?Flip@Triangle@IceMaths@@QAEXXZ 10056d30 f   IceTriangle.obj
 0001:00055d90       ?Area@Triangle@IceMaths@@QBEMXZ 10056d90 f   IceTriangle.obj
 0001:00055e10       ?Perimeter@Triangle@IceMaths@@QBEMXZ 10056e10 f   IceTriangle.obj
 0001:00055ef0       ?Compacity@Triangle@IceMaths@@QBEMXZ 10056ef0 f   IceTriangle.obj
 0001:00055f40       ?TestAgainstPlane@Triangle@IceMaths@@QBE?AW4PartVal@2@ABVPlane@2@M@Z 10056f40 f   IceTriangle.obj
 0001:00056090       ?MinEdgeLength@Triangle@IceMaths@@QBEMXZ 10057090 f   IceTriangle.obj
 0001:00056190       ?MaxEdgeLength@Triangle@IceMaths@@QBEMXZ 10057190 f   IceTriangle.obj
 0001:00056290       ?ComputePoint@Triangle@IceMaths@@QBEXMMAAVPoint@2@PAI@Z 10057290 f   IceTriangle.obj
 0001:00056430       ?Inflate@Triangle@IceMaths@@QAEXM_N@Z 10057430 f   IceTriangle.obj
 0001:00056530       ?GetCol@Matrix4x4@IceMaths@@QBEXIAAVPoint@2@@Z 10057530 f i CollisionHull.obj
 0001:00056560       ?TransformPoint@@YAMIABVPoint@IceMaths@@ABVMatrix4x4@2@@Z 10057560 f i CollisionHull.obj
 0001:000565a0       ?ComputeSupportingVertex@CollisionHull@@QBEIABVPoint@IceMaths@@I@Z 100575a0 f i CollisionHull.obj
 0001:000565e0       ??0CollisionHull@@QAE@XZ   100575e0 f   CollisionHull.obj
 0001:00056630       ??_GValencies@@QAEPAXI@Z   10057630 f i CollisionHull.obj
 0001:00056660       ?Load@CollisionHull@@UAE_NABVStream@IceCore@@@Z 10057660 f   CollisionHull.obj
 0001:000567b0       ?ComputeAABB@CollisionHull@@QBEXAAVAABB@IceMaths@@PBVMatrix4x4@3@@Z 100577b0 f   CollisionHull.obj
 0001:000568e0       ?GetUsedRam@CollisionHull@@UBEIXZ 100578e0 f   CollisionHull.obj
 0001:00056910       ??1CollisionHull@@UAE@XZ   10057910 f   CollisionHull.obj
 0001:000569a0       ??_GCollisionHull@@UAEPAXI@Z 100579a0 f i CollisionHull.obj
 0001:000569a0       ??_ECollisionHull@@UAEPAXI@Z 100579a0 f i CollisionHull.obj
 0001:000569d0       ?Add@Container@IceCore@@QAEAAV12@PBMI@Z 100579d0 f i ConvexHull.obj
 0001:00056a20       ??$FlipBytes@$03@IceCore@@YAXPAE@Z 10057a20 f i ConvexHull.obj
 0001:00056a50       ?Zero@Point@IceMaths@@QAEAAV12@XZ 10057a50 f i ConvexHull.obj
 0001:00056a60       ??0Vertices@@QAE@IPBVPoint@IceMaths@@@Z 10057a60 f i ConvexHull.obj
 0001:00056b00       ?GetNbEdges@ConvexHull@@QBEIXZ 10057b00 f i ConvexHull.obj
 0001:00056b10       ?GetEdges8@ConvexHull@@QBEPBUPxEdge8Data@@XZ 10057b10 f i ConvexHull.obj
 0001:00056b20       ?GetEdgeToTriangles@ConvexHull@@QBEPBUPxEdgeDescData@@XZ 10057b20 f i ConvexHull.obj
 0001:00056b30       ?GetFacesByEdges8@ConvexHull@@QBEPBEXZ 10057b30 f i ConvexHull.obj
 0001:00056b40       ?GetEdgeNormals@ConvexHull@@QBEPBVPoint@IceMaths@@XZ 10057b40 f i ConvexHull.obj
 0001:00056b50       ??0SeparatingAxes@@QAE@XZ  10057b50 f i ConvexHull.obj
 0001:00056bb0       ??1SeparatingAxes@@QAE@XZ  10057bb0 f i ConvexHull.obj
 0001:00056c10       ?GetAxes@SeparatingAxes@@QBEABVVertices@@XZ 10057c10 f i ConvexHull.obj
 0001:00056c20       ??0ConvexHull@@QAE@XZ      10057c20 f   ConvexHull.obj
 0001:00056c80       ??_GVertices@@QAEPAXI@Z    10057c80 f i ConvexHull.obj
 0001:00056e90       ?DecodeNormal@@YAXAAUPxdVector_@@G@Z 10057e90 f i ConvexHull.obj
 0001:00056ee0       ?GetUsedRam@ConvexHull@@UBEIXZ 10057ee0 f   ConvexHull.obj
 0001:00056f10       ?Contains@ConvexHull@@QBE_NABVPoint@IceMaths@@@Z 10057f10 f   ConvexHull.obj
 0001:00057040       ?Contains@ConvexHull@@QBE_NABVSphere@IceMaths@@@Z 10058040 f   ConvexHull.obj
 0001:00057110       ?ComputeGeomCenter@ConvexHull@@QBE_NAAVPoint@IceMaths@@@Z 10058110 f   ConvexHull.obj
 0001:00057250       ?SelectClosestPolygon@ConvexHull@@QBEIABVPoint@IceMaths@@PBVMatrix4x4@3@@Z 10058250 f   ConvexHull.obj
 0001:00057490       ?SelectClosestEdge@ConvexHull@@QBEIABVPoint@IceMaths@@PBVMatrix4x4@3@PAI@Z 10058490 f   ConvexHull.obj
 0001:000578b0       ?DumpPolyNeighbors@ConvexHull@@QBEIIPAI@Z 100588b0 f   ConvexHull.obj
 0001:00057940       ?CreateEdgeDirections@ConvexHull@@QAE_NXZ 10058940 f   ConvexHull.obj
 0001:00057bb0       ??$Flip@X@IceCore@@YAXAAPAX@Z 10058bb0 f i ConvexHull.obj
 0001:00057be0       ??1ConvexHull@@UAE@XZ      10058be0 f   ConvexHull.obj
 0001:00057d50       ?Load@ConvexHull@@UAE_NABVStream@IceCore@@@Z 10058d50 f   ConvexHull.obj
 0001:00058640       ??_EConvexHull@@UAEPAXI@Z  10059640 f i ConvexHull.obj
 0001:00058640       ??_GConvexHull@@UAEPAXI@Z  10059640 f i ConvexHull.obj
 0001:00058670       ?GetEdgeListData@EdgeList@NxPhysics@@QAEPAUPxEdgeListData@@XZ 10059670 f i ConvexMesh.obj
 0001:00058680       ??1NvConvexMesh@@IAE@XZ    10059680 f i ConvexMesh.obj
 0001:00058690       ??0MeshMassInfo@@QAE@XZ    10059690 f i ConvexMesh.obj
 0001:000586a0       ?getLocalVertexNormals@ConvexMesh@@QBEPBVNxVec3@@XZ 100596a0 f i ConvexMesh.obj
 0001:000586b0       ?getNumVerticesFast@ConvexMesh@@QBEIXZ 100596b0 f i ConvexMesh.obj
 0001:000586c0       ?getNumTrianglesFast@ConvexMesh@@QBEIXZ 100596c0 f i ConvexMesh.obj
 0001:000586d0       ??0NvConvexMesh@@QAE@XZ    100596d0 f i ConvexMesh.obj
 0001:000586e0       ??1MeshMassInfo@@QAE@XZ    100596e0 f i ConvexMesh.obj
 0001:000586f0       ??0StreamLoad@@QAE@ABVNxStream@@@Z 100596f0 f i ConvexMesh.obj
 0001:00058710       ?ReadByte@StreamLoad@@UBEEXZ 10059710 f i ConvexMesh.obj
 0001:00058720       ?ReadWord@StreamLoad@@UBEGXZ 10059720 f i ConvexMesh.obj
 0001:00058730       ?ReadDword@StreamLoad@@UBEIXZ 10059730 f i ConvexMesh.obj
 0001:00058740       ?ReadFloat@StreamLoad@@UBEMXZ 10059740 f i ConvexMesh.obj
 0001:00058750       ?ReadDouble@StreamLoad@@UBENXZ 10059750 f i ConvexMesh.obj
 0001:00058760       ?ReadBuffer@StreamLoad@@UBEXPAXI@Z 10059760 f i ConvexMesh.obj
 0001:00058770       ?StoreByte@StreamLoad@@UAEAAVStream@IceCore@@E@Z 10059770 f i ConvexMesh.obj
 0001:00058780       ?StoreWord@StreamLoad@@UAEAAVStream@IceCore@@G@Z 10059780 f i ConvexMesh.obj
 0001:00058790       ?StoreDword@StreamLoad@@UAEAAVStream@IceCore@@I@Z 10059790 f i ConvexMesh.obj
 0001:000587a0       ?StoreFloat@StreamLoad@@UAEAAVStream@IceCore@@M@Z 100597a0 f i ConvexMesh.obj
 0001:000587b0       ?StoreDouble@StreamLoad@@UAEAAVStream@IceCore@@N@Z 100597b0 f i ConvexMesh.obj
 0001:000587c0       ?StoreBuffer@StreamLoad@@UAEAAVStream@IceCore@@PBXI@Z 100597c0 f i ConvexMesh.obj
 0001:000587d0       ??1StreamLoad@@UAE@XZ      100597d0 f i ConvexMesh.obj
 0001:000587e0       ?loadOpcodeModel@ConvexMesh@@IAE_NABVCustomArray@IceCore@@@Z 100597e0 f   ConvexMesh.obj
 0001:00058900       ?computeNonPersistentData@ConvexMesh@@IAE_NXZ 10059900 f   ConvexMesh.obj
 0001:00058910       ?saveToDesc@ConvexMesh@@UBE_NAAVNxConvexMeshDesc@@@Z 10059910 f   ConvexMesh.obj
 0001:00058970       ??0MeshMassInfo@@QAE@ABV0@@Z 10059970 f i ConvexMesh.obj
 0001:000589b0       ?getMassInfo@ConvexMesh@@QBEPBVMeshMassInfo@@XZ 100599b0 f   ConvexMesh.obj
 0001:000589e0       ?getSubmeshCount@ConvexMesh@@UBEIXZ 100599e0 f   ConvexMesh.obj
 0001:000589f0       ?getCount@ConvexMesh@@UBEIIW4NxInternalArray@@@Z 100599f0 f   ConvexMesh.obj
 0001:00058a80       ?getFormat@ConvexMesh@@UBE?AW4NxInternalFormat@@IW4NxInternalArray@@@Z 10059a80 f   ConvexMesh.obj
 0001:00058b00       ?getBase@ConvexMesh@@UBEPBXIW4NxInternalArray@@@Z 10059b00 f   ConvexMesh.obj
 0001:00058b90       ?getStride@ConvexMesh@@UBEIIW4NxInternalArray@@@Z 10059b90 f   ConvexMesh.obj
 0001:00058bf0       ?createEdgeList@ConvexMesh@@IAEXXZ 10059bf0 f   ConvexMesh.obj
 0001:00058d30       ?releaseEdgeList@ConvexMesh@@QAEXXZ 10059d30 f   ConvexMesh.obj
 0001:00058d70       ?releaseMemory@ConvexMesh@@IAEXXZ 10059d70 f   ConvexMesh.obj
 0001:00058df0       ??_GStreamLoad@@UAEPAXI@Z  10059df0 f i ConvexMesh.obj
 0001:00058df0       ??_EStreamLoad@@UAEPAXI@Z  10059df0 f i ConvexMesh.obj
 0001:00058e20       ?load@ConvexMesh@@UAE_NABVNxStream@@@Z 10059e20 f   ConvexMesh.obj
 0001:000591e0       ?getMassInformation@ConvexMesh@@UBE?AVMeshMassInfo@@XZ 1005a1e0 f   ConvexMesh.obj
 0001:00059220       ??0ConvexMesh@@QAE@XZ      1005a220 f   ConvexMesh.obj
 0001:000592d0       ??1ConvexMesh@@QAE@XZ      1005a2d0 f   ConvexMesh.obj
 0001:00059340       ??_GConvexMesh@@QAEPAXI@Z  1005a340 f i ConvexMesh.obj
 0001:00059370       ?release@ConvexMesh@@UAEXXZ 1005a370 f   ConvexMesh.obj
 0001:00059390       ?pointTriangleSqrDist@@YAMABVNxVec3@@000PAM1@Z 1005a390 f   DistancePointTriangle.obj
 0001:00059a10       ??0EdgeList@NxPhysics@@QAE@XZ 1005aa10 f   EdgeList.obj
 0001:00059a30       ??1EdgeList@NxPhysics@@QAE@XZ 1005aa30 f   EdgeList.obj
 0001:00059ac0       ?Load@EdgeList@NxPhysics@@QAE_NABVStream@IceCore@@@Z 1005aac0 f   EdgeList.obj
 0001:00059c20       ?CreateFacesToEdges@EdgeListBuilder@NxPhysics@@AAE_NIPBIPBG@Z 1005ac20 f   EdgeList.obj
 0001:0005a080       ?CreateEdgesToFaces@EdgeListBuilder@NxPhysics@@AAE_NIPBIPBG@Z 1005b080 f   EdgeList.obj
 0001:0005a320       ?ComputeActiveEdges@EdgeListBuilder@NxPhysics@@AAE_NIPBIPBGPBVPoint@IceMaths@@M@Z 1005b320 f   EdgeList.obj
 0001:0005aef0       ??0EdgeListBuilder@NxPhysics@@QAE@XZ 1005bef0 f   EdgeList.obj
 0001:0005af10       ??1EdgeListBuilder@NxPhysics@@QAE@XZ 1005bf10 f   EdgeList.obj
 0001:0005af20       ?Init@EdgeListBuilder@NxPhysics@@QAE_NABUEDGELISTCREATE@2@@Z 1005bf20 f   EdgeList.obj
 0001:0005b050       ?GetValencies@Valencies@@QBEPBUPxValency@@XZ 1005c050 f i HillClimbing.obj
 0001:0005b060       ?GetAdjacentVerts@Valencies@@QBEPBEXZ 1005c060 f i HillClimbing.obj
 0001:0005b070       _ComputeSupportingVertex   1005c070 f   HillClimbing.obj
 0001:0005b2c0       _LocalSearch               1005c2c0 f   HillClimbing.obj
 0001:0005b3e0       _LocalSearchTimestamps     1005c3e0 f   HillClimbing.obj
 0001:0005b540       ??0AdjTriangle@@QAE@XZ     1005c540 f i IceAdjacencies.obj
 0001:0005b550       ??1AdjTriangle@@QAE@XZ     1005c550 f i IceAdjacencies.obj
 0001:0005b560       ?Flip@AdjTriangle@@QAEXXZ  1005c560 f   IceAdjacencies.obj
 0001:0005b580       ?ComputeNbBoundaryEdges@AdjTriangle@@QBEIXZ 1005c580 f   IceAdjacencies.obj
 0001:0005b5d0       ?ComputeNbNeighbors@AdjTriangle@@QBEIXZ 1005c5d0 f   IceAdjacencies.obj
 0001:0005b620       ?HasNeighbor@AdjTriangle@@QBE_NIPAI@Z 1005c620 f   IceAdjacencies.obj
 0001:0005b6c0       ??0Adjacencies@@QAE@XZ     1005c6c0 f   IceAdjacencies.obj
 0001:0005b6e0       ??_EAdjTriangle@@QAEPAXI@Z 1005c6e0 f i IceAdjacencies.obj
 0001:0005b750       ?ComputeNbBoundaryEdges@Adjacencies@@QBEIXZ 1005c750 f   IceAdjacencies.obj
 0001:0005b7d0       ?GetBoundaryVertices@Adjacencies@@QBE_NIPA_NPBVIndexedTriangle@IceMaths@@@Z 1005c7d0 f   IceAdjacencies.obj
 0001:0005b980       ?AssignNewEdgeCode@Adjacencies@@AAEXIE@Z 1005c980 f   IceAdjacencies.obj
 0001:0005b9d0       ?MakeLastRef@Adjacencies@@QAE_NAAVAdjTriangle@@IPAVIndexedTriangle@IceMaths@@@Z 1005c9d0 f   IceAdjacencies.obj
 0001:0005bb70       ?_WalkFace@Local@?2??Walk@Adjacencies@@QAE_NP6AXABUCommonWalkParams@@IIII@ZPAX@Z@SAXAAUPrivateWalkParams@3@IIII@Z 1005cb70 f   IceAdjacencies.obj
 0001:0005bc70       ??0PrivateWalkParams@?1??Walk2@Adjacencies@@QAE_NP6AXABUCommonWalkParams@@IIII@ZPAXPBVPoint@IceMaths@@PBVIndexedTriangle@5@@Z@QAE@XZ 1005cc70 f i IceAdjacencies.obj
 0001:0005bc80       ??1PrivateWalkParams@?1??Walk2@Adjacencies@@QAE_NP6AXABUCommonWalkParams@@IIII@ZPAXPBVPoint@IceMaths@@PBVIndexedTriangle@5@@Z@QAE@XZ 1005cc80 f i IceAdjacencies.obj
 0001:0005bc90       ?GetUsedRam@Adjacencies@@QBEIXZ 1005cc90 f   IceAdjacencies.obj
 0001:0005bcb0       ?Load@Adjacencies@@QAE_NABVStream@IceCore@@@Z 1005ccb0 f   IceAdjacencies.obj
 0001:0005bdd0       ??0AdjEdge@@QAE@XZ         1005cdd0 f i IceAdjacencies.obj
 0001:0005bde0       ??1AdjEdge@@QAE@XZ         1005cde0 f i IceAdjacencies.obj
 0001:0005c330       ??_EAdjEdge@@QAEPAXI@Z     1005d330 f i IceAdjacencies.obj
 0001:0005c3a0       ??$TSwap@M@IceCore@@YAXAAM0@Z 1005d3a0 f i IceAdjacencies.obj
 0001:0005c3c0       ??$TSwap@I@IceCore@@YAXAAI0@Z 1005d3c0 f i IceAdjacencies.obj
 0001:0005c3e0       ??1Adjacencies@@QAE@XZ     1005d3e0 f   IceAdjacencies.obj
 0001:0005c430       ?Walk@Adjacencies@@QAE_NP6AXABUCommonWalkParams@@IIII@ZPAX@Z 1005d430 f   IceAdjacencies.obj
 0001:0005c530       ?_WalkFace@Local@?2??Walk2@Adjacencies@@QAE_NP6AXABUCommonWalkParams@@IIII@ZPAXPBVPoint@IceMaths@@PBVIndexedTriangle@6@@Z@SAXAAUPrivateWalkParams@3@IIII@Z 1005d530 f   IceAdjacencies.obj
 0001:0005c8c0       ??0AdjacenciesBuilder@@QAE@XZ 1005d8c0 f   IceAdjacencies.obj
 0001:0005c8e0       ??1AdjacenciesBuilder@@QAE@XZ 1005d8e0 f   IceAdjacencies.obj
 0001:0005c930       ?Init@AdjacenciesBuilder@@QAE_NABUADJACENCIESCREATE@@@Z 1005d930 f   IceAdjacencies.obj
 0001:0005cd30       ?Walk2@Adjacencies@@QAE_NP6AXABUCommonWalkParams@@IIII@ZPAXPBVPoint@IceMaths@@PBVIndexedTriangle@4@@Z 1005dd30 f   IceAdjacencies.obj
 0001:0005ce90       ?ClosestAxis@Point@IceMaths@@QBE?AW4PointComponent@2@XZ 1005de90 f i IceCubeIndex.obj
 0001:0005cee0       _GetCubeColor              1005dee0 f   IceCubeIndex.obj
 0001:0005cef0       _CubemapLookup             1005def0 f   IceCubeIndex.obj
 0001:0005cfa0       _ComputeUnitCubeImpact     1005dfa0 f   IceCubeIndex.obj
 0001:0005d0c0       _GetCubeNormal             1005e0c0 f   IceCubeIndex.obj
 0001:0005d2d0       _GetCubeExtent0            1005e2d0 f   IceCubeIndex.obj
 0001:0005d4e0       _GetCubeExtent1            1005e4e0 f   IceCubeIndex.obj
 0001:0005d6f0       ?ComputeCubemapOffset@@YAIABVPoint@IceMaths@@I@Z 1005e6f0 f i IceGaussMap.obj
 0001:0005d790       ?ComputeCubemapNearestOffset@@YAIABVPoint@IceMaths@@I@Z 1005e790 f i IceGaussMap.obj
 0001:0005d890       ??0GaussMap@@QAE@XZ        1005e890 f   IceGaussMap.obj
 0001:0005d8b0       ??1GaussMap@@UAE@XZ        1005e8b0 f   IceGaussMap.obj
 0001:0005d8c0       ?ComputeOffset@GaussMap@@QBEIABVPoint@IceMaths@@@Z 1005e8c0 f   IceGaussMap.obj
 0001:0005d960       ?ComputeNearestOffset@GaussMap@@QBEIABVPoint@IceMaths@@@Z 1005e960 f   IceGaussMap.obj
 0001:0005da60       ?Load@GaussMap@@UAE_NABVStream@IceCore@@@Z 1005ea60 f   IceGaussMap.obj
 0001:0005dad0       ??_EGaussMap@@UAEPAXI@Z    1005ead0 f i IceGaussMap.obj
 0001:0005dad0       ??_GGaussMap@@UAEPAXI@Z    1005ead0 f i IceGaussMap.obj
 0001:0005db00       ??0ClosestPolygonMap@@QAE@PBVConvexHull@@@Z 1005eb00 f   IceHullGaussMaps.obj
 0001:0005db30       ??1ClosestPolygonMap@@UAE@XZ 1005eb30 f   IceHullGaussMaps.obj
 0001:0005dbc0       ??0RaycastMap@@QAE@PBVConvexHull@@@Z 1005ebc0 f   IceHullGaussMaps.obj
 0001:0005dbf0       ??1RaycastMap@@UAE@XZ      1005ebf0 f   IceHullGaussMaps.obj
 0001:0005dc80       ?FastPointCulling@RaycastMap@@QBE_NABVPoint@IceMaths@@@Z 1005ec80 f   IceHullGaussMaps.obj
 0001:0005dd90       ?PointInHull@RaycastMap@@QBE_NABVPoint@IceMaths@@@Z 1005ed90 f   IceHullGaussMaps.obj
 0001:0005deb0       ?Load@RaycastMap@@UAE_NABVStream@IceCore@@@Z 1005eeb0 f   IceHullGaussMaps.obj
 0001:0005df40       ??0SupportVertexMap@@QAE@PBVConvexHull@@@Z 1005ef40 f   IceHullGaussMaps.obj
 0001:0005df70       ??1SupportVertexMap@@UAE@XZ 1005ef70 f   IceHullGaussMaps.obj
 0001:0005e020       ?Load@SupportVertexMap@@UAE_NABVStream@IceCore@@@Z 1005f020 f   IceHullGaussMaps.obj
 0001:0005e0f0       ??_GClosestPolygonMap@@UAEPAXI@Z 1005f0f0 f i IceHullGaussMaps.obj
 0001:0005e0f0       ??_EClosestPolygonMap@@UAEPAXI@Z 1005f0f0 f i IceHullGaussMaps.obj
 0001:0005e120       ??_ERaycastMap@@UAEPAXI@Z  1005f120 f i IceHullGaussMaps.obj
 0001:0005e120       ??_GRaycastMap@@UAEPAXI@Z  1005f120 f i IceHullGaussMaps.obj
 0001:0005e150       ??_GSupportVertexMap@@UAEPAXI@Z 1005f150 f i IceHullGaussMaps.obj
 0001:0005e150       ??_ESupportVertexMap@@UAEPAXI@Z 1005f150 f i IceHullGaussMaps.obj
 0001:0005e180       ?DeleteLastEntry@Container@IceCore@@QAEXXZ 1005f180 f i IceSupport.obj
 0001:0005e190       ?SetRow@Matrix3x3@IceMaths@@QAEXIABVPoint@2@@Z 1005f190 f i IceSupport.obj
 0001:0005e1c0       ?Zero@Matrix3x3@IceMaths@@QAEXXZ 1005f1c0 f i IceSupport.obj
 0001:0005e1f0       ?Identity@Matrix3x3@IceMaths@@QAEXXZ 1005f1f0 f i IceSupport.obj
 0001:0005e230       ??AMatrix3x3@IceMaths@@QAEAAVPoint@1@H@Z 1005f230 f i IceSupport.obj
 0001:0005e240       ?Zero@Matrix4x4@IceMaths@@QAEXXZ 1005f240 f i IceSupport.obj
 0001:0005e260       ?Identity@Matrix4x4@IceMaths@@QAEXXZ 1005f260 f i IceSupport.obj
 0001:0005e290       ?Get4x4IdentityMatrix@@YAPBVMatrix4x4@IceMaths@@XZ 1005f290 f   IceSupport.obj
 0001:0005e360       ?Get3x3IdentityMatrix@@YAPBVMatrix3x3@IceMaths@@XZ 1005f360 f   IceSupport.obj
 0001:0005e430       ?ComputePassageMatrices@@YAXPAVMatrix4x4@IceMaths@@0PBV12@1@Z 1005f430 f   IceSupport.obj
 0001:0005e730       ?Pop@FIFOStack@@QAE_NAAI@Z 1005f730 f   IceSupport.obj
 0001:0005e790       ?Pop@LIFOStack@@QAE_NAAI@Z 1005f790 f   IceSupport.obj
 0001:0005e7d0       ?ComputeBasis@@YAXABVPoint@IceMaths@@AAV12@1@Z 1005f7d0 f i IceSupport.obj
 0001:0005e910       ??$TSwap@H@IceCore@@YAXAAH0@Z 1005f910 f i IceSupport.obj
 0001:0005e930       ?CreateOBB@@YAXAAVOBB@IceMaths@@ABV12@ABVPoint@2@M@Z 1005f930 f   IceSupport.obj
 0001:0005edc0       ??0InternalTriangleMesh@@QAE@XZ 1005fdc0 f   InternalTriangleMesh.obj
 0001:0005ee10       ??_GAdjacenciesBuilder@@QAEPAXI@Z 1005fe10 f i InternalTriangleMesh.obj
 0001:0005ee40       ?createAdjacencies@InternalTriangleMesh@@IAEXXZ 1005fe40 f   InternalTriangleMesh.obj
 0001:0005ef30       ?allocateVertices@InternalTriangleMesh@@QAEPAVNxVec3@@I@Z 1005ff30 f   InternalTriangleMesh.obj
 0001:0005ef60       ?allocateTriangles@InternalTriangleMesh@@QAEPAUNxTriangle32@@I@Z 1005ff60 f   InternalTriangleMesh.obj
 0001:0005efa0       ?allocateMaterials@InternalTriangleMesh@@QAEPAGXZ 1005ffa0 f   InternalTriangleMesh.obj
 0001:0005efd0       ?allocateFaceRemap@InternalTriangleMesh@@QAEPAIXZ 1005ffd0 f   InternalTriangleMesh.obj
 0001:0005f000       ?computeNonPersistentData@InternalTriangleMesh@@QAE_N_N@Z 10060000 f   InternalTriangleMesh.obj
 0001:0005f010       ?createVertexNormals@InternalTriangleMesh@@IAEXXZ 10060010 f   InternalTriangleMesh.obj
 0001:0005f060       ?loadOpcodeModel@InternalTriangleMesh@@QAE_NABVCustomArray@IceCore@@@Z 10060060 f   InternalTriangleMesh.obj
 0001:0005f170       ?createEdgeList@InternalTriangleMesh@@IAEXXZ 10060170 f   InternalTriangleMesh.obj
 0001:0005f270       ?releaseEdgeList@InternalTriangleMesh@@QAEXXZ 10060270 f   InternalTriangleMesh.obj
 0001:0005f2b0       ?getUsedBytes@InternalTriangleMesh@@QBEIXZ 100602b0 f   InternalTriangleMesh.obj
 0001:0005f330       ?release@InternalTriangleMesh@@QAEXXZ 10060330 f   InternalTriangleMesh.obj
 0001:0005f490       ??1InternalTriangleMesh@@QAE@XZ 10060490 f   InternalTriangleMesh.obj
 0001:0005f4f0       _ceilf                     100604f0 f i PenetrationMap.obj
 0001:0005f510       ??_VNxAllocateable@NxFoundation@@SAXPAXW4NxMemoryType@@@Z 10060510 f i PenetrationMap.obj
 0001:0005f530       ?Compute2DCoords@IceCore@@YAXAAI0II@Z 10060530 f i PenetrationMap.obj
 0001:0005f560       ?Compute3DCoords@IceCore@@YAXAAI00III@Z 10060560 f i PenetrationMap.obj
 0001:0005f5b0       ?StoreBits@CustomArray@IceCore@@QAEAAV12@II@Z 100605b0 f i PenetrationMap.obj
 0001:0005f620       ?GetBit@CustomArray@IceCore@@QBE_NXZ 10060620 f i PenetrationMap.obj
 0001:0005f650       ?GetBits@CustomArray@IceCore@@QBEII@Z 10060650 f i PenetrationMap.obj
 0001:0005f6b0       ??0Ray@IceMaths@@QAE@XZ    100606b0 f i PenetrationMap.obj
 0001:0005f6c0       ?ComputeMortonIndex@IceMaths@@YAIIIII@Z 100606c0 f i PenetrationMap.obj
 0001:0005f740       ?SetFirstContact@Collider@Opcode@@QAEX_N@Z 10060740 f i PenetrationMap.obj
 0001:0005f770       ?SetTemporalCoherence@Collider@Opcode@@QAEX_N@Z 10060770 f i PenetrationMap.obj
 0001:0005f7a0       ?SetCulling@RayCollider@Opcode@@QAEX_N@Z 100607a0 f i PenetrationMap.obj
 0001:0005f7b0       ?SetMaxDist@RayCollider@Opcode@@QAEXM@Z 100607b0 f i PenetrationMap.obj
 0001:0005f7c0       ?GetNbIntersections@RayCollider@Opcode@@QBEIXZ 100607c0 f i PenetrationMap.obj
 0001:0005f7d0       ?GetDistance@PointDistanceQuery@Opcode@@QBEMXZ 100607d0 f i PenetrationMap.obj
 0001:0005f7e0       ?GetClosestTriangle@PointDistanceQuery@Opcode@@QBEIXZ 100607e0 f i PenetrationMap.obj
 0001:0005f7f0       ??0PMapSample@@QAE@XZ      100607f0 f i PenetrationMap.obj
 0001:0005f800       ?IsInside@PMapSample@@QBEHXZ 10060800 f i PenetrationMap.obj
 0001:0005f810       ?SetOutside@PMapSample@@QAEXXZ 10060810 f i PenetrationMap.obj
 0001:0005f820       ?SetClosestFace@PMapSample@@QAEXI@Z 10060820 f i PenetrationMap.obj
 0001:0005f830       ?GetClosestFace@PMapSample@@QBEIXZ 10060830 f i PenetrationMap.obj
 0001:0005f840       ?GetData@PMapSample@@QBEIXZ 10060840 f i PenetrationMap.obj
 0001:0005f850       ?SetData@PMapSample@@QAEXI@Z 10060850 f i PenetrationMap.obj
 0001:0005f860       ?IsEmptyCell@PMapSample@@QBEHXZ 10060860 f i PenetrationMap.obj
 0001:0005f870       ?GetLocalBox@PenetrationMap@@QBEABVNxBounds3@@XZ 10060870 f i PenetrationMap.obj
 0001:0005f880       ?GetDensity@PenetrationMap@@QBEIXZ 10060880 f i PenetrationMap.obj
 0001:0005f890       ?GetSamples@PenetrationMap@@QBEPBVPMapSample@@XZ 10060890 f i PenetrationMap.obj
 0001:0005f8a0       ?ComputeSamplingPoint@PenetrationMap@@QBEXAAVNxVec3@@III@Z 100608a0 f i PenetrationMap.obj
 0001:0005f920       ?getInternalTris@TriangleMesh@@QBEPBUNxTriangle32@@XZ 10060920 f i PenetrationMap.obj
 0001:0005f930       ?getInternalVerts@TriangleMesh@@QBEPBVNxVec3@@XZ 10060930 f i PenetrationMap.obj
 0001:0005f940       ?getNumVerticesFast@TriangleMesh@@QBEIXZ 10060940 f i PenetrationMap.obj
 0001:0005f950       ?getLocalBounds@TriangleMesh@@QBEABVNxBounds3@@XZ 10060950 f i PenetrationMap.obj
 0001:0005f960       ?getOpcodeModel@TriangleMesh@@QBEPBVHybridModel@Opcode@@XZ 10060960 f i PenetrationMap.obj
 0001:0005f970       ?pointTriangleDist@@YAMABVNxVec3@@000PAM1@Z 10060970 f i PenetrationMap.obj
 0001:0005f9b0       ?ComputeDepth@@YAXAAVNxVec3@@IABV1@PAVTriangleMesh@@@Z 100609b0 f i PenetrationMap.obj
 0001:0005faa0       ??1PenetrationMap@@UAE@XZ  10060aa0 f   PenetrationMap.obj
 0001:0005fad0       ??4NxBounds3@@QAEAAV0@ABV0@@Z 10060ad0 f i PenetrationMap.obj
 0001:00061a60       ??_GCustomArray@IceCore@@QAEPAXI@Z 10062a60 f i PenetrationMap.obj
 0001:00061a90       ?Save@PenetrationMap@@QAE_NPBDPAVCustomArray@IceCore@@@Z 10062a90 f   PenetrationMap.obj
 0001:000624d0       ?ComputeSurfaceCells@PenetrationMap@@AAEIPBVModel@Opcode@@@Z 100634d0 f   PenetrationMap.obj
 0001:00062fb0       ?Test@PenetrationMap@@AAEMXZ 10063fb0 f   PenetrationMap.obj
 0001:00062fc0       ?ComputeFilteredSample_@PenetrationMap@@ABEHIIIAAVNxVec3@@ABV2@PBV2@PBVNxMat33@@@Z 10063fc0 f   PenetrationMap.obj
 0001:000641c0       ??_GPenetrationMap@@UAEPAXI@Z 100651c0 f i PenetrationMap.obj
 0001:000641c0       ??_EPenetrationMap@@UAEPAXI@Z 100651c0 f i PenetrationMap.obj
 0001:000641f0       ?Init@PenetrationMap@@AAE_NIABVNxBounds3@@@Z 100651f0 f   PenetrationMap.obj
 0001:000643f0       ?Load@PenetrationMap@@AAE_NPBDPAVCustomArray@IceCore@@@Z 100653f0 f   PenetrationMap.obj
 0001:00064690       ?PrecomputeOutsideCells@PenetrationMap@@AAE_NXZ 10065690 f   PenetrationMap.obj
 0001:000648d0       ??0PenetrationMap@@QAE@XZ  100658d0 f   PenetrationMap.obj
 0001:00064920       ??0PenetrationMap@@QAE@ABV0@@Z 10065920 f   PenetrationMap.obj
 0001:000649a0       ?Create@PenetrationMap@@QAE_NPAVNvTriangleMesh@@IPBDPAVCustomArray@IceCore@@_NPAVNxUserOutputStream@@@Z 100659a0 f   PenetrationMap.obj
 0001:00065600       ?AddAxis@SeparatingAxes@@QAE_NABVPoint@IceMaths@@@Z 10066600 f   SeparatingAxes.obj
 0001:000656d0       ?flip@@YAGPBG@Z            100666d0 f i Serialize.obj
 0001:000656f0       ?flip@@YAIPBI@Z            100666f0 f i Serialize.obj
 0001:00065720       ?flip@@YAMPBM@Z            10066720 f i Serialize.obj
 0001:00065760       ?saveChunk@@YAXCCCCAAVNxStream@@@Z 10066760 f   Serialize.obj
 0001:000657a0       ?readChunk@@YAXAAC000ABVNxStream@@@Z 100667a0 f   Serialize.obj
 0001:000657f0       ?readWord@@YAG_NABVNxStream@@@Z 100667f0 f   Serialize.obj
 0001:00065820       ?readDword@@YAI_NABVNxStream@@@Z 10066820 f   Serialize.obj
 0001:00065870       ?readFloat@@YAM_NABVNxStream@@@Z 10066870 f   Serialize.obj
 0001:000658c0       ?writeWord@@YAXG_NAAVNxStream@@@Z 100668c0 f   Serialize.obj
 0001:000658f0       ?writeDword@@YAXI_NAAVNxStream@@@Z 100668f0 f   Serialize.obj
 0001:00065930       ?writeFloat@@YAXM_NAAVNxStream@@@Z 10066930 f   Serialize.obj
 0001:00065970       ?readFloatBuffer@@YA_NPAMI_NABVNxStream@@@Z 10066970 f   Serialize.obj
 0001:00065ad0       ?writeWordBuffer@@YAXPBGI_NAAVNxStream@@@Z 10066ad0 f   Serialize.obj
 0001:00065b30       ?writeFloatBuffer@@YAXPBMI_NAAVNxStream@@@Z 10066b30 f   Serialize.obj
 0001:00065bb0       ?writeHeader@@YA_NCCCCI_NAAVNxStream@@@Z 10066bb0 f   Serialize.obj
 0001:00065c80       ?readHeader@@YA_NCCCCAAIAA_NABVNxStream@@@Z 10066c80 f   Serialize.obj
 0001:00065d70       ?computeMaxIndex@@YAIPBII@Z 10066d70 f   Serialize.obj
 0001:00065da0       ?readIntBuffer@@YA_NPAII_NABVNxStream@@@Z 10066da0 f i Serialize.obj
 0001:00065db0       ?storeIndices@@YAXIIPBIAAVNxStream@@_N@Z 10066db0 f   Serialize.obj
 0001:00065e90       ?readIndices@@YAXIIPAIABVNxStream@@_N@Z 10066e90 f   Serialize.obj
 0001:00065f60       ?getLocalVertexNormals@InternalTriangleMesh@@QBEPBVNxVec3@@XZ 10066f60 f i TriangleMesh.obj
 0001:00065f80       ??1NvTriangleMesh@@IAE@XZ  10066f80 f i TriangleMesh.obj
 0001:00065f90       ??0NxBounds3@@QAE@ABV0@@Z  10066f90 f i TriangleMesh.obj
 0001:00065fd0       ?NxOpcodeError@@YA_NPBD0I@Z 10066fd0 f   TriangleMesh.obj
 0001:00066000       ??0NvTriangleMesh@@QAE@XZ  10067000 f i TriangleMesh.obj
 0001:00066010       ?releaseMemory@TriangleMesh@@IAEXXZ 10067010 f   TriangleMesh.obj
 0001:000660b0       ?updateHeightfieldData@TriangleMesh@@IAEXXZ 100670b0 f   TriangleMesh.obj
 0001:00066150       ?load@TriangleMesh@@UAE_NABVNxStream@@@Z 10067150 f   TriangleMesh.obj
 0001:00066980       ?saveToDesc@TriangleMesh@@UBE_NAAVNxTriangleMeshDesc@@@Z 10067980 f   TriangleMesh.obj
 0001:000669f0       ?getMassInfo@TriangleMesh@@QBEPBVMeshMassInfo@@XZ 100679f0 f   TriangleMesh.obj
 0001:00066a20       ?loadPMap@TriangleMesh@@UAE_NABVNxPMap@@@Z 10067a20 f   TriangleMesh.obj
 0001:00066c00       ?hasPMap@TriangleMesh@@UBE_NXZ 10067c00 f   TriangleMesh.obj
 0001:00066c20       ?getPMapSize@TriangleMesh@@UBEIXZ 10067c20 f   TriangleMesh.obj
 0001:00066ce0       ?getPMapData@TriangleMesh@@UBE_NAAVNxPMap@@@Z 10067ce0 f   TriangleMesh.obj
 0001:00066e00       ?getPMapDensity@TriangleMesh@@UBEIXZ 10067e00 f   TriangleMesh.obj
 0001:00066e20       ?getSubmeshCount@TriangleMesh@@UBEIXZ 10067e20 f   TriangleMesh.obj
 0001:00066e30       ?getCount@TriangleMesh@@UBEIIW4NxInternalArray@@@Z 10067e30 f   TriangleMesh.obj
 0001:00066e70       ?getFormat@TriangleMesh@@UBE?AW4NxInternalFormat@@IW4NxInternalArray@@@Z 10067e70 f   TriangleMesh.obj
 0001:00066eb0       ?getBase@TriangleMesh@@UBEPBXIW4NxInternalArray@@@Z 10067eb0 f   TriangleMesh.obj
 0001:00066f10       ?getStride@TriangleMesh@@UBEIIW4NxInternalArray@@@Z 10067f10 f   TriangleMesh.obj
 0001:00066f40       ?getPageCount@TriangleMesh@@UBEIXZ 10067f40 f   TriangleMesh.obj
 0001:00066f50       ?getPageBBox@TriangleMesh@@UBE?AVNxBounds3@@I@Z 10067f50 f   TriangleMesh.obj
 0001:00066fa0       ?getPage@TriangleMesh@@UBEPAXIAAI@Z 10067fa0 f   TriangleMesh.obj
 0001:00066fe0       ??1TriangleMesh@@QAE@XZ    10067fe0 f   TriangleMesh.obj
 0001:00067050       ?getMassInformation@TriangleMesh@@UBE?AVMeshMassInfo@@XZ 10068050 f   TriangleMesh.obj
 0001:00067090       ??_GTriangleMesh@@QAEPAXI@Z 10068090 f i TriangleMesh.obj
 0001:000670c0       ??0TriangleMesh@@QAE@XZ    100680c0 f   TriangleMesh.obj
 0001:000671b0       ?release@TriangleMesh@@UAEXXZ 100681b0 f   TriangleMesh.obj
 0001:000671d0       ??0Valencies@@QAE@XZ       100681d0 f   Valency.obj
 0001:000671f0       ??1Valencies@@QAE@XZ       100681f0 f   Valency.obj
 0001:00067250       ?CreateOffsets@Valencies@@IAEXXZ 10068250 f   Valency.obj
 0001:000672a0       ?GetUsedRam@Valencies@@QBEIXZ 100682a0 f   Valency.obj
 0001:000672c0       ?Load@Valencies@@QAE_NABVStream@IceCore@@@Z 100682c0 f   Valency.obj
 0001:00067460       ?copyTo@ClothGlobalInternalConstraint@@QBEXAAUClothInternalConstraint@@@Z 10068460 f i ClothCooker.obj
 0001:000674a0       ??0PermutationEntry@@QAE@XZ 100684a0 f i ClothCooker.obj
 0001:000674c0       ??0PermutationEntry@@QAE@HHH@Z 100684c0 f i ClothCooker.obj
 0001:000674e0       ??MPermutationEntry@@QAE_NABU0@@Z 100684e0 f i ClothCooker.obj
 0001:00067520       ??0?$NxArray@UClothInternalConstraint@@VUserAllocatorAccess@NxFoundation@@@@QAE@XZ 10068520 f i ClothCooker.obj
 0001:00067530       ?size@?$NxArray@UClothInternalConstraint@@VUserAllocatorAccess@NxFoundation@@@@QBEIXZ 10068530 f i ClothCooker.obj
 0001:00067540       ?size@?$NxArray@VNxVec3@@VUserAllocatorAccess@NxFoundation@@@@QBEIXZ 10068540 f i ClothCooker.obj
 0001:00067560       ??A?$NxArray@VNxVec3@@VUserAllocatorAccess@NxFoundation@@@@QBEABVNxVec3@@I@Z 10068560 f i ClothCooker.obj
 0001:00067580       ?size@?$NxArray@UClothGlobalInternalConstraint@@VUserAllocatorAccess@NxFoundation@@@@QBEIXZ 10068580 f i ClothCooker.obj
 0001:000675a0       ??A?$NxArray@UClothGlobalInternalConstraint@@VUserAllocatorAccess@NxFoundation@@@@QBEABUClothGlobalInternalConstraint@@I@Z 100685a0 f i ClothCooker.obj
 0001:000675c0       ?size@?$NxArray@PAVClothSolverPacket@@VUserAllocatorAccess@NxFoundation@@@@QBEIXZ 100685c0 f i ClothCooker.obj
 0001:000675d0       ??A?$NxArray@PAVClothSolverPacket@@VUserAllocatorAccess@NxFoundation@@@@QAEAAPAVClothSolverPacket@@I@Z 100685d0 f i ClothCooker.obj
 0001:000675e0       ??0?$NxArray@HVUserAllocatorAccess@NxFoundation@@@@QAE@XZ 100685e0 f i ClothCooker.obj
 0001:000675f0       ??A?$NxArray@HVUserAllocatorAccess@NxFoundation@@@@QAEAAHI@Z 100685f0 f i ClothCooker.obj
 0001:00067600       ??0?$NxArray@UPermutationEntry@@VUserAllocatorAccess@NxFoundation@@@@QAE@XZ 10068600 f i ClothCooker.obj
 0001:00067610       ?size@?$NxArray@UPermutationEntry@@VUserAllocatorAccess@NxFoundation@@@@QBEIXZ 10068610 f i ClothCooker.obj
 0001:00067630       ??A?$NxArray@UPermutationEntry@@VUserAllocatorAccess@NxFoundation@@@@QAEAAUPermutationEntry@@I@Z 10068630 f i ClothCooker.obj
 0001:00067650       ?deallocate@?$NxArray@UClothInternalConstraint@@VUserAllocatorAccess@NxFoundation@@@@AAEXPAUClothInternalConstraint@@@Z 10068650 f i ClothCooker.obj
 0001:00067670       ?destroy@?$NxArray@UClothInternalConstraint@@VUserAllocatorAccess@NxFoundation@@@@AAEXPAUClothInternalConstraint@@0@Z 10068670 f i ClothCooker.obj
 0001:00067680       ?size@?$NxArray@HVUserAllocatorAccess@NxFoundation@@@@QBEIXZ 10068680 f i ClothCooker.obj
 0001:00067690       ?begin@?$NxArray@HVUserAllocatorAccess@NxFoundation@@@@QAEPAHXZ 10068690 f i ClothCooker.obj
 0001:000676a0       ?end@?$NxArray@HVUserAllocatorAccess@NxFoundation@@@@QAEPAHXZ 100686a0 f i ClothCooker.obj
 0001:000676b0       ?reallocate@?$NxArray@HVUserAllocatorAccess@NxFoundation@@@@AAEPAHIPAH@Z 100686b0 f i ClothCooker.obj
 0001:000676e0       ?deallocate@?$NxArray@HVUserAllocatorAccess@NxFoundation@@@@AAEXPAH@Z 100686e0 f i ClothCooker.obj
 0001:00067700       ?destroy@?$NxArray@HVUserAllocatorAccess@NxFoundation@@@@AAEXPAH0@Z 10068700 f i ClothCooker.obj
 0001:00067710       ?deallocate@?$NxArray@UPermutationEntry@@VUserAllocatorAccess@NxFoundation@@@@AAEXPAUPermutationEntry@@@Z 10068710 f i ClothCooker.obj
 0001:00067730       ?destroy@?$NxArray@UPermutationEntry@@VUserAllocatorAccess@NxFoundation@@@@AAEXPAUPermutationEntry@@0@Z 10068730 f i ClothCooker.obj
 0001:00067740       ?capacity@?$NxArray@HVUserAllocatorAccess@NxFoundation@@@@QBEIXZ 10068740 f i ClothCooker.obj
 0001:00067760       ?fill@?$NxArray@HVUserAllocatorAccess@NxFoundation@@@@AAEXPAHIABH@Z 10068760 f i ClothCooker.obj
 0001:00067790       ?copy@?$NxArray@HVUserAllocatorAccess@NxFoundation@@@@AAEPAHPBH0PAH@Z 10068790 f i ClothCooker.obj
 0001:000677c0       ?capacity@?$NxArray@UClothInternalConstraint@@VUserAllocatorAccess@NxFoundation@@@@QBEIXZ 100687c0 f i ClothCooker.obj
 0001:000677e0       ?copy@?$NxArray@UClothInternalConstraint@@VUserAllocatorAccess@NxFoundation@@@@AAEPAUClothInternalConstraint@@PBU2@0PAU2@@Z 100687e0 f i ClothCooker.obj
 0001:00067820       ?allocate@?$NxArray@UClothInternalConstraint@@VUserAllocatorAccess@NxFoundation@@@@AAEPAUClothInternalConstraint@@I@Z 10068820 f i ClothCooker.obj
 0001:00067850       ?capacity@?$NxArray@PAVClothSolverPacket@@VUserAllocatorAccess@NxFoundation@@@@QBEIXZ 10068850 f i ClothCooker.obj
 0001:00067870       ?copy@?$NxArray@PAVClothSolverPacket@@VUserAllocatorAccess@NxFoundation@@@@AAEPAPAVClothSolverPacket@@PBQAV2@0PAPAV2@@Z 10068870 f i ClothCooker.obj
 0001:000678a0       ?allocate@?$NxArray@PAVClothSolverPacket@@VUserAllocatorAccess@NxFoundation@@@@AAEPAPAVClothSolverPacket@@I@Z 100688a0 f i ClothCooker.obj
 0001:000678d0       ?allocate@?$NxArray@HVUserAllocatorAccess@NxFoundation@@@@AAEPAHI@Z 100688d0 f i ClothCooker.obj
 0001:00067900       ?capacity@?$NxArray@UPermutationEntry@@VUserAllocatorAccess@NxFoundation@@@@QBEIXZ 10068900 f i ClothCooker.obj
 0001:00067930       ?copy@?$NxArray@UPermutationEntry@@VUserAllocatorAccess@NxFoundation@@@@AAEPAUPermutationEntry@@PBU2@0PAU2@@Z 10068930 f i ClothCooker.obj
 0001:00067980       ?allocate@?$NxArray@UPermutationEntry@@VUserAllocatorAccess@NxFoundation@@@@AAEPAUPermutationEntry@@I@Z 10068980 f i ClothCooker.obj
 0001:00067b20       ?clear@?$NxArray@IVUserAllocatorAccess@NxFoundation@@@@QAEXXZ 10068b20 f i ClothCooker.obj
 0001:00067b30       ??1?$NxArray@UClothInternalConstraint@@VUserAllocatorAccess@NxFoundation@@@@QAE@XZ 10068b30 f i ClothCooker.obj
 0001:00067b70       ??1?$NxArray@HVUserAllocatorAccess@NxFoundation@@@@QAE@XZ 10068b70 f i ClothCooker.obj
 0001:00067bb0       ??1?$NxArray@UPermutationEntry@@VUserAllocatorAccess@NxFoundation@@@@QAE@XZ 10068bb0 f i ClothCooker.obj
 0001:00067bf0       ?erase@?$NxArray@HVUserAllocatorAccess@NxFoundation@@@@QAEXPAH0@Z 10068bf0 f i ClothCooker.obj
 0001:00067c50       ?reserve@?$NxArray@UClothInternalConstraint@@VUserAllocatorAccess@NxFoundation@@@@QAEXI@Z 10068c50 f i ClothCooker.obj
 0001:00067d20       ?reserve@?$NxArray@PAVClothSolverPacket@@VUserAllocatorAccess@NxFoundation@@@@QAEXI@Z 10068d20 f i ClothCooker.obj
 0001:00067dd0       ?reserve@?$NxArray@HVUserAllocatorAccess@NxFoundation@@@@QAEXI@Z 10068dd0 f i ClothCooker.obj
 0001:00067e80       ?reserve@?$NxArray@UPermutationEntry@@VUserAllocatorAccess@NxFoundation@@@@QAEXI@Z 10068e80 f i ClothCooker.obj
 0001:00067f80       ??0?$NxArraySDK@UClothInternalConstraint@@@NxFoundation@@QAE@XZ 10068f80 f i ClothCooker.obj
 0001:00067f90       ??1?$NxArraySDK@UClothInternalConstraint@@@NxFoundation@@QAE@XZ 10068f90 f i ClothCooker.obj
 0001:00067fd0       ??0?$NxArraySDK@H@NxFoundation@@QAE@XZ 10068fd0 f i ClothCooker.obj
 0001:00067fe0       ??1?$NxArraySDK@H@NxFoundation@@QAE@XZ 10068fe0 f i ClothCooker.obj
 0001:00068020       ?checkConstraint@ClothCooker@@AAEXHHPAV?$NxArraySDK@H@NxFoundation@@ABVNxBounds3@@AAHAAM2@Z 10069020 f   ClothCooker.obj
 0001:00068510       ??1ClothSolverPacket@@QAE@XZ 10069510 f i ClothCooker.obj
 0001:000685b0       ??0?$NxArraySDK@UPermutationEntry@@@NxFoundation@@QAE@XZ 100695b0 f i ClothCooker.obj
 0001:000685c0       ??1?$NxArraySDK@UPermutationEntry@@@NxFoundation@@QAE@XZ 100695c0 f i ClothCooker.obj
 0001:00068600       ?pushBack@?$NxArray@IVUserAllocatorAccess@NxFoundation@@@@QAEXABI@Z 10069600 f i ClothCooker.obj
 0001:000686d0       ?pushBack@?$NxArray@UClothInternalConstraint@@VUserAllocatorAccess@NxFoundation@@@@QAEXABUClothInternalConstraint@@@Z 100696d0 f i ClothCooker.obj
 0001:000687d0       ?pushBack@?$NxArray@PAVClothSolverPacket@@VUserAllocatorAccess@NxFoundation@@@@QAEXABQAVClothSolverPacket@@@Z 100697d0 f i ClothCooker.obj
 0001:000688a0       ?insert@?$NxArray@HVUserAllocatorAccess@NxFoundation@@@@QAEXPAHIABH@Z 100698a0 f i ClothCooker.obj
 0001:00068a00       ?pushBack@?$NxArray@UPermutationEntry@@VUserAllocatorAccess@NxFoundation@@@@QAEXABUPermutationEntry@@@Z 10069a00 f i ClothCooker.obj
 0001:00068b50       ??0ClothSolverPacket@@QAE@XZ 10069b50 f i ClothCooker.obj
 0001:00068b70       ??_GClothSolverPacket@@QAEPAXI@Z 10069b70 f i ClothCooker.obj
 0001:00068ba0       ?push_back@?$NxArray@IVUserAllocatorAccess@NxFoundation@@@@QAEXABI@Z 10069ba0 f i ClothCooker.obj
 0001:00068c70       ?push_back@?$NxArray@UClothInternalConstraint@@VUserAllocatorAccess@NxFoundation@@@@QAEXABUClothInternalConstraint@@@Z 10069c70 f i ClothCooker.obj
 0001:00068d70       ?push_back@?$NxArray@PAVClothSolverPacket@@VUserAllocatorAccess@NxFoundation@@@@QAEXABQAVClothSolverPacket@@@Z 10069d70 f i ClothCooker.obj
 0001:00068e40       ?resize@?$NxArray@HVUserAllocatorAccess@NxFoundation@@@@QAEXIABH@Z 10069e40 f i ClothCooker.obj
 0001:00069040       ?push_back@?$NxArray@UPermutationEntry@@VUserAllocatorAccess@NxFoundation@@@@QAEXABUPermutationEntry@@@Z 1006a040 f i ClothCooker.obj
 0001:00069190       ?generateConstraintsOfVerticesList@ClothCooker@@AAEXXZ 1006a190 f   ClothCooker.obj
 0001:00069920       ?generatePackets@ClothCooker@@QAEXXZ 1006a920 f   ClothCooker.obj
 0001:0006b070       ?generatePermutationTable@ClothCooker@@QAEXXZ 1006c070 f   ClothCooker.obj
 0001:0006b5d0       ?set@ClothEdge@@QAEXIIII@Z 1006c5d0 f i ClothMesh.obj
 0001:0006b620       ??MClothEdge@@QAE_NABU0@@Z 1006c620 f i ClothMesh.obj
 0001:0006b660       ??8ClothEdge@@QAE_NABU0@@Z 1006c660 f i ClothMesh.obj
 0001:0006b690       ?set@ClothTriangle@@QAEXIIII@Z 1006c690 f i ClothMesh.obj
 0001:0006b750       ??MClothTriangle@@QAE_NABU0@@Z 1006c750 f i ClothMesh.obj
 0001:0006b7a0       ??8ClothTriangle@@QAE_NABU0@@Z 1006c7a0 f i ClothMesh.obj
 0001:0006b7d0       ?isEmpty@?$NxArray@IVUserAllocatorAccess@NxFoundation@@@@QBE_NXZ 1006c7d0 f i ClothMesh.obj
 0001:0006b7f0       ?begin@?$NxArray@IVUserAllocatorAccess@NxFoundation@@@@QBEPBIXZ 1006c7f0 f i ClothMesh.obj
 0001:0006b800       ??A?$NxArray@UClothInternalConstraint@@VUserAllocatorAccess@NxFoundation@@@@QAEAAUClothInternalConstraint@@I@Z 1006c800 f i ClothMesh.obj
 0001:0006b820       ??A?$NxArray@VNxVec3@@VUserAllocatorAccess@NxFoundation@@@@QAEAAVNxVec3@@I@Z 1006c820 f i ClothMesh.obj
 0001:0006b840       ?begin@?$NxArray@VNxVec3@@VUserAllocatorAccess@NxFoundation@@@@QBEPBVNxVec3@@XZ 1006c840 f i ClothMesh.obj
 0001:0006b850       ?size@?$NxArray@MVUserAllocatorAccess@NxFoundation@@@@QBEIXZ 1006c850 f i ClothMesh.obj
 0001:0006b860       ?isEmpty@?$NxArray@MVUserAllocatorAccess@NxFoundation@@@@QBE_NXZ 1006c860 f i ClothMesh.obj
 0001:0006b880       ??A?$NxArray@MVUserAllocatorAccess@NxFoundation@@@@QAEAAMI@Z 1006c880 f i ClothMesh.obj
 0001:0006b890       ?begin@?$NxArray@MVUserAllocatorAccess@NxFoundation@@@@QBEPBMXZ 1006c890 f i ClothMesh.obj
 0001:0006b8a0       ??0?$NxArray@UClothEdge@@VUserAllocatorAccess@NxFoundation@@@@QAE@XZ 1006c8a0 f i ClothMesh.obj
 0001:0006b8b0       ?size@?$NxArray@UClothEdge@@VUserAllocatorAccess@NxFoundation@@@@QBEIXZ 1006c8b0 f i ClothMesh.obj
 0001:0006b8c0       ??A?$NxArray@UClothEdge@@VUserAllocatorAccess@NxFoundation@@@@QAEAAUClothEdge@@I@Z 1006c8c0 f i ClothMesh.obj
 0001:0006b8e0       ??0?$NxArray@UClothTriangle@@VUserAllocatorAccess@NxFoundation@@@@QAE@XZ 1006c8e0 f i ClothMesh.obj
 0001:0006b8f0       ?size@?$NxArray@UClothTriangle@@VUserAllocatorAccess@NxFoundation@@@@QBEIXZ 1006c8f0 f i ClothMesh.obj
 0001:0006b900       ??A?$NxArray@UClothTriangle@@VUserAllocatorAccess@NxFoundation@@@@QAEAAUClothTriangle@@I@Z 1006c900 f i ClothMesh.obj
 0001:0006b920       ?begin@?$NxArray@VNxVec3@@VUserAllocatorAccess@NxFoundation@@@@QAEPAVNxVec3@@XZ 1006c920 f i ClothMesh.obj
 0001:0006b930       ?end@?$NxArray@VNxVec3@@VUserAllocatorAccess@NxFoundation@@@@QAEPAVNxVec3@@XZ 1006c930 f i ClothMesh.obj
 0001:0006b940       ?reallocate@?$NxArray@VNxVec3@@VUserAllocatorAccess@NxFoundation@@@@AAEPAVNxVec3@@IPAV2@@Z 1006c940 f i ClothMesh.obj
 0001:0006b970       ?begin@?$NxArray@MVUserAllocatorAccess@NxFoundation@@@@QAEPAMXZ 1006c970 f i ClothMesh.obj
 0001:0006b980       ?end@?$NxArray@MVUserAllocatorAccess@NxFoundation@@@@QAEPAMXZ 1006c980 f i ClothMesh.obj
 0001:0006b990       ?reallocate@?$NxArray@MVUserAllocatorAccess@NxFoundation@@@@AAEPAMIPAM@Z 1006c990 f i ClothMesh.obj
 0001:0006b9c0       ?begin@?$NxArray@UClothGlobalInternalConstraint@@VUserAllocatorAccess@NxFoundation@@@@QAEPAUClothGlobalInternalConstraint@@XZ 1006c9c0 f i ClothMesh.obj
 0001:0006b9d0       ?end@?$NxArray@UClothGlobalInternalConstraint@@VUserAllocatorAccess@NxFoundation@@@@QAEPAUClothGlobalInternalConstraint@@XZ 1006c9d0 f i ClothMesh.obj
 0001:0006b9e0       ?begin@?$NxArray@PAVClothSolverPacket@@VUserAllocatorAccess@NxFoundation@@@@QAEPAPAVClothSolverPacket@@XZ 1006c9e0 f i ClothMesh.obj
 0001:0006b9f0       ?end@?$NxArray@PAVClothSolverPacket@@VUserAllocatorAccess@NxFoundation@@@@QAEPAPAVClothSolverPacket@@XZ 1006c9f0 f i ClothMesh.obj
 0001:0006ba00       ?reallocate@?$NxArray@PAVClothSolverPacket@@VUserAllocatorAccess@NxFoundation@@@@AAEPAPAVClothSolverPacket@@IPAPAV2@@Z 1006ca00 f i ClothMesh.obj
 0001:0006ba30       ?capacity@?$NxArray@UClothEdge@@VUserAllocatorAccess@NxFoundation@@@@QBEIXZ 1006ca30 f i ClothMesh.obj
 0001:0006ba50       ?copy@?$NxArray@UClothEdge@@VUserAllocatorAccess@NxFoundation@@@@AAEPAUClothEdge@@PBU2@0PAU2@@Z 1006ca50 f i ClothMesh.obj
 0001:0006baa0       ?allocate@?$NxArray@UClothEdge@@VUserAllocatorAccess@NxFoundation@@@@AAEPAUClothEdge@@I@Z 1006caa0 f i ClothMesh.obj
 0001:0006bad0       ?deallocate@?$NxArray@UClothEdge@@VUserAllocatorAccess@NxFoundation@@@@AAEXPAUClothEdge@@@Z 1006cad0 f i ClothMesh.obj
 0001:0006baf0       ?destroy@?$NxArray@UClothEdge@@VUserAllocatorAccess@NxFoundation@@@@AAEXPAUClothEdge@@0@Z 1006caf0 f i ClothMesh.obj
 0001:0006bb00       ?capacity@?$NxArray@UClothTriangle@@VUserAllocatorAccess@NxFoundation@@@@QBEIXZ 1006cb00 f i ClothMesh.obj
 0001:0006bb20       ?copy@?$NxArray@UClothTriangle@@VUserAllocatorAccess@NxFoundation@@@@AAEPAUClothTriangle@@PBU2@0PAU2@@Z 1006cb20 f i ClothMesh.obj
 0001:0006bb70       ?allocate@?$NxArray@UClothTriangle@@VUserAllocatorAccess@NxFoundation@@@@AAEPAUClothTriangle@@I@Z 1006cb70 f i ClothMesh.obj
 0001:0006bba0       ?deallocate@?$NxArray@UClothTriangle@@VUserAllocatorAccess@NxFoundation@@@@AAEXPAUClothTriangle@@@Z 1006cba0 f i ClothMesh.obj
 0001:0006bbc0       ?destroy@?$NxArray@UClothTriangle@@VUserAllocatorAccess@NxFoundation@@@@AAEXPAUClothTriangle@@0@Z 1006cbc0 f i ClothMesh.obj
 0001:0006bbd0       ?capacity@?$NxArray@VNxVec3@@VUserAllocatorAccess@NxFoundation@@@@QBEIXZ 1006cbd0 f i ClothMesh.obj
 0001:0006bc00       ?fill@?$NxArray@VNxVec3@@VUserAllocatorAccess@NxFoundation@@@@AAEXPAVNxVec3@@IABV2@@Z 1006cc00 f i ClothMesh.obj
 0001:0006bc40       ?copy@?$NxArray@VNxVec3@@VUserAllocatorAccess@NxFoundation@@@@AAEPAVNxVec3@@PBV2@0PAV2@@Z 1006cc40 f i ClothMesh.obj
 0001:0006bc80       ?capacity@?$NxArray@MVUserAllocatorAccess@NxFoundation@@@@QBEIXZ 1006cc80 f i ClothMesh.obj
 0001:0006bca0       ?fill@?$NxArray@MVUserAllocatorAccess@NxFoundation@@@@AAEXPAMIABM@Z 1006cca0 f i ClothMesh.obj
 0001:0006bcd0       ?copy@?$NxArray@MVUserAllocatorAccess@NxFoundation@@@@AAEPAMPBM0PAM@Z 1006ccd0 f i ClothMesh.obj
 0001:0006bd00       ?allocate@?$NxArray@MVUserAllocatorAccess@NxFoundation@@@@AAEPAMI@Z 1006cd00 f i ClothMesh.obj
 0001:0006bd30       ?fill@?$NxArray@PAVClothSolverPacket@@VUserAllocatorAccess@NxFoundation@@@@AAEXPAPAVClothSolverPacket@@IABQAV2@@Z 1006cd30 f i ClothMesh.obj
 0001:0006bd60       ?allocate@?$NxArray@VNxVec3@@VUserAllocatorAccess@NxFoundation@@@@AAEPAVNxVec3@@I@Z 1006cd60 f i ClothMesh.obj
 0001:0006bd90       ?capacity@?$NxArray@UClothGlobalInternalConstraint@@VUserAllocatorAccess@NxFoundation@@@@QBEIXZ 1006cd90 f i ClothMesh.obj
 0001:0006bdc0       ?copy@?$NxArray@UClothGlobalInternalConstraint@@VUserAllocatorAccess@NxFoundation@@@@AAEPAUClothGlobalInternalConstraint@@PBU2@0PAU2@@Z 1006cdc0 f i ClothMesh.obj
 0001:0006be00       ?allocate@?$NxArray@UClothGlobalInternalConstraint@@VUserAllocatorAccess@NxFoundation@@@@AAEPAUClothGlobalInternalConstraint@@I@Z 1006ce00 f i ClothMesh.obj
 0001:0006c190       ?saveToDesc@ClothMesh@@UBE_NAAVNxClothMeshDesc@@@Z 1006d190 f   ClothMesh.obj
 0001:0006c230       ?save@ClothMesh@@QAE_NAAVNxStream@@_N@Z 1006d230 f   ClothMesh.obj
 0001:0006c7b0       ?clear@?$NxArray@VNxVec3@@VUserAllocatorAccess@NxFoundation@@@@QAEXXZ 1006d7b0 f i ClothMesh.obj
 0001:0006c7c0       ?clear@?$NxArray@MVUserAllocatorAccess@NxFoundation@@@@QAEXXZ 1006d7c0 f i ClothMesh.obj
 0001:0006c7d0       ?clear@?$NxArray@UClothGlobalInternalConstraint@@VUserAllocatorAccess@NxFoundation@@@@QAEXXZ 1006d7d0 f i ClothMesh.obj
 0001:0006c7e0       ?clear@?$NxArray@PAVClothSolverPacket@@VUserAllocatorAccess@NxFoundation@@@@QAEXXZ 1006d7e0 f i ClothMesh.obj
 0001:0006c7f0       ??1?$NxArray@UClothEdge@@VUserAllocatorAccess@NxFoundation@@@@QAE@XZ 1006d7f0 f i ClothMesh.obj
 0001:0006c830       ?reserve@?$NxArray@UClothEdge@@VUserAllocatorAccess@NxFoundation@@@@QAEXI@Z 1006d830 f i ClothMesh.obj
 0001:0006c910       ??1?$NxArray@UClothTriangle@@VUserAllocatorAccess@NxFoundation@@@@QAE@XZ 1006d910 f i ClothMesh.obj
 0001:0006c950       ?reserve@?$NxArray@UClothTriangle@@VUserAllocatorAccess@NxFoundation@@@@QAEXI@Z 1006d950 f i ClothMesh.obj
 0001:0006ca30       ?erase@?$NxArray@VNxVec3@@VUserAllocatorAccess@NxFoundation@@@@QAEXPAVNxVec3@@0@Z 1006da30 f i ClothMesh.obj
 0001:0006cab0       ?reserve@?$NxArray@MVUserAllocatorAccess@NxFoundation@@@@QAEXI@Z 1006dab0 f i ClothMesh.obj
 0001:0006cb60       ?insert@?$NxArray@MVUserAllocatorAccess@NxFoundation@@@@QAEXPAMIABM@Z 1006db60 f i ClothMesh.obj
 0001:0006ccc0       ?erase@?$NxArray@MVUserAllocatorAccess@NxFoundation@@@@QAEXPAM0@Z 1006dcc0 f i ClothMesh.obj
 0001:0006cd20       ?erase@?$NxArray@PAVClothSolverPacket@@VUserAllocatorAccess@NxFoundation@@@@QAEXPAPAVClothSolverPacket@@0@Z 1006dd20 f i ClothMesh.obj
 0001:0006cd80       ?pushBack@?$NxArray@UClothEdge@@VUserAllocatorAccess@NxFoundation@@@@QAEXABUClothEdge@@@Z 1006dd80 f i ClothMesh.obj
 0001:0006cea0       ?pushBack@?$NxArray@UClothTriangle@@VUserAllocatorAccess@NxFoundation@@@@QAEXABUClothTriangle@@@Z 1006dea0 f i ClothMesh.obj
 0001:0006cfc0       ?reserve@?$NxArray@VNxVec3@@VUserAllocatorAccess@NxFoundation@@@@QAEXI@Z 1006dfc0 f i ClothMesh.obj
 0001:0006d0a0       ?reserve@?$NxArray@UClothGlobalInternalConstraint@@VUserAllocatorAccess@NxFoundation@@@@QAEXI@Z 1006e0a0 f i ClothMesh.obj
 0001:0006d1a0       ??0?$NxArraySDK@UClothTriangle@@@NxFoundation@@QAE@XZ 1006e1a0 f i ClothMesh.obj
 0001:0006d1b0       ??1?$NxArraySDK@UClothTriangle@@@NxFoundation@@QAE@XZ 1006e1b0 f i ClothMesh.obj
 0001:0006d1f0       ??0?$NxArraySDK@UClothEdge@@@NxFoundation@@QAE@XZ 1006e1f0 f i ClothMesh.obj
 0001:0006d200       ??1?$NxArraySDK@UClothEdge@@@NxFoundation@@QAE@XZ 1006e200 f i ClothMesh.obj
 0001:0006d240       ?resize@?$NxArray@MVUserAllocatorAccess@NxFoundation@@@@QAEXIABM@Z 1006e240 f i ClothMesh.obj
 0001:0006d440       ?pushBack@?$NxArray@MVUserAllocatorAccess@NxFoundation@@@@QAEXABM@Z 1006e440 f i ClothMesh.obj
 0001:0006d510       ?push_back@?$NxArray@MVUserAllocatorAccess@NxFoundation@@@@QAEXABM@Z 1006e510 f i ClothMesh.obj
 0001:0006d5e0       ?push_back@?$NxArray@UClothEdge@@VUserAllocatorAccess@NxFoundation@@@@QAEXABUClothEdge@@@Z 1006e5e0 f i ClothMesh.obj
 0001:0006d700       ?push_back@?$NxArray@UClothTriangle@@VUserAllocatorAccess@NxFoundation@@@@QAEXABUClothTriangle@@@Z 1006e700 f i ClothMesh.obj
 0001:0006d820       ?pushBack@?$NxArray@VNxVec3@@VUserAllocatorAccess@NxFoundation@@@@QAEXABVNxVec3@@@Z 1006e820 f i ClothMesh.obj
 0001:0006d950       ?insert@?$NxArray@VNxVec3@@VUserAllocatorAccess@NxFoundation@@@@QAEXPAVNxVec3@@IABV2@@Z 1006e950 f i ClothMesh.obj
 0001:0006db50       ?pushBack@?$NxArray@UClothGlobalInternalConstraint@@VUserAllocatorAccess@NxFoundation@@@@QAEXABUClothGlobalInternalConstraint@@@Z 1006eb50 f i ClothMesh.obj
 0001:0006dc90       ?insert@?$NxArray@PAVClothSolverPacket@@VUserAllocatorAccess@NxFoundation@@@@QAEXPAPAVClothSolverPacket@@IABQAV2@@Z 1006ec90 f i ClothMesh.obj
 0001:0006ddf0       ??0ClothCooker@@QAE@_NABV?$NxArraySDK@VNxVec3@@@NxFoundation@@ABV?$NxArraySDK@UClothGlobalInternalConstraint@@@2@AAV?$NxArraySDK@I@2@3AAV?$NxArraySDK@PAVClothSolverPacket@@@2@@Z 1006edf0 f i ClothMesh.obj
 0001:0006dee0       ??1ClothCooker@@QAE@XZ     1006eee0 f i ClothMesh.obj
 0001:0006dfc0       ?clear@ClothMesh@@AAEXXZ   1006efc0 f   ClothMesh.obj
 0001:0006e0a0       ?findParentTriangles@ClothMesh@@AAEXXZ 1006f0a0 f   ClothMesh.obj
 0001:0006e630       ?resize@?$NxArray@VNxVec3@@VUserAllocatorAccess@NxFoundation@@@@QAEXIABVNxVec3@@@Z 1006f630 f i ClothMesh.obj
 0001:0006e8f0       ?push_back@?$NxArray@VNxVec3@@VUserAllocatorAccess@NxFoundation@@@@QAEXABVNxVec3@@@Z 1006f8f0 f i ClothMesh.obj
 0001:0006ea20       ?push_back@?$NxArray@UClothGlobalInternalConstraint@@VUserAllocatorAccess@NxFoundation@@@@QAEXABUClothGlobalInternalConstraint@@@Z 1006fa20 f i ClothMesh.obj
 0001:0006eb60       ?resize@?$NxArray@PAVClothSolverPacket@@VUserAllocatorAccess@NxFoundation@@@@QAEXIABQAVClothSolverPacket@@@Z 1006fb60 f i ClothMesh.obj
 0001:0006ed60       ??1ClothMesh@@QAE@XZ       1006fd60 f   ClothMesh.obj
 0001:0006eff0       ?load@ClothMesh@@UAE_NABVNxStream@@@Z 1006fff0 f   ClothMesh.obj
 0001:00070010       ?generateConstraints@ClothMesh@@AAEXXZ 10071010 f   ClothMesh.obj
 0001:00070bb0       ?loadFromDesc@ClothMesh@@QAE_NABVNxClothMeshDesc@@@Z 10071bb0 f   ClothMesh.obj
 0001:00072540       ?NxZeroMemory@@YAXPAXI@Z   10073540 f i PhysX:meshcookernew.obj
 0001:00072560       ??0FwV3@@QAE@XZ            10073560 f i PhysX:meshcookernew.obj
 0001:00072570       ??0FwBBox@@QAE@XZ          10073570 f i PhysX:meshcookernew.obj
 0001:00072580       ?GetLink@AdjTriangle@@QBEIW4SharedEdgeIndex@@@Z 10073580 f i PhysX:meshcookernew.obj
 0001:00072590       ?getMeshPages@PageMaker@@QAE?AVCustomArray@IceCore@@XZ 10073590 f i PhysX:meshcookernew.obj
 0001:000725b0       ?getSize@VertexCounterNEW@@QAEIXZ 100735b0 f i PhysX:meshcookernew.obj
 0001:000725c0       ??0VertexCounterNEW@@QAE@I@Z 100735c0 f   PhysX:meshcookernew.obj
 0001:00072610       ??1VertexCounterNEW@@QAE@XZ 10073610 f   PhysX:meshcookernew.obj
 0001:00072630       ?reset@VertexCounterNEW@@QAEXXZ 10073630 f   PhysX:meshcookernew.obj
 0001:00072660       ?addTriangle@VertexCounterNEW@@QAEIIII@Z 10073660 f   PhysX:meshcookernew.obj
 0001:00072800       ??0PageChunk@@QAE@XZ       10073800 f i PhysX:meshcookernew.obj
 0001:00072810       ?NxCookHWMeshNEW@@YA_NIIPBUNxTriangle32@@PBVNxVec3@@IIPBGPBE2IIIAAVNxStream@@@Z 10073810 f   PhysX:meshcookernew.obj
 0001:00073320       ?NxCookHWMesh@@YA_NIIPBUNxTriangle32@@PBVNxVec3@@IIPBGPBE2IIIAAVNxStream@@@Z 10074320 f   PhysX:meshcookernew.obj
 0001:00073330       ?combine@NxBounds3@@QAEXABV1@@Z 10074330 f i PhysX:trianglemesh.obj
 0001:000733f0       ?loadPages@TriangleMesh@@IAE_NABVNxStream@@@Z 100743f0 f   PhysX:trianglemesh.obj
 0001:00073780       ?fwMax@@YAMMM@Z            10074780 f i PhysX:pagemaker.obj
 0001:000737a0       ?fwMin@@YAMMM@Z            100747a0 f i PhysX:pagemaker.obj
 0001:000737c0       ?f16e8Ceil@@YAGM@Z         100747c0 f i PhysX:pagemaker.obj
 0001:00073800       ?f16e8Floor@@YAGM@Z        10074800 f i PhysX:pagemaker.obj
 0001:00073840       ??0FwV3@@QAE@MMM@Z         10074840 f i PhysX:pagemaker.obj
 0001:00073860       ??AFwV3@@QAEAAMH@Z         10074860 f i PhysX:pagemaker.obj
 0001:00073870       ?max@FwV3@@QBE?AV1@ABV1@@Z 10074870 f i PhysX:pagemaker.obj
 0001:000738d0       ?min@FwV3@@QBE?AV1@ABV1@@Z 100748d0 f i PhysX:pagemaker.obj
 0001:00073930       ??0FwBBox@@QAE@ABVFwV3@@0@Z 10074930 f i PhysX:pagemaker.obj
 0001:00073970       ?merge@FwBBox@@QAE?AV1@ABV1@@Z 10074970 f i PhysX:pagemaker.obj
 0001:000739d0       ?empty@FwBBox@@SA?AV1@XZ   100749d0 f i PhysX:pagemaker.obj
 0001:00073a40       ??2@YAPAXIPAX@Z            10074a40 f i PhysX:pagemaker.obj
 0001:00073a50       ?assign@?$char_traits@D@std@@SAXAADABD@Z 10074a50 f i PhysX:pagemaker.obj
 0001:00073a60       ?length@?$char_traits@D@std@@SAIPBD@Z 10074a60 f i PhysX:pagemaker.obj
 0001:00073a80       ?copy@?$char_traits@D@std@@SAPADPADPBDI@Z 10074a80 f i PhysX:pagemaker.obj
 0001:00073ab0       ?move@?$char_traits@D@std@@SAPADPADPBDI@Z 10074ab0 f i PhysX:pagemaker.obj
 0001:00073ac0       ??0PageMaker@@QAE@I@Z      10074ac0 f   PhysX:pagemaker.obj
 0001:00073b40       ??1PageMaker@@QAE@XZ       10074b40 f   PhysX:pagemaker.obj
 0001:00073be0       ?addChunk@PageMaker@@QAEXABUPageChunk@@@Z 10074be0 f   PhysX:pagemaker.obj
 0001:00073c20       ?getPacketCount@PageMaker@@AAEII@Z 10074c20 f   PhysX:pagemaker.obj
 0001:00073c40       ?quantizeBBox@PageMaker@@AAEXAAUFwF16BBox@@ABVFwBBox@@@Z 10074c40 f   PhysX:pagemaker.obj
 0001:00073dd0       ?getChunkCount@PageMaker@@AAEII_N@Z 10074dd0 f   PhysX:pagemaker.obj
 0001:00073df0       ??0Ordinate@@QAE@PAUPageChunk@@I@Z 10074df0 f i PhysX:pagemaker.obj
 0001:00073e10       ??0Ordinate@@QAE@XZ        10074e10 f i PhysX:pagemaker.obj
 0001:00073e20       ??MOrdinate@@QAE_NABV0@@Z  10074e20 f i PhysX:pagemaker.obj
 0001:00073e40       ?getVolume@PageMaker@@AAEMABVFwBBox@@@Z 10074e40 f   PhysX:pagemaker.obj
 0001:00073e70       ?_Myptr@?$basic_string@DU?$char_traits@D@std@@V?$allocator@D@2@@std@@QBEPBDXZ 10074e70 f i PhysX:pagemaker.obj
 0001:00073e80       ??0?$allocator@D@std@@QAE@ABV01@@Z 10074e80 f i PhysX:pagemaker.obj
 0001:00073e90       ??0?$allocator@VOrdinate@@@std@@QAE@XZ 10074e90 f i PhysX:pagemaker.obj
 0001:00073ea0       ?size@?$basic_string@DU?$char_traits@D@std@@V?$allocator@D@2@@std@@QBEIXZ 10074ea0 f i PhysX:pagemaker.obj
 0001:00073eb0       ?_Myptr@?$basic_string@DU?$char_traits@D@std@@V?$allocator@D@2@@std@@QAEPADXZ 10074eb0 f i PhysX:pagemaker.obj
 0001:00073ec0       ?deallocate@?$allocator@D@std@@QAEXPADI@Z 10074ec0 f i PhysX:pagemaker.obj
 0001:00073ed0       ?size@?$vector@VOrdinate@@V?$allocator@VOrdinate@@@std@@@std@@QBEIXZ 10074ed0 f i PhysX:pagemaker.obj
 0001:00073ef0       ??0?$allocator@VOrdinate@@@std@@QAE@ABV01@@Z 10074ef0 f i PhysX:pagemaker.obj
 0001:00073f00       ?deallocate@?$allocator@VOrdinate@@@std@@QAEXPAVOrdinate@@I@Z 10074f00 f i PhysX:pagemaker.obj
 0001:00073f10       ??Yiterator@?$vector@VOrdinate@@V?$allocator@VOrdinate@@@std@@@std@@QAEAAV012@H@Z 10074f10 f i PhysX:pagemaker.obj
 0001:00073f30       ??0const_iterator@?$vector@VOrdinate@@V?$allocator@VOrdinate@@@std@@@std@@QAE@PAVOrdinate@@@Z 10074f30 f i PhysX:pagemaker.obj
 0001:00073f40       ??Dconst_iterator@?$vector@VOrdinate@@V?$allocator@VOrdinate@@@std@@@std@@QBEABVOrdinate@@XZ 10074f40 f i PhysX:pagemaker.obj
 0001:00073f50       ?capacity@?$vector@VOrdinate@@V?$allocator@VOrdinate@@@std@@@std@@QBEIXZ 10074f50 f i PhysX:pagemaker.obj
 0001:00073f70       ?max_size@?$allocator@VOrdinate@@@std@@QBEIXZ 10074f70 f i PhysX:pagemaker.obj
 0001:00073f80       ??0?$allocator@D@std@@QAE@XZ 10074f80 f i PhysX:pagemaker.obj
 0001:00073f90       ?max_size@?$allocator@D@std@@QBEIXZ 10074f90 f i PhysX:pagemaker.obj
 0001:00073fa0       ??8const_iterator@?$vector@VOrdinate@@V?$allocator@VOrdinate@@@std@@@std@@QBE_NABV012@@Z 10074fa0 f i PhysX:pagemaker.obj
 0001:00073fb0       ?_Inside@?$basic_string@DU?$char_traits@D@std@@V?$allocator@D@2@@std@@IAE_NPBD@Z 10074fb0 f i PhysX:pagemaker.obj
 0001:00073ff0       ??$fill@PAVOrdinate@@V1@@std@@YAXPAVOrdinate@@0ABV1@@Z 10074ff0 f i PhysX:pagemaker.obj
 0001:00074020       ??$_Allocate@VOrdinate@@@std@@YAPAVOrdinate@@IPAV1@@Z 10075020 f i PhysX:pagemaker.obj
 0001:00074040       ??$_Allocate@D@std@@YAPADIPAD@Z 10075040 f i PhysX:pagemaker.obj
 0001:00074050       ??Gconst_iterator@?$vector@VOrdinate@@V?$allocator@VOrdinate@@@std@@@std@@QBEHABV012@@Z 10075050 f i PhysX:pagemaker.obj
 0001:00074060       ??$_Ptr_cat@PAVOrdinate@@PAV1@@std@@YA?AU_Nonscalar_ptr_iterator_tag@0@AAPAVOrdinate@@0@Z 10075060 f i PhysX:pagemaker.obj
 0001:00074070       ??$_Copy_opt@PAVOrdinate@@PAV1@@std@@YAPAVOrdinate@@PAV1@00U_Nonscalar_ptr_iterator_tag@0@@Z 10075070 f i PhysX:pagemaker.obj
 0001:000740a0       ??$_Copy_backward_opt@PAVOrdinate@@PAV1@@std@@YAPAVOrdinate@@PAV1@00U_Nonscalar_ptr_iterator_tag@0@@Z 100750a0 f i PhysX:pagemaker.obj
 0001:000740d0       ??$_Construct@VOrdinate@@V1@@std@@YAXPAVOrdinate@@ABV1@@Z 100750d0 f i PhysX:pagemaker.obj
 0001:000740f0       ??$_Destroy@VOrdinate@@@std@@YAXPAVOrdinate@@@Z 100750f0 f i PhysX:pagemaker.obj
 0001:00074100       ??Eiterator@?$vector@VOrdinate@@V?$allocator@VOrdinate@@@std@@@std@@QAEAAV012@XZ 10075100 f i PhysX:pagemaker.obj
 0001:00074110       ??Eiterator@?$vector@VOrdinate@@V?$allocator@VOrdinate@@@std@@@std@@QAE?AV012@H@Z 10075110 f i PhysX:pagemaker.obj
 0001:00074120       ??Fiterator@?$vector@VOrdinate@@V?$allocator@VOrdinate@@@std@@@std@@QAEAAV012@XZ 10075120 f i PhysX:pagemaker.obj
 0001:00074130       ??Mconst_iterator@?$vector@VOrdinate@@V?$allocator@VOrdinate@@@std@@@std@@QBE_NABV012@@Z 10075130 f i PhysX:pagemaker.obj
 0001:00074140       ??0?$pair@Viterator@?$vector@VOrdinate@@V?$allocator@VOrdinate@@@std@@@std@@V123@@std@@QAE@ABViterator@?$vector@VOrdinate@@V?$allocator@VOrdinate@@@std@@@1@0@Z 10075140 f i PhysX:pagemaker.obj
 0001:00074160       ??Ziterator@?$vector@VOrdinate@@V?$allocator@VOrdinate@@@std@@@std@@QAEAAV012@H@Z 10075160 f i PhysX:pagemaker.obj
 0001:00074180       ??$_Dist_type@Viterator@?$vector@VOrdinate@@V?$allocator@VOrdinate@@@std@@@std@@@std@@YAPAHViterator@?$vector@VOrdinate@@V?$allocator@VOrdinate@@@std@@@0@@Z 10075180 f i PhysX:pagemaker.obj
 0001:00074190       ??$_Val_type@Viterator@?$vector@VOrdinate@@V?$allocator@VOrdinate@@@std@@@std@@@std@@YAPAVOrdinate@@Viterator@?$vector@VOrdinate@@V?$allocator@VOrdinate@@@std@@@0@@Z 10075190 f i PhysX:pagemaker.obj
 0001:000741a0       ??$swap@VOrdinate@@@std@@YAXAAVOrdinate@@0@Z 100751a0 f i PhysX:pagemaker.obj
 0001:000741d0       ??$_Iter_cat@Viterator@?$vector@VOrdinate@@V?$allocator@VOrdinate@@@std@@@std@@@std@@YA?AUrandom_access_iterator_tag@0@ABViterator@?$vector@VOrdinate@@V?$allocator@VOrdinate@@@std@@@0@@Z 100751d0 f i PhysX:pagemaker.obj
 0001:000741e0       ??0?$_String_val@DV?$allocator@D@std@@@std@@IAE@V?$allocator@D@1@@Z 100751e0 f i PhysX:pagemaker.obj
 0001:000741f0       ??0?$_Vector_val@VOrdinate@@V?$allocator@VOrdinate@@@std@@@std@@IAE@V?$allocator@VOrdinate@@@1@@Z 100751f0 f i PhysX:pagemaker.obj
 0001:00074200       ??0iterator@?$vector@VOrdinate@@V?$allocator@VOrdinate@@@std@@@std@@QAE@PAVOrdinate@@@Z 10075200 f i PhysX:pagemaker.obj
 0001:00074210       ??Diterator@?$vector@VOrdinate@@V?$allocator@VOrdinate@@@std@@@std@@QBEAAVOrdinate@@XZ 10075210 f i PhysX:pagemaker.obj
 0001:00074220       ??Hiterator@?$vector@VOrdinate@@V?$allocator@VOrdinate@@@std@@@std@@QBE?AV012@H@Z 10075220 f i PhysX:pagemaker.obj
 0001:00074240       ?_Eos@?$basic_string@DU?$char_traits@D@std@@V?$allocator@D@2@@std@@IAEXI@Z 10075240 f i PhysX:pagemaker.obj
 0001:00074260       ?max_size@?$vector@VOrdinate@@V?$allocator@VOrdinate@@@std@@@std@@QBEIXZ 10075260 f i PhysX:pagemaker.obj
 0001:00074270       ?allocate@?$allocator@VOrdinate@@@std@@QAEPAVOrdinate@@I@Z 10075270 f i PhysX:pagemaker.obj
 0001:00074290       ?max_size@?$basic_string@DU?$char_traits@D@std@@V?$allocator@D@2@@std@@QBEIXZ 10075290 f i PhysX:pagemaker.obj
 0001:000742a0       ??9const_iterator@?$vector@VOrdinate@@V?$allocator@VOrdinate@@@std@@@std@@QBE_NABV012@@Z 100752a0 f i PhysX:pagemaker.obj
 0001:000742c0       ?allocate@?$allocator@D@std@@QAEPADI@Z 100752c0 f i PhysX:pagemaker.obj
 0001:000742d0       ??$copy@PAVOrdinate@@PAV1@@std@@YAPAVOrdinate@@PAV1@00@Z 100752d0 f i PhysX:pagemaker.obj
 0001:00074300       ??$copy_backward@PAVOrdinate@@PAV1@@std@@YAPAVOrdinate@@PAV1@00@Z 10075300 f i PhysX:pagemaker.obj
 0001:00074330       ??Giterator@?$vector@VOrdinate@@V?$allocator@VOrdinate@@@std@@@std@@QBEHABVconst_iterator@12@@Z 10075330 f i PhysX:pagemaker.obj
 0001:00074340       ?construct@?$allocator@VOrdinate@@@std@@QAEXPAVOrdinate@@ABV3@@Z 10075340 f i PhysX:pagemaker.obj
 0001:00074360       ?destroy@?$allocator@VOrdinate@@@std@@QAEXPAVOrdinate@@@Z 10075360 f i PhysX:pagemaker.obj
 0001:00074370       ??$_Uninit_copy@PAVOrdinate@@PAV1@V?$allocator@VOrdinate@@@std@@@std@@YAPAVOrdinate@@PAV1@00AAV?$allocator@VOrdinate@@@0@U_Nonscalar_ptr_iterator_tag@0@@Z 10075370 f i PhysX:pagemaker.obj
 0001:000743a0       ??Giterator@?$vector@VOrdinate@@V?$allocator@VOrdinate@@@std@@@std@@QBE?AV012@H@Z 100753a0 f i PhysX:pagemaker.obj
 0001:000743c0       ??$iter_swap@Viterator@?$vector@VOrdinate@@V?$allocator@VOrdinate@@@std@@@std@@V123@@std@@YAXViterator@?$vector@VOrdinate@@V?$allocator@VOrdinate@@@std@@@0@0@Z 100753c0 f i PhysX:pagemaker.obj
 0001:000743f0       ??$_Med3@Viterator@?$vector@VOrdinate@@V?$allocator@VOrdinate@@@std@@@std@@@std@@YAXViterator@?$vector@VOrdinate@@V?$allocator@VOrdinate@@@std@@@0@00@Z 100753f0 f i PhysX:pagemaker.obj
 0001:00074470       ??$_Push_heap@Viterator@?$vector@VOrdinate@@V?$allocator@VOrdinate@@@std@@@std@@HVOrdinate@@@std@@YAXViterator@?$vector@VOrdinate@@V?$allocator@VOrdinate@@@std@@@0@HHVOrdinate@@@Z 10075470 f i PhysX:pagemaker.obj
 0001:000744d0       ??$_Rotate@Viterator@?$vector@VOrdinate@@V?$allocator@VOrdinate@@@std@@@std@@HVOrdinate@@@std@@YAXViterator@?$vector@VOrdinate@@V?$allocator@VOrdinate@@@std@@@0@00PAHPAVOrdinate@@@Z 100754d0 f i PhysX:pagemaker.obj
 0001:000745b0       ?begin@?$vector@VOrdinate@@V?$allocator@VOrdinate@@@std@@@std@@QAE?AViterator@12@XZ 100755b0 f i PhysX:pagemaker.obj
 0001:000745c0       ?end@?$vector@VOrdinate@@V?$allocator@VOrdinate@@@std@@@std@@QAE?AViterator@12@XZ 100755c0 f i PhysX:pagemaker.obj
 0001:000745d0       ??A?$vector@VOrdinate@@V?$allocator@VOrdinate@@@std@@@std@@QAEAAVOrdinate@@I@Z 100755d0 f i PhysX:pagemaker.obj
 0001:000745e0       ?_Tidy@?$basic_string@DU?$char_traits@D@std@@V?$allocator@D@2@@std@@IAEX_NI@Z 100755e0 f i PhysX:pagemaker.obj
 0001:00074640       ?erase@?$basic_string@DU?$char_traits@D@std@@V?$allocator@D@2@@std@@QAEAAV12@II@Z 10075640 f i PhysX:pagemaker.obj
 0001:000746c0       ?_Copy@?$basic_string@DU?$char_traits@D@std@@V?$allocator@D@2@@std@@IAEXII@Z 100756c0 f i PhysX:pagemaker.obj
 0001:00074800       ??$_Destroy_range@VOrdinate@@V?$allocator@VOrdinate@@@std@@@std@@YAXPAVOrdinate@@0AAV?$allocator@VOrdinate@@@0@U_Nonscalar_ptr_iterator_tag@0@@Z 10075800 f i PhysX:pagemaker.obj
 0001:00074810       ??$_Uninitialized_copy@PAVOrdinate@@PAV1@V?$allocator@VOrdinate@@@std@@@std@@YAPAVOrdinate@@PAV1@00AAV?$allocator@VOrdinate@@@0@@Z 10075810 f i PhysX:pagemaker.obj
 0001:00074840       ??$_Uninit_fill_n@PAVOrdinate@@IV1@V?$allocator@VOrdinate@@@std@@@std@@YAXPAVOrdinate@@IABV1@AAV?$allocator@VOrdinate@@@0@U_Nonscalar_ptr_iterator_tag@0@@Z 10075840 f i PhysX:pagemaker.obj
 0001:00074870       ??$_Median@Viterator@?$vector@VOrdinate@@V?$allocator@VOrdinate@@@std@@@std@@@std@@YAXViterator@?$vector@VOrdinate@@V?$allocator@VOrdinate@@@std@@@0@00@Z 10075870 f i PhysX:pagemaker.obj
 0001:00074900       ??$_Adjust_heap@Viterator@?$vector@VOrdinate@@V?$allocator@VOrdinate@@@std@@@std@@HVOrdinate@@@std@@YAXViterator@?$vector@VOrdinate@@V?$allocator@VOrdinate@@@std@@@0@HHVOrdinate@@@Z 10075900 f i PhysX:pagemaker.obj
 0001:00074980       ??$_Rotate@Viterator@?$vector@VOrdinate@@V?$allocator@VOrdinate@@@std@@@std@@@std@@YAXViterator@?$vector@VOrdinate@@V?$allocator@VOrdinate@@@std@@@0@00Urandom_access_iterator_tag@0@@Z 10075980 f i PhysX:pagemaker.obj
 0001:000749a0       ??$_Pop_heap@Viterator@?$vector@VOrdinate@@V?$allocator@VOrdinate@@@std@@@std@@HVOrdinate@@@std@@YAXViterator@?$vector@VOrdinate@@V?$allocator@VOrdinate@@@std@@@0@00VOrdinate@@PAH@Z 100759a0 f i PhysX:pagemaker.obj
 0001:000749e0       ??1?$basic_string@DU?$char_traits@D@std@@V?$allocator@D@2@@std@@QAE@XZ 100759e0 f i PhysX:pagemaker.obj
 0001:00074a10       ?_Grow@?$basic_string@DU?$char_traits@D@std@@V?$allocator@D@2@@std@@IAE_NI_N@Z 10075a10 f i PhysX:pagemaker.obj
 0001:00074ae0       ??$_Destroy_range@VOrdinate@@V?$allocator@VOrdinate@@@std@@@std@@YAXPAVOrdinate@@0AAV?$allocator@VOrdinate@@@0@@Z 10075ae0 f i PhysX:pagemaker.obj
 0001:00074af0       ??$_Ucopy@PAVOrdinate@@@?$vector@VOrdinate@@V?$allocator@VOrdinate@@@std@@@std@@IAEPAVOrdinate@@PAV2@00@Z 10075af0 f i PhysX:pagemaker.obj
 0001:00074b10       ??$_Uninitialized_fill_n@PAVOrdinate@@IV1@V?$allocator@VOrdinate@@@std@@@std@@YAXPAVOrdinate@@IABV1@AAV?$allocator@VOrdinate@@@0@@Z 10075b10 f i PhysX:pagemaker.obj
 0001:00074b40       ??$_Unguarded_partition@Viterator@?$vector@VOrdinate@@V?$allocator@VOrdinate@@@std@@@std@@@std@@YA?AU?$pair@Viterator@?$vector@VOrdinate@@V?$allocator@VOrdinate@@@std@@@std@@V123@@0@Viterator@?$vector@VOrdinate@@V?$allocator@VOrdinate@@@std@@@0@0@Z 10075b40 f i PhysX:pagemaker.obj
 0001:00074d40       ??$_Make_heap@Viterator@?$vector@VOrdinate@@V?$allocator@VOrdinate@@@std@@@std@@HVOrdinate@@@std@@YAXViterator@?$vector@VOrdinate@@V?$allocator@VOrdinate@@@std@@@0@0PAHPAVOrdinate@@@Z 10075d40 f i PhysX:pagemaker.obj
 0001:00074d90       ??$rotate@Viterator@?$vector@VOrdinate@@V?$allocator@VOrdinate@@@std@@@std@@@std@@YAXViterator@?$vector@VOrdinate@@V?$allocator@VOrdinate@@@std@@@0@00@Z 10075d90 f i PhysX:pagemaker.obj
 0001:00074dc0       ??$_Pop_heap_0@Viterator@?$vector@VOrdinate@@V?$allocator@VOrdinate@@@std@@@std@@VOrdinate@@@std@@YAXViterator@?$vector@VOrdinate@@V?$allocator@VOrdinate@@@std@@@0@0PAVOrdinate@@@Z 10075dc0 f i PhysX:pagemaker.obj
 0001:00074e00       ??1logic_error@std@@UAE@XZ 10075e00 f i PhysX:pagemaker.obj
 0001:00074e40       ?what@logic_error@std@@UBEPBDXZ 10075e40 f i PhysX:pagemaker.obj
 0001:00074e50       ??_Glogic_error@std@@UAEPAXI@Z 10075e50 f i PhysX:pagemaker.obj
 0001:00074e50       ??_Elogic_error@std@@UAEPAXI@Z 10075e50 f i PhysX:pagemaker.obj
 0001:00074e70       ?assign@?$basic_string@DU?$char_traits@D@std@@V?$allocator@D@2@@std@@QAEAAV12@ABV12@II@Z 10075e70 f i PhysX:pagemaker.obj
 0001:00074f60       ?_Destroy@?$vector@VOrdinate@@V?$allocator@VOrdinate@@@std@@@std@@IAEXPAVOrdinate@@0@Z 10075f60 f i PhysX:pagemaker.obj
 0001:00074f70       ?_Ufill@?$vector@VOrdinate@@V?$allocator@VOrdinate@@@std@@@std@@IAEPAVOrdinate@@PAV3@IABV3@@Z 10075f70 f i PhysX:pagemaker.obj
 0001:00074fa0       ?assign@?$basic_string@DU?$char_traits@D@std@@V?$allocator@D@2@@std@@QAEAAV12@PBDI@Z 10075fa0 f i PhysX:pagemaker.obj
 0001:00075090       ??$make_heap@Viterator@?$vector@VOrdinate@@V?$allocator@VOrdinate@@@std@@@std@@@std@@YAXViterator@?$vector@VOrdinate@@V?$allocator@VOrdinate@@@std@@@0@0@Z 10076090 f i PhysX:pagemaker.obj
 0001:000750c0       ??$_Insertion_sort@Viterator@?$vector@VOrdinate@@V?$allocator@VOrdinate@@@std@@@std@@@std@@YAXViterator@?$vector@VOrdinate@@V?$allocator@VOrdinate@@@std@@@0@0@Z 100760c0 f i PhysX:pagemaker.obj
 0001:00075140       ??$pop_heap@Viterator@?$vector@VOrdinate@@V?$allocator@VOrdinate@@@std@@@std@@@std@@YAXViterator@?$vector@VOrdinate@@V?$allocator@VOrdinate@@@std@@@0@0@Z 10076140 f i PhysX:pagemaker.obj
 0001:00075180       ??0?$basic_string@DU?$char_traits@D@std@@V?$allocator@D@2@@std@@QAE@ABV01@@Z 10076180 f i PhysX:pagemaker.obj
 0001:000751b0       ?_Tidy@?$vector@VOrdinate@@V?$allocator@VOrdinate@@@std@@@std@@IAEXXZ 100761b0 f i PhysX:pagemaker.obj
 0001:000751e0       ?erase@?$vector@VOrdinate@@V?$allocator@VOrdinate@@@std@@@std@@QAE?AViterator@12@V312@0@Z 100761e0 f i PhysX:pagemaker.obj
 0001:00075220       ?assign@?$basic_string@DU?$char_traits@D@std@@V?$allocator@D@2@@std@@QAEAAV12@PBD@Z 10076220 f i PhysX:pagemaker.obj
 0001:00075250       ??$sort_heap@Viterator@?$vector@VOrdinate@@V?$allocator@VOrdinate@@@std@@@std@@@std@@YAXViterator@?$vector@VOrdinate@@V?$allocator@VOrdinate@@@std@@@0@0@Z 10076250 f i PhysX:pagemaker.obj
 0001:000752a0       ??0logic_error@std@@QAE@ABV?$basic_string@DU?$char_traits@D@std@@V?$allocator@D@2@@1@@Z 100762a0 f i PhysX:pagemaker.obj
 0001:00075300       ??0length_error@std@@QAE@ABV?$basic_string@DU?$char_traits@D@std@@V?$allocator@D@2@@1@@Z 10076300 f i PhysX:pagemaker.obj
 0001:00075320       ??_Glength_error@std@@UAEPAXI@Z 10076320 f i PhysX:pagemaker.obj
 0001:00075320       ??_Elength_error@std@@UAEPAXI@Z 10076320 f i PhysX:pagemaker.obj
 0001:00075340       ??1length_error@std@@UAE@XZ 10076340 f i PhysX:pagemaker.obj
 0001:00075380       ??1?$vector@VOrdinate@@V?$allocator@VOrdinate@@@std@@@std@@QAE@XZ 10076380 f i PhysX:pagemaker.obj
 0001:000753b0       ??0?$basic_string@DU?$char_traits@D@std@@V?$allocator@D@2@@std@@QAE@PBD@Z 100763b0 f i PhysX:pagemaker.obj
 0001:000753f0       ??$_Sort@Viterator@?$vector@VOrdinate@@V?$allocator@VOrdinate@@@std@@@std@@H@std@@YAXViterator@?$vector@VOrdinate@@V?$allocator@VOrdinate@@@std@@@0@0H@Z 100763f0 f i PhysX:pagemaker.obj
 0001:000754c0       ?_Xlen@?$vector@VOrdinate@@V?$allocator@VOrdinate@@@std@@@std@@IBEXXZ 100764c0 f i PhysX:pagemaker.obj
 0001:00075530       ??0logic_error@std@@QAE@ABV01@@Z 10076530 f i PhysX:pagemaker.obj
 0001:000755a0       ??0length_error@std@@QAE@ABV01@@Z 100765a0 f i PhysX:pagemaker.obj
 0001:000755c0       ??$sort@Viterator@?$vector@VOrdinate@@V?$allocator@VOrdinate@@@std@@@std@@@std@@YAXViterator@?$vector@VOrdinate@@V?$allocator@VOrdinate@@@std@@@0@0@Z 100765c0 f i PhysX:pagemaker.obj
 0001:000755e0       ?_Buy@?$vector@VOrdinate@@V?$allocator@VOrdinate@@@std@@@std@@IAE_NI@Z 100765e0 f i PhysX:pagemaker.obj
 0001:00075630       ?_Insert_n@?$vector@VOrdinate@@V?$allocator@VOrdinate@@@std@@@std@@IAEXViterator@12@IABVOrdinate@@@Z 10076630 f i PhysX:pagemaker.obj
 0001:00075880       ??0?$vector@VOrdinate@@V?$allocator@VOrdinate@@@std@@@std@@QAE@XZ 10076880 f i PhysX:pagemaker.obj
 0001:00075890       ?resize@?$vector@VOrdinate@@V?$allocator@VOrdinate@@@std@@@std@@QAEXIVOrdinate@@@Z 10076890 f i PhysX:pagemaker.obj
 0001:00075900       ?resize@?$vector@VOrdinate@@V?$allocator@VOrdinate@@@std@@@std@@QAEXI@Z 10076900 f i PhysX:pagemaker.obj
 0001:00075930       ?splitChunks@PageMaker@@AAEIPAPAUPageChunk@@III@Z 10076930 f   PhysX:pagemaker.obj
 0001:000761c0       ?createNodes@PageMaker@@AAEXPAUFwMeshNode@@PAUFwF16BBox@@IPAPAUPageChunk@@I@Z 100771c0 f   PhysX:pagemaker.obj
 0001:000763b0       ?createPackets@PageMaker@@AAEXPAUFwMeshPacket@@IPAVFwBBox@@_NPAPAUPageChunk@@I@Z 100773b0 f   PhysX:pagemaker.obj
 0001:00076520       ?createPage@PageMaker@@AAEXPAPAUPageChunk@@I@Z 10077520 f   PhysX:pagemaker.obj
 0001:00076920       ?createPages@PageMaker@@AAEXPAPAUPageChunk@@I@Z 10077920 f   PhysX:pagemaker.obj
 0001:000769b0       ?run@PageMaker@@QAE_NXZ    100779b0 f   PhysX:pagemaker.obj
 0001:00076a50       ?f16e8ToReal@@YAMG@Z       10077a50 f i PhysX:chunkcooker.obj
 0001:00076a70       ?fwClamp@@YAMMMM@Z         10077a70 f i PhysX:chunkcooker.obj
 0001:00076aa0       ?fromf16e8@FwV3@@SA?AV1@GGG@Z 10077aa0 f i PhysX:chunkcooker.obj
 0001:00076ae0       ??HFwV3@@QBE?AV0@ABV0@@Z   10077ae0 f i PhysX:chunkcooker.obj
 0001:00076b10       ??GFwV3@@QBE?AV0@ABV0@@Z   10077b10 f i PhysX:chunkcooker.obj
 0001:00076b40       ??DFwV3@@QBE?AV0@M@Z       10077b40 f i PhysX:chunkcooker.obj
 0001:00076b70       ??KFwV3@@QBE?AV0@M@Z       10077b70 f i PhysX:chunkcooker.obj
 0001:00076ba0       ?dot@FwV3@@QBEMABV1@@Z     10077ba0 f i PhysX:chunkcooker.obj
 0001:00076bc0       ?cross@FwV3@@QBE?AV1@ABV1@@Z 10077bc0 f i PhysX:chunkcooker.obj
 0001:00076c00       ?compress@FwBBox@@QAEXPAG0@Z 10077c00 f i PhysX:chunkcooker.obj
 0001:00076e10       ?getChunkTriangles@@YAPAUFwChunkTri@@PAE@Z 10077e10 f i PhysX:chunkcooker.obj
 0001:00076e20       ?getChunkVerts@@YAPAVFwV3@@PAE@Z 10077e20 f i PhysX:chunkcooker.obj
 0001:00077030       ?cookChunk@@YAXPAEPBVChunkTriangle@@GG@Z 10078030 f   PhysX:chunkcooker.obj
 0001:00077510       _InitializeCriticalSection@4 10078510 f   kernel32:KERNEL32.dll
 0001:00077516       _DeleteCriticalSection@4   10078516 f   kernel32:KERNEL32.dll
 0001:0007751c       _GetCurrentThreadId@0      1007851c f   kernel32:KERNEL32.dll
 0001:00077522       _InterlockedCompareExchange@12 10078522 f   kernel32:KERNEL32.dll
 0001:00077528       _EnterCriticalSection@4    10078528 f   kernel32:KERNEL32.dll
 0001:0007752e       _LeaveCriticalSection@4    1007852e f   kernel32:KERNEL32.dll
 0001:00077534       _CreateEventA@16           10078534 f   kernel32:KERNEL32.dll
 0001:0007753a       _CloseHandle@4             1007853a f   kernel32:KERNEL32.dll
 0001:00077540       _ResetEvent@4              10078540 f   kernel32:KERNEL32.dll
 0001:00077546       _SetEvent@4                10078546 f   kernel32:KERNEL32.dll
 0001:0007754c       _WaitForSingleObject@8     1007854c f   kernel32:KERNEL32.dll
 0001:00077552       _WaitForMultipleObjects@16 10078552 f   kernel32:KERNEL32.dll
 0001:00077558       _CreateThread@24           10078558 f   kernel32:KERNEL32.dll
 0001:0007755e       _InterlockedIncrement@4    1007855e f   kernel32:KERNEL32.dll
 0001:00077564       _ExitThread@4              10078564 f   kernel32:KERNEL32.dll
 0001:0007756a       _TerminateThread@8         1007856a f   kernel32:KERNEL32.dll
 0001:00077570       _Sleep@4                   10078570 f   kernel32:KERNEL32.dll
 0001:00077576       _SetThreadAffinityMask@8   10078576 f   kernel32:KERNEL32.dll
 0001:0007757c       _SetThreadPriority@8       1007857c f   kernel32:KERNEL32.dll
 0001:00077582       _TlsSetValue@8             10078582 f   kernel32:KERNEL32.dll
 0001:00077588       _QueryPerformanceFrequency@4 10078588 f   kernel32:KERNEL32.dll
 0001:0007758e       _QueryPerformanceCounter@4 1007858e f   kernel32:KERNEL32.dll
 0001:00077594       ??_U@YAPAXI@Z              10078594 f   libcpmt:newaop.obj
 0001:00077599       ??2@YAPAXI@Z               10078599 f   libcpmt:newop.obj
 0001:000775bd       ??0out_of_range@std@@QAE@ABV?$basic_string@DU?$char_traits@D@std@@V?$allocator@D@2@@1@@Z 100785bd f i libcpmt:string.obj
 0001:000775d5       ??_Gout_of_range@std@@UAEPAXI@Z 100785d5 f i libcpmt:string.obj
 0001:000775d5       ??_Eout_of_range@std@@UAEPAXI@Z 100785d5 f i libcpmt:string.obj
 0001:000775f1       ??1out_of_range@std@@UAE@XZ 100785f1 f i libcpmt:string.obj
 0001:000775fc       ?_Xran@_String_base@std@@QBEXXZ 100785fc f   libcpmt:string.obj
 0001:0007763c       ??0out_of_range@std@@QAE@ABV01@@Z 1007863c f i libcpmt:string.obj
 0001:00077654       ?_Xlen@_String_base@std@@QBEXXZ 10078654 f   libcpmt:string.obj
 0001:00077694       ??0bad_alloc@std@@QAE@PBD@Z 10078694 f i libcpmt:nomemory.obj
 0001:000776ad       ??1bad_alloc@std@@UAE@XZ   100786ad f i libcpmt:nomemory.obj
 0001:000776b8       ??_Gbad_alloc@std@@UAEPAXI@Z 100786b8 f i libcpmt:nomemory.obj
 0001:000776b8       ??_Ebad_alloc@std@@UAEPAXI@Z 100786b8 f i libcpmt:nomemory.obj
 0001:000776d4       ??0bad_alloc@std@@QAE@ABV01@@Z 100786d4 f i libcpmt:nomemory.obj
 0001:000776ec       ?_Nomemory@std@@YAXXZ      100786ec f   libcpmt:nomemory.obj
 0001:0007774d       __fpclear                  1007874d f   LIBCMT:fpinit.obj
 0001:0007774e       __cfltcvt_init             1007874e f   LIBCMT:fpinit.obj
 0001:00077786       ___setfflag                10078786 f   LIBCMT:fpinit.obj
 0001:00077796       __fpmath                   10078796 f   LIBCMT:fpinit.obj
 0001:000777b4       ?_JumpToContinuation@@YGXPAXPAUEHRegistrationNode@@@Z 100787b4 f   LIBCMT:trnsctrl.obj
 0001:000777e4       ?_CallMemberFunction0@@YGXPAX0@Z 100787e4 f   LIBCMT:trnsctrl.obj
 0001:000777eb       ?_CallMemberFunction1@@YGXPAX00@Z 100787eb f   LIBCMT:trnsctrl.obj
 0001:000777f2       ?_CallMemberFunction2@@YGXPAX00H@Z 100787f2 f   LIBCMT:trnsctrl.obj
 0001:000777f9       ?_UnwindNestedFrames@@YGXPAUEHRegistrationNode@@PAUEHExceptionRecord@@@Z 100787f9 f   LIBCMT:trnsctrl.obj
 0001:0007784b       ___CxxFrameHandler         1007884b f   LIBCMT:trnsctrl.obj
 0001:00077881       ___CxxLongjmpUnwind@4      10078881 f   LIBCMT:trnsctrl.obj
 0001:000778d6       ?_CallSETranslator@@YAHPAUEHExceptionRecord@@PAUEHRegistrationNode@@PAX2PBU_s_FuncInfo@@H1@Z 100788d6 f   LIBCMT:trnsctrl.obj
 0001:00077a4f       ?_GetRangeOfTrysToCheck@@YAPBU_s_TryBlockMapEntry@@PBU_s_FuncInfo@@HHPAI1@Z 10078a4f f   LIBCMT:trnsctrl.obj
 0001:00077ac9       ?_CreateFrameInfo@@YAPAUFrameInfo@@PAU1@PAX@Z 10078ac9 f   LIBCMT:trnsctrl.obj
 0001:00077af1       ?IsExceptionObjectToBeDestroyed@@YAHPAX@Z 10078af1 f   LIBCMT:trnsctrl.obj
 0001:00077b12       ?_FindAndUnlinkFrame@@YAXPAUFrameInfo@@@Z 10078b12 f   LIBCMT:trnsctrl.obj
 0001:00077b5e       ?_CallCatchBlock2@@YAPAXPAUEHRegistrationNode@@PBU_s_FuncInfo@@PAXHK@Z 10078b5e f   LIBCMT:trnsctrl.obj
 0001:00077bb8       __global_unwind2           10078bb8 f   LIBCMT:exsup.obj
 0001:00077bfa       __local_unwind2            10078bfa f   LIBCMT:exsup.obj
 0001:00077c52       __NLG_Return2              10078c52     LIBCMT:exsup.obj
 0001:00077c62       __abnormal_termination     10078c62 f   LIBCMT:exsup.obj
 0001:00077c85       __NLG_Notify1              10078c85 f   LIBCMT:exsup.obj
 0001:00077c8e       __NLG_Notify               10078c8e f   LIBCMT:exsup.obj
 0001:00077ca1       __NLG_Dispatch             10078ca1     LIBCMT:exsup.obj
 0001:00077ca6       ??_L@YGXPAXIHP6EX0@Z1@Z    10078ca6 f   LIBCMT:ehvecctr.obj
 0001:00077d1a       ?__ArrayUnwind@@YGXPAXIHP6EX0@Z@Z 10078d1a f   LIBCMT:ehvecdtr.obj
 0001:00077d78       ??_M@YGXPAXIHP6EX0@Z@Z     10078d78 f   LIBCMT:ehvecdtr.obj
 0001:00077de0       __CIasin                   10078de0 f   LIBCMT:asin.obj
 0001:00077df4       _asin                      10078df4     LIBCMT:asin.obj
 0001:00077eb0       __chkstk                   10078eb0 f   LIBCMT:chkstk.obj
 0001:00077eb0       __alloca_probe             10078eb0     LIBCMT:chkstk.obj
 0001:00077ef0       __ftol2                    10078ef0 f   LIBCMT:ftol2.obj
 0001:00077f70       _pow                       10078f70 f   LIBCMT:pow.obj
 0001:00077fb0       __CIpow                    10078fb0 f   LIBCMT:pow.obj
 0001:00077feb       __CIpow_default            10078feb f   LIBCMT:pow.obj
 0001:00078004       __pow_default              10079004     LIBCMT:pow.obj
 0001:000781fa       __copysign                 100791fa f   LIBCMT:ieeemisc.obj
 0001:0007821b       __chgsign                  1007921b f   LIBCMT:ieeemisc.obj
 0001:00078241       __scalb                    10079241 f   LIBCMT:ieeemisc.obj
 0001:00078257       __logb                     10079257 f   LIBCMT:ieeemisc.obj
 0001:00078342       __nextafter                10079342 f   LIBCMT:ieeemisc.obj
 0001:000785e5       __finite                   100795e5 f   LIBCMT:ieeemisc.obj
 0001:000785fa       __isnan                    100795fa f   LIBCMT:ieeemisc.obj
 0001:00078628       __fpclass                  10079628 f   LIBCMT:ieeemisc.obj
 0001:000786c4       __purecall                 100796c4 f   LIBCMT:purevirt.obj
 0001:000786d8       __set_purecall_handler     100796d8 f   LIBCMT:purevirt.obj
 0001:000786e8       ??3@YAXPAX@Z               100796e8 f   LIBCMT:delete.obj
 0001:0007871e       @__security_check_cookie@4 1007971e f   LIBCMT:secchk.obj
 0001:000787ac       ___onexitinit              100797ac f   LIBCMT:onexit.obj
 0001:000787d4       __onexit                   100797d4 f   LIBCMT:onexit.obj
 0001:0007880c       _atexit                    1007980c f   LIBCMT:onexit.obj
 0001:00078820       __CIacos                   10079820 f   LIBCMT:acos.obj
 0001:00078834       _acos                      10079834     LIBCMT:acos.obj
 0001:000788f0       _floor                     100798f0 f   LIBCMT:floor_pentium4.obj
 0001:00078930       __floor_pentium4           10079930 f   LIBCMT:floor_pentium4.obj
 0001:00078a11       _printf                    10079a11 f   LIBCMT:printf.obj
 0001:00078a77       __fclose_lk                10079a77 f   LIBCMT:fclose.obj
 0001:00078ac3       _fclose                    10079ac3 f   LIBCMT:fclose.obj
 0001:00078b14       _fprintf                   10079b14 f   LIBCMT:fprintf.obj
 0001:00078b72       __fsopen                   10079b72 f   LIBCMT:fopen.obj
 0001:00078bce       _fopen                     10079bce f   LIBCMT:fopen.obj
 0001:00078be1       __heap_alloc               10079be1 f   LIBCMT:malloc.obj
 0001:00078c5c       __nh_malloc                10079c5c f   LIBCMT:malloc.obj
 0001:00078c88       _malloc                    10079c88 f   LIBCMT:malloc.obj
 0001:00078c9a       _realloc                   10079c9a f   LIBCMT:realloc.obj
 0001:00078e47       _free                      10079e47 f   LIBCMT:free.obj
 0001:00078eb8       __vsnprintf                10079eb8 f   LIBCMT:vsnprint.obj
 0001:00078f10       __alldiv                   10079f10 f   LIBCMT:lldiv.obj
 0001:00078fc0       __aulldiv                  10079fc0 f   LIBCMT:ulldiv.obj
 0001:000790c0       _qsort                     1007a0c0 f   LIBCMT:qsort.obj
 0001:00079343       ??_V@YAXPAX@Z              1007a343 f   LIBCMT:delete2.obj
 0001:00079348       __ftell_lk                 1007a348 f   LIBCMT:ftell.obj
 0001:000794aa       _ftell                     1007a4aa f   LIBCMT:ftell.obj
 0001:000794eb       __fseek_lk                 1007a4eb f   LIBCMT:fseek.obj
 0001:0007957a       _fseek                     1007a57a f   LIBCMT:fseek.obj
 0001:000795c3       __fwrite_lk                1007a5c3 f   LIBCMT:fwrite.obj
 0001:000796ca       _fwrite                    1007a6ca f   LIBCMT:fwrite.obj
 0001:00079716       __fread_lk                 1007a716 f   LIBCMT:fread.obj
 0001:000797ff       _fread                     1007a7ff f   LIBCMT:fread.obj
 0001:0007984b       _sprintf                   1007a84b f   LIBCMT:sprintf.obj
 0001:000798a3       __scprintf                 1007a8a3 f   LIBCMT:sprintf.obj
 0001:000798d4       _srand                     1007a8d4 f   LIBCMT:rand.obj
 0001:000798e1       _rand                      1007a8e1 f   LIBCMT:rand.obj
 0001:00079910       _ceil                      1007a910 f   LIBCMT:ceil_pentium4.obj
 0001:00079950       __ceil_pentium4            1007a950 f   LIBCMT:ceil_pentium4.obj
 0001:00079a2d       __CRT_INIT@12              1007aa2d f   LIBCMT:dllcrt0.obj
 0001:00079bae       __DllMainCRTStartup@12     1007abae f   LIBCMT:dllcrt0.obj
 0001:00079c92       __amsg_exit                1007ac92 f   LIBCMT:dllcrt0.obj
 0001:00079cd0       _memmove                   1007acd0 f   LIBCMT:memmove.obj
 0001:0007a00d       __CxxThrowException@8      1007b00d f   LIBCMT:throw.obj
 0001:0007a047       ??0exception@@QAE@XZ       1007b047 f   LIBCMT:stdexcpt.obj
 0001:0007a058       ??0exception@@QAE@ABQBD@Z  1007b058 f   LIBCMT:stdexcpt.obj
 0001:0007a095       ??0exception@@QAE@ABV0@@Z  1007b095 f   LIBCMT:stdexcpt.obj
 0001:0007a0df       ??1exception@@UAE@XZ       1007b0df f   LIBCMT:stdexcpt.obj
 0001:0007a0f5       ?what@exception@@UBEPBDXZ  1007b0f5 f   LIBCMT:stdexcpt.obj
 0001:0007a102       ??0bad_cast@@QAE@PBD@Z     1007b102 f   LIBCMT:stdexcpt.obj
 0001:0007a11b       ??0bad_cast@@QAE@ABV0@@Z   1007b11b f   LIBCMT:stdexcpt.obj
 0001:0007a133       ??1bad_cast@@UAE@XZ        1007b133 f   LIBCMT:stdexcpt.obj
 0001:0007a13e       ??0bad_typeid@@QAE@PBD@Z   1007b13e f   LIBCMT:stdexcpt.obj
 0001:0007a157       ??0bad_typeid@@QAE@ABV0@@Z 1007b157 f   LIBCMT:stdexcpt.obj
 0001:0007a16f       ??1bad_typeid@@UAE@XZ      1007b16f f   LIBCMT:stdexcpt.obj
 0001:0007a17a       ??0__non_rtti_object@@QAE@PBD@Z 1007b17a f   LIBCMT:stdexcpt.obj
 0001:0007a192       ??0__non_rtti_object@@QAE@ABV0@@Z 1007b192 f   LIBCMT:stdexcpt.obj
 0001:0007a1aa       ??1__non_rtti_object@@UAE@XZ 1007b1aa f   LIBCMT:stdexcpt.obj
 0001:0007a1b5       ??_Gexception@@UAEPAXI@Z   1007b1b5 f i LIBCMT:stdexcpt.obj
 0001:0007a1b5       ??_Eexception@@UAEPAXI@Z   1007b1b5 f i LIBCMT:stdexcpt.obj
 0001:0007a1d1       ??4exception@@QAEAAV0@ABV0@@Z 1007b1d1 f   LIBCMT:stdexcpt.obj
 0001:0007a1f0       ??_Gbad_cast@@UAEPAXI@Z    1007b1f0 f i LIBCMT:stdexcpt.obj
 0001:0007a1f0       ??_Ebad_cast@@UAEPAXI@Z    1007b1f0 f i LIBCMT:stdexcpt.obj
 0001:0007a20c       ??_Ebad_typeid@@UAEPAXI@Z  1007b20c f i LIBCMT:stdexcpt.obj
 0001:0007a20c       ??_Gbad_typeid@@UAEPAXI@Z  1007b20c f i LIBCMT:stdexcpt.obj
 0001:0007a228       ??_G__non_rtti_object@@UAEPAXI@Z 1007b228 f i LIBCMT:stdexcpt.obj
 0001:0007a228       ??_E__non_rtti_object@@UAEPAXI@Z 1007b228 f i LIBCMT:stdexcpt.obj
 0001:0007a244       ??1type_info@@UAE@XZ       1007b244 f   LIBCMT:typinfo.obj
 0001:0007a28a       ??_Etype_info@@UAEPAXI@Z   1007b28a f i LIBCMT:typinfo.obj
 0001:0007a28a       ??_Gtype_info@@UAEPAXI@Z   1007b28a f i LIBCMT:typinfo.obj
 0001:0007a2a6       ??8type_info@@QBEHABV0@@Z  1007b2a6 f   LIBCMT:typinfo.obj
 0001:0007a2c1       ??9type_info@@QBEHABV0@@Z  1007b2c1 f   LIBCMT:typinfo.obj
 0001:0007a2dd       ?before@type_info@@QBEHABV1@@Z 1007b2dd f   LIBCMT:typinfo.obj
 0001:0007a2fc       ?raw_name@type_info@@QBEPBDXZ 1007b2fc f   LIBCMT:typinfo.obj
 0001:0007a300       ??0type_info@@AAE@ABV0@@Z  1007b300 f   LIBCMT:typinfo.obj
 0001:0007a30b       ??4type_info@@AAEAAV0@ABV0@@Z 1007b30b f   LIBCMT:typinfo.obj
 0001:0007a310       ?_set_new_handler@@YAP6AHI@ZP6AHI@Z@Z 1007b310 f   LIBCMT:handler.obj
 0001:0007a334       ?_query_new_handler@@YAP6AHI@ZXZ 1007b334 f   LIBCMT:handler.obj
 0001:0007a33a       __callnewh                 1007b33a f   LIBCMT:handler.obj
 0001:0007a360       _strlen                    1007b360 f   LIBCMT:strlen.obj
 0001:0007a3f0       _memcpy                    1007b3f0 f   LIBCMT:memcpy.obj
 0001:0007a730       __EH_prolog                1007b730 f   LIBCMT:ehprolog.obj
 0001:0007a74f       __forcdecpt                1007b74f f   LIBCMT:cvt.obj
 0001:0007a78b       __cropzeros                1007b78b f   LIBCMT:cvt.obj
 0001:0007a7d6       __positive                 1007b7d6 f   LIBCMT:cvt.obj
 0001:0007a7f0       __fassign                  1007b7f0 f   LIBCMT:cvt.obj
 0001:0007a8f9       __cftoe                    1007b8f9 f   LIBCMT:cvt.obj
 0001:0007aa01       __cftof                    1007ba01 f   LIBCMT:cvt.obj
 0001:0007aa63       __cftog                    1007ba63 f   LIBCMT:cvt.obj
 0001:0007aafd       __cfltcvt                  1007bafd f   LIBCMT:cvt.obj
 0001:0007ab4e       __setdefaultprecision      1007bb4e f   LIBCMT:fp8.obj
 0001:0007ab60       __ms_p5_test_fdiv          1007bb60 f   LIBCMT:testfdiv.obj
 0001:0007aba0       __ms_p5_mp_test_fdiv       1007bba0 f   LIBCMT:testfdiv.obj
 0001:0007ac36       ___FrameUnwindToState      1007bc36 f   LIBCMT:frame.obj
 0001:0007ad34       ___DestructExceptionObject 1007bd34 f   LIBCMT:frame.obj
 0001:0007ad98       ?__uncaught_exception@@YA_NXZ 1007bd98 f   LIBCMT:frame.obj
 0001:0007adab       ___CxxRegisterExceptionObject 1007bdab f   LIBCMT:frame.obj
 0001:0007ae4e       ___CxxDetectRethrow        1007be4e f   LIBCMT:frame.obj
 0001:0007ae86       ___CxxUnregisterExceptionObject 1007be86 f   LIBCMT:frame.obj
 0001:0007af24       ___CxxQueryExceptionSize   1007bf24 f   LIBCMT:frame.obj
 0001:0007af28       ___CxxCallUnwindDtor       1007bf28 f   LIBCMT:frame.obj
 0001:0007af56       ___CxxCallUnwindVecDtor    1007bf56 f   LIBCMT:frame.obj
 0001:0007b2cd       ___CxxExceptionFilter      1007c2cd f   LIBCMT:frame.obj
 0001:0007b71b       ___InternalCxxFrameHandler 1007c71b f   LIBCMT:frame.obj
 0001:0007b7bd       ___crtTlsAlloc@4           1007c7bd f   LIBCMT:tidtable.obj
 0001:0007b7c6       __mtterm                   1007c7c6 f   LIBCMT:tidtable.obj
 0001:0007b7e3       __initptd                  1007c7e3 f   LIBCMT:tidtable.obj
 0001:0007b7f6       __getptd                   1007c7f6 f   LIBCMT:tidtable.obj
 0001:0007b867       __freefls@4                1007c867 f   LIBCMT:tidtable.obj
 0001:0007b9ae       __freeptd                  1007c9ae f   LIBCMT:tidtable.obj
 0001:0007b9dd       ___threadid                1007c9dd f   LIBCMT:tidtable.obj
 0001:0007b9e3       ___threadhandle            1007c9e3 f   LIBCMT:tidtable.obj
 0001:0007b9e9       __mtinit                   1007c9e9 f   LIBCMT:tidtable.obj
 0001:0007bad8       ?terminate@@YAXXZ          1007cad8 f   LIBCMT:hooks.obj
 0001:0007bb0d       ?unexpected@@YAXXZ         1007cb0d f   LIBCMT:hooks.obj
 0001:0007bb25       ?_inconsistency@@YAXXZ     1007cb25 f   LIBCMT:hooks.obj
 0001:0007bb60       __CallSettingFrame@12      1007cb60 f   LIBCMT:lowhelpr.obj
 0001:0007bb87       __NLG_Return               1007cb87     LIBCMT:lowhelpr.obj
 0001:0007bbac       __SEH_prolog               1007cbac f   LIBCMT:sehprolg.obj
 0001:0007bbe7       __SEH_epilog               1007cbe7 f   LIBCMT:sehprolg.obj
 0001:0007bc00       __except_handler3          1007cc00 f   LIBCMT:exsup3.obj
 0001:0007bce6       __seh_longjmp_unwind@4     1007cce6 f   LIBCMT:exsup3.obj
 0001:0007bd10       __trandisp1                1007cd10 f   LIBCMT:87disp.obj
 0001:0007bd77       __trandisp2                1007cd77 f   LIBCMT:87disp.obj
 0001:0007be03       __rttospopde               1007ce03     LIBCMT:87disp.obj
 0001:0007be08       __rttospop                 1007ce08     LIBCMT:87disp.obj
 0001:0007be0a       __rtnospop                 1007ce0a     LIBCMT:87disp.obj
 0001:0007be0c       __rttosnpop                1007ce0c     LIBCMT:87disp.obj
 0001:0007be0d       __rtnospopde               1007ce0d     LIBCMT:87disp.obj
 0001:0007be14       __rtzeropop                1007ce14     LIBCMT:87disp.obj
 0001:0007be16       __rtzeronpop               1007ce16     LIBCMT:87disp.obj
 0001:0007be1b       __rtonepop                 1007ce1b     LIBCMT:87disp.obj
 0001:0007be1d       __rtonenpop                1007ce1d     LIBCMT:87disp.obj
 0001:0007be22       __tosnan1                  1007ce22     LIBCMT:87disp.obj
 0001:0007be4d       __nosnan2                  1007ce4d     LIBCMT:87disp.obj
 0001:0007be4f       __tosnan2                  1007ce4f     LIBCMT:87disp.obj
 0001:0007be77       __nan2                     1007ce77     LIBCMT:87disp.obj
 0001:0007beb6       __rtindfpop                1007ceb6     LIBCMT:87disp.obj
 0001:0007beb8       __rtindfnpop               1007ceb8     LIBCMT:87disp.obj
 0001:0007bec9       __rttosnpopde              1007cec9     LIBCMT:87disp.obj
 0001:0007bed3       __rtchsifneg               1007ced3     LIBCMT:87disp.obj
 0001:0007bee0       __startTwoArgErrorHandling 1007cee0 f   LIBCMT:genexcep.obj
 0001:0007bef7       __startOneArgErrorHandling 1007cef7 f   LIBCMT:genexcep.obj
 0001:0007bf40       __twoToTOS                 1007cf40 f   LIBCMT:common.obj
 0001:0007bf55       __load_CW                  1007cf55 f   LIBCMT:common.obj
 0001:0007bf6c       __convertTOStoQNaN         1007cf6c f   LIBCMT:common.obj
 0001:0007bf85       __fload_withFB             1007cf85 f   LIBCMT:common.obj
 0001:0007bfc8       __checkTOS_withFB          1007cfc8 f   LIBCMT:common.obj
 0001:0007bfde       __fast_exit                1007cfde f   LIBCMT:common.obj
 0001:0007bfeb       __math_exit                1007cfeb f   LIBCMT:common.obj
 0001:0007c015       __check_overflow_exit      1007d015 f   LIBCMT:common.obj
 0001:0007c029       __check_range_exit         1007d029 f   LIBCMT:common.obj
 0001:0007c101       ___sse2_available_init     1007d101 f   LIBCMT:cpu_disp.obj
 0001:0007c1cf       __set_SSE2_enable          1007d1cf f   LIBCMT:cpu_disp.obj
 0001:0007c1f0       __CIpow_pentium4           1007d1f0 f   LIBCMT:pow_pentium4.obj
 0001:0007c209       __pow_pentium4             1007d209     LIBCMT:pow_pentium4.obj
 0001:0007cd51       __fFEXP                    1007dd51     LIBCMT:87tran.obj
 0001:0007cdb8       __rtinfpopse               1007ddb8     LIBCMT:87tran.obj
 0001:0007cdba       __rtinfnpopse              1007ddba     LIBCMT:87tran.obj
 0001:0007cdca       __fFLN                     1007ddca     LIBCMT:87tran.obj
 0001:0007ce7f       __rtinfpop                 1007de7f     LIBCMT:87tran.obj
 0001:0007ce81       __rtinfnpop                1007de81     LIBCMT:87tran.obj
 0001:0007ce9e       __ffexpm1                  1007de9e     LIBCMT:87tran.obj
 0001:0007cf47       __d_inttype                1007df47 f   LIBCMT:powhlp.obj
 0001:0007cfb5       __powhlp                   1007dfb5 f   LIBCMT:powhlp.obj
 0001:0007d117       _ldexp                     1007e117 f   LIBCMT:ldexp.obj
 0001:0007d302       __set_exp                  1007e302 f   LIBCMT:util.obj
 0001:0007d32c       __get_exp                  1007e32c f   LIBCMT:util.obj
 0001:0007d341       __add_exp                  1007e341 f   LIBCMT:util.obj
 0001:0007d36b       __set_bexp                 1007e36b f   LIBCMT:util.obj
 0001:0007d390       __sptype                   1007e390 f   LIBCMT:util.obj
 0001:0007d3eb       __decomp                   1007e3eb f   LIBCMT:util.obj
 0001:0007d4a7       __raise_exc                1007e4a7 f   LIBCMT:fpexcept.obj
 0001:0007d74c       __handle_exc               1007e74c f   LIBCMT:fpexcept.obj
 0001:0007d970       __set_errno                1007e970 f   LIBCMT:fpexcept.obj
 0001:0007d9b8       __errcode                  1007e9b8 f   LIBCMT:fpexcept.obj
 0001:0007d9e5       __umatherr                 1007e9e5 f   LIBCMT:fpexcept.obj
 0001:0007da83       __handle_qnan1             1007ea83 f   LIBCMT:fpexcept.obj
 0001:0007dad6       __handle_qnan2             1007ead6 f   LIBCMT:fpexcept.obj
 0001:0007db35       __except1                  1007eb35 f   LIBCMT:fpexcept.obj
 0001:0007dbed       __except2                  1007ebed f   LIBCMT:fpexcept.obj
 0001:0007dcb6       __statfp                   1007ecb6 f   LIBCMT:fpctrl.obj
 0001:0007dcc1       __clrfp                    1007ecc1 f   LIBCMT:fpctrl.obj
 0001:0007dccd       __ctrlfp                   1007eccd f   LIBCMT:fpctrl.obj
 0001:0007dcf1       __set_statfp               1007ecf1 f   LIBCMT:fpctrl.obj
 0001:0007dd47       ___security_init_cookie    1007ed47 f   LIBCMT:seccinit.obj
 0001:0007ddad       ___security_error_handler  1007edad f   LIBCMT:secfail.obj
 0001:0007def5       __set_security_error_handler 1007eef5 f   LIBCMT:secfail.obj
 0001:0007df05       ___buffer_overrun          1007ef05 f   LIBCMT:secfail.obj
 0001:0007df11       ___set_buffer_overrun_handler 1007ef11 f   LIBCMT:secfail.obj
 0001:0007df21       ___crtExitProcess          1007ef21 f   LIBCMT:crt0dat.obj
 0001:0007df51       __lockexit                 1007ef51 f   LIBCMT:crt0dat.obj
 0001:0007df5a       __unlockexit               1007ef5a f   LIBCMT:crt0dat.obj
 0001:0007df99       __cinit                    1007ef99 f   LIBCMT:crt0dat.obj
 0001:0007e0c6       _exit                      1007f0c6 f   LIBCMT:crt0dat.obj
 0001:0007e0d7       __exit                     1007f0d7 f   LIBCMT:crt0dat.obj
 0001:0007e0e8       __cexit                    1007f0e8 f   LIBCMT:crt0dat.obj
 0001:0007e0f7       __c_exit                   1007f0f7 f   LIBCMT:crt0dat.obj
 0001:0007e106       __msize                    1007f106 f   LIBCMT:msize.obj
 0001:0007e17c       ___libm_error_support      1007f17c f   LIBCMT:libm_error.obj
 0001:0007e40a       __floor_default            1007f40a f   LIBCMT:floor.obj
 0001:0007e4dd       ___iob_func                1007f4dd f   LIBCMT:_file.obj
 0001:0007e4e3       ___initstdio               1007f4e3 f   LIBCMT:_file.obj
 0001:0007e58c       ___endstdio                1007f58c f   LIBCMT:_file.obj
 0001:0007e5a0       __lock_file                1007f5a0 f   LIBCMT:_file.obj
 0001:0007e5cf       __lock_file2               1007f5cf f   LIBCMT:_file.obj
 0001:0007e5f2       __unlock_file              1007f5f2 f   LIBCMT:_file.obj
 0001:0007e621       __unlock_file2             1007f621 f   LIBCMT:_file.obj
 0001:0007e644       __stbuf                    1007f644 f   LIBCMT:_sftbuf.obj
 0001:0007e6cc       __ftbuf                    1007f6cc f   LIBCMT:_sftbuf.obj
 0001:0007e7a3       __output                   1007f7a3 f   LIBCMT:output.obj
 0001:0007ef9d       __close_lk                 1007ff9d f   LIBCMT:close.obj
 0001:0007f020       __close                    10080020 f   LIBCMT:close.obj
 0001:0007f0bb       __freebuf                  100800bb f   LIBCMT:_freebuf.obj
 0001:0007f0e6       __flush                    100800e6 f   LIBCMT:fflush.obj
 0001:0007f143       __fflush_lk                10080143 f   LIBCMT:fflush.obj
 0001:0007f246       _fflush                    10080246 f   LIBCMT:fflush.obj
 0001:0007f296       __flushall                 10080296 f   LIBCMT:fflush.obj
 0001:0007f29f       __openfile                 1008029f f   LIBCMT:_open.obj
 0001:0007f407       __errno                    10080407 f   LIBCMT:dosmap.obj
 0001:0007f410       ___doserrno                10080410 f   LIBCMT:dosmap.obj
 0001:0007f419       __dosmaperr                10080419 f   LIBCMT:dosmap.obj
 0001:0007f48c       __getstream                1008048c f   LIBCMT:stream.obj
 0001:0007f5ae       __mtinitlocks              100805ae f   LIBCMT:mlock.obj
 0001:0007f5f7       __mtdeletelocks            100805f7 f   LIBCMT:mlock.obj
 0001:0007f64c       __unlock                   1008064c f   LIBCMT:mlock.obj
 0001:0007f661       __lockerr_exit             10080661 f   LIBCMT:mlock.obj
 0001:0007f679       __mtinitlocknum            10080679 f   LIBCMT:mlock.obj
 0001:0007f719       __lock                     10080719 f   LIBCMT:mlock.obj
 0001:0007f74a       ___heap_select             1008074a f   LIBCMT:heapinit.obj
 0001:0007f764       __heap_init                10080764 f   LIBCMT:heapinit.obj
 0001:0007f7b5       __heap_term                100807b5 f   LIBCMT:heapinit.obj
 0001:0007f834       __get_heap_handle          10080834 f   LIBCMT:heapinit.obj
 0001:0007f83a       __get_sbh_threshold        1008083a f   LIBCMT:sbheap.obj
 0001:0007f84f       ___sbh_heap_init           1008084f f   LIBCMT:sbheap.obj
 0001:0007f897       ___sbh_find_block          10080897 f   LIBCMT:sbheap.obj
 0001:0007f8c2       ___sbh_free_block          100808c2 f   LIBCMT:sbheap.obj
 0001:0007fbda       ___sbh_alloc_new_region    10080bda f   LIBCMT:sbheap.obj
 0001:0007fc91       ___sbh_alloc_new_group     10080c91 f   LIBCMT:sbheap.obj
 0001:0007fd97       ___sbh_resize_block        10080d97 f   LIBCMT:sbheap.obj
 0001:00080076       ___sbh_heapmin             10081076 f   LIBCMT:sbheap.obj
 0001:00080147       ___sbh_heap_check          10081147 f   LIBCMT:sbheap.obj
 0001:00080460       __set_sbh_threshold        10081460 f   LIBCMT:sbheap.obj
 0001:000804bb       ___sbh_alloc_block         100814bb f   LIBCMT:sbheap.obj
 0001:000807b7       __flsbuf                   100817b7 f   LIBCMT:_flsbuf.obj
 0001:000808d0       __ioinit                   100818d0 f   LIBCMT:ioinit.obj
 0001:00080ace       __ioterm                   10081ace f   LIBCMT:ioinit.obj
 0001:00080b1a       __lseek_lk                 10081b1a f   LIBCMT:lseek.obj
 0001:00080b8e       __lseek                    10081b8e f   LIBCMT:lseek.obj
 0001:00080c39       __write_lk                 10081c39 f   LIBCMT:write.obj
 0001:00080e07       __write                    10081e07 f   LIBCMT:write.obj
 0001:00080eb2       __filbuf                   10081eb2 f   LIBCMT:_filbuf.obj
 0001:00080f93       __read_lk                  10081f93 f   LIBCMT:read.obj
 0001:0008116e       __read                     1008216e f   LIBCMT:read.obj
 0001:00081219       __ceil_default             10082219 f   LIBCMT:ceil.obj
 0001:000812ec       _calloc                    100822ec f   LIBCMT:calloc.obj
 0001:000813a7       __setenvp                  100823a7 f   LIBCMT:stdenvp.obj
 0001:000815da       __setargv                  100825da f   LIBCMT:stdargv.obj
 0001:0008167c       ___crtGetEnvironmentStringsA 1008267c f   LIBCMT:a_env.obj
 0001:0008179e       __RTC_Initialize           1008279e f   LIBCMT:initsect.obj
 0001:000817e2       __RTC_Terminate            100827e2 f   LIBCMT:initsect.obj
 0001:00081852       __XcptFilter               10082852 f   LIBCMT:winxfltr.obj
 0001:000819b6       ___CppXcptFilter           100829b6 f   LIBCMT:winxfltr.obj
 0001:000819d1       _DllMain@12                100829d1 f   LIBCMT:dllmain.obj
 0001:000819d7       __NMSG_WRITE               100829d7 f   LIBCMT:crt0msg.obj
 0001:00081b4e       __GET_RTERRMSG             10082b4e f   LIBCMT:crt0msg.obj
 0001:00081b78       __FF_MSGBANNER             10082b78 f   LIBCMT:crt0msg.obj
 0001:00081bb1       ?__CxxUnhandledExceptionFilter@@YGJPAU_EXCEPTION_POINTERS@@@Z 10082bb1 f   LIBCMT:unhandld.obj
 0001:00081bff       ?__CxxSetUnhandledExceptionFilter@@YAHXZ 10082bff f   LIBCMT:unhandld.obj
 0001:00081c12       ?__CxxRestoreUnhandledExceptionFilter@@YAXXZ 10082c12 f   LIBCMT:unhandld.obj
 0001:00081c20       _strcpy                    10082c20 f   LIBCMT:strcat.obj
 0001:00081c30       _strcat                    10082c30 f   LIBCMT:strcat.obj
 0001:00081d20       _strcmp                    10082d20 f   LIBCMT:strcmp.obj
 0001:00081da8       _isalpha                   10082da8 f   LIBCMT:_ctype.obj
 0001:00081de7       _isupper                   10082de7 f   LIBCMT:_ctype.obj
 0001:00081e21       _islower                   10082e21 f   LIBCMT:_ctype.obj
 0001:00081e5b       _isdigit                   10082e5b f   LIBCMT:_ctype.obj
 0001:00081e95       _isxdigit                  10082e95 f   LIBCMT:_ctype.obj
 0001:00081ed4       _isspace                   10082ed4 f   LIBCMT:_ctype.obj
 0001:00081f0e       _ispunct                   10082f0e f   LIBCMT:_ctype.obj
 0001:00081f48       _isalnum                   10082f48 f   LIBCMT:_ctype.obj
 0001:00081f87       _isprint                   10082f87 f   LIBCMT:_ctype.obj
 0001:00081fc6       _isgraph                   10082fc6 f   LIBCMT:_ctype.obj
 0001:00082005       _iscntrl                   10083005 f   LIBCMT:_ctype.obj
 0001:0008203f       ___isascii                 1008303f f   LIBCMT:_ctype.obj
 0001:0008204c       ___toascii                 1008304c f   LIBCMT:_ctype.obj
 0001:00082054       ___iscsymf                 10083054 f   LIBCMT:_ctype.obj
 0001:0008206e       ___iscsym                  1008306e f   LIBCMT:_ctype.obj
 0001:00082088       __tolower                  10083088 f   LIBCMT:tolower.obj
 0001:00082090       ___tolower_mt              10083090 f   LIBCMT:tolower.obj
 0001:00082158       _tolower                   10083158 f   LIBCMT:tolower.obj
 0001:0008217a       __ZeroTail                 1008317a f   LIBCMT:intrncvt.obj
 0001:000821ac       __IncMan                   100831ac f   LIBCMT:intrncvt.obj
 0001:000821f9       __RoundMan                 100831f9 f   LIBCMT:intrncvt.obj
 0001:0008226b       __CopyMan                  1008326b f   LIBCMT:intrncvt.obj
 0001:00082286       __FillZeroMan              10083286 f   LIBCMT:intrncvt.obj
 0001:00082292       __IsZeroMan                10083292 f   LIBCMT:intrncvt.obj
 0001:000822ab       __ShrMan                   100832ab f   LIBCMT:intrncvt.obj
 0001:00082326       __ld12cvt                  10083326 f   LIBCMT:intrncvt.obj
 0001:0008247e       __ld12tod                  1008347e f   LIBCMT:intrncvt.obj
 0001:00082494       __ld12tof                  10083494 f   LIBCMT:intrncvt.obj
 0001:000824aa       __ld12told                 100834aa f   LIBCMT:intrncvt.obj
 0001:00082526       __atodbl                   10083526 f   LIBCMT:intrncvt.obj
 0001:00082563       __atoldbl                  10083563 f   LIBCMT:intrncvt.obj
 0001:000825a1       __atoflt                   100835a1 f   LIBCMT:intrncvt.obj
 0001:000825de       __fptostr                  100835de f   LIBCMT:_fptostr.obj
 0001:00082655       ___dtold                   10083655 f   LIBCMT:cfout.obj
 0001:0008270f       __fltout2                  1008370f f   LIBCMT:cfout.obj
 0001:00082780       _memset                    10083780 f   LIBCMT:memset.obj
 0001:000827e0       __fptrap                   100837e0 f   LIBCMT:crt0fp.obj
 0001:000827e9       __fpreset                  100837e9 f   LIBCMT:ieee87.obj
 0001:0008296d       __statusfp                 1008396d f   LIBCMT:ieee87.obj
 0001:0008297d       __clearfp                  1008397d f   LIBCMT:ieee87.obj
 0001:0008298e       __control87                1008398e f   LIBCMT:ieee87.obj
 0001:000829c0       __controlfp                100839c0 f   LIBCMT:ieee87.obj
 0001:000829d6       ?_ValidateRead@@YAHPBXI@Z  100839d6 f   LIBCMT:validate.obj
 0001:000829f2       ?_ValidateWrite@@YAHPAXI@Z 100839f2 f   LIBCMT:validate.obj
 0001:00082a0e       ?_ValidateExecute@@YAHP6GHXZ@Z 10083a0e f   LIBCMT:validate.obj
 0001:00082a26       ____setlc_active_func      10083a26 f   LIBCMT:setlocal.obj
 0001:00082a2c       ____unguarded_readlc_active_add_func 10083a2c f   LIBCMT:setlocal.obj
 0001:00082a32       ___freetlocinfo            10083a32 f   LIBCMT:setlocal.obj
 0001:00082bc3       ___init_dummy              10083bc3 f   LIBCMT:setlocal.obj
 0001:00082bc6       __strcats                  10083bc6 f   LIBCMT:setlocal.obj
 0001:00082bea       ___lc_strtolc              10083bea f   LIBCMT:setlocal.obj
 0001:00082cc6       ___lc_lctostr              10083cc6 f   LIBCMT:setlocal.obj
 0001:00082d14       ___updatetlocinfo          10083d14 f   LIBCMT:setlocal.obj
 0001:00082e0e       __expandlocale             10083e0e f   LIBCMT:setlocal.obj
 0001:000833d2       _setlocale                 100843d2 f   LIBCMT:setlocal.obj
 0001:00083756       ___updatetmbcinfo          10084756 f   LIBCMT:mbctype.obj
 0001:00083955       __getmbcp                  10084955 f   LIBCMT:mbctype.obj
 0001:00083965       __setmbcp                  10084965 f   LIBCMT:mbctype.obj
 0001:00083ab5       ___initmbctable            10084ab5 f   LIBCMT:mbctype.obj
 0001:00083ad3       _abort                     10084ad3 f   LIBCMT:abort.obj
 0001:00083aeb       __ValidateEH3RN            10084aeb f   LIBCMT:eh3valid.obj
 0001:00083d14       __87except                 10084d14 f   LIBCMT:87except.obj
 0001:00083e10       _strncmp                   10084e10 f   LIBCMT:strncmp.obj
 0001:00083e50       _fdiv_main_routine         10084e50 f   LIBCMT:adj_fdiv.obj
 0001:00083f67       __adj_fdiv_r               10084f67 f   LIBCMT:adj_fdiv.obj
 0001:00084406       __fdivp_sti_st             10085406 f   LIBCMT:adj_fdiv.obj
 0001:00084419       __fdivrp_sti_st            10085419 f   LIBCMT:adj_fdiv.obj
 0001:0008442c       __adj_fdiv_m32             1008542c f   LIBCMT:adj_fdiv.obj
 0001:00084478       __adj_fdiv_m64             10085478 f   LIBCMT:adj_fdiv.obj
 0001:000844c4       __adj_fdiv_m16i            100854c4 f   LIBCMT:adj_fdiv.obj
 0001:000844f8       __adj_fdiv_m32i            100854f8 f   LIBCMT:adj_fdiv.obj
 0001:0008452c       __adj_fdivr_m32            1008552c f   LIBCMT:adj_fdiv.obj
 0001:00084578       __adj_fdivr_m64            10085578 f   LIBCMT:adj_fdiv.obj
 0001:000845c4       __adj_fdivr_m16i           100855c4 f   LIBCMT:adj_fdiv.obj
 0001:000845f8       __adj_fdivr_m32i           100855f8 f   LIBCMT:adj_fdiv.obj
 0001:0008462c       __safe_fdiv                1008562c f   LIBCMT:adj_fdiv.obj
 0001:00084641       __safe_fdivr               10085641 f   LIBCMT:adj_fdiv.obj
 0001:00084656       __fprem_common             10085656 f   LIBCMT:adj_fdiv.obj
 0001:0008485c       __adj_fprem                1008585c f   LIBCMT:adj_fdiv.obj
 0001:0008490e       __fprem1_common            1008590e f   LIBCMT:adj_fdiv.obj
 0001:00084b14       __adj_fprem1               10085b14 f   LIBCMT:adj_fdiv.obj
 0001:00084bc9       __safe_fprem               10085bc9 f   LIBCMT:adj_fdiv.obj
 0001:00084bcf       __safe_fprem1              10085bcf f   LIBCMT:adj_fdiv.obj
 0001:00084bd5       __adj_fpatan               10085bd5 f   LIBCMT:adj_fdiv.obj
 0001:00084bd8       __adj_fptan                10085bd8 f   LIBCMT:adj_fdiv.obj
 0001:00084bdb       __frnd                     10085bdb f   LIBCMT:frnd.obj
 0001:00084bec       __matherr                  10085bec f   LIBCMT:matherr.obj
 0001:00084bef       ___crtMessageBoxA          10085bef f   LIBCMT:crtmbox.obj
 0001:00084cf0       _strncpy                   10085cf0 f   LIBCMT:strncpy.obj
 0001:00084e14       __fcloseall                10085e14 f   LIBCMT:closeall.obj
 0001:00084eaf       __isatty                   10085eaf f   LIBCMT:isatty.obj
 0001:00084ed9       ___wctomb_mt               10085ed9 f   LIBCMT:wctomb.obj
 0001:00084f39       _wctomb                    10085f39 f   LIBCMT:wctomb.obj
 0001:00084f60       ___pwctype_func            10085f60 f   LIBCMT:ctype.obj
 0001:00084f66       ___pctype_func             10085f66 f   LIBCMT:ctype.obj
 0001:00084f70       __aulldvrm                 10085f70 f   LIBCMT:ulldvrm.obj
 0001:00085005       __set_osfhnd               10086005 f   LIBCMT:osfinfo.obj
 0001:00085081       __free_osfhnd              10086081 f   LIBCMT:osfinfo.obj
 0001:00085100       __get_osfhandle            10086100 f   LIBCMT:osfinfo.obj
 0001:00085141       __lock_fhandle             10086141 f   LIBCMT:osfinfo.obj
 0001:000851e1       __unlock_fhandle           100861e1 f   LIBCMT:osfinfo.obj
 0001:00085203       __alloc_osfhnd             10086203 f   LIBCMT:osfinfo.obj
 0001:0008537f       __open_osfhandle           1008637f f   LIBCMT:osfinfo.obj
 0001:00085446       __commit                   10086446 f   LIBCMT:commit.obj
 0001:000857e9       __open                     100867e9 f   LIBCMT:open.obj
 0001:0008583e       __sopen                    1008683e f   LIBCMT:open.obj
 0001:000858a3       ___crtInitCritSecAndSpinCount 100868a3 f   LIBCMT:initcrit.obj
 0001:0008592e       __getbuf                   1008692e f   LIBCMT:_getbuf.obj
 0001:00085972       __lseeki64_lk              10086972 f   LIBCMT:lseeki64.obj
 0001:000859f5       __lseeki64                 100869f5 f   LIBCMT:lseeki64.obj
 0001:00085ab3       ___isctype_mt              10086ab3 f   LIBCMT:isctype.obj
 0001:00085b2a       __isctype                  10086b2a f   LIBCMT:isctype.obj
 0001:00085b6d       ___crtLCMapStringA         10086b6d f   LIBCMT:a_map.obj
 0001:00085f29       ___addl                    10086f29 f   LIBCMT:mantold.obj
 0001:00085f4a       ___add_12                  10086f4a f   LIBCMT:mantold.obj
 0001:00085fa8       ___shl_12                  10086fa8 f   LIBCMT:mantold.obj
 0001:00085fd6       ___shr_12                  10086fd6 f   LIBCMT:mantold.obj
 0001:00086003       ___mtold12                 10087003 f   LIBCMT:mantold.obj
 0001:000860e1       ___strgtold12              100870e1 f   LIBCMT:strgtold.obj
 0001:00086515       ___STRINGTOLD              10087515 f   LIBCMT:strgtold.obj
 0001:00086561       _$I10_OUTPUT               10087561 f   LIBCMT:x10fout.obj
 0001:000868ac       ___fpecode                 100878ac f   LIBCMT:winsig.obj
 0001:000868b5       ___pxcptinfoptrs           100878b5 f   LIBCMT:winsig.obj
 0001:000868be       _signal                    100878be f   LIBCMT:winsig.obj
 0001:00086a5f       _raise                     10087a5f f   LIBCMT:winsig.obj
 0001:00086bd8       __Getdays                  10087bd8 f   LIBCMT:strftime.obj
 0001:00086c57       __Getmonths                10087c57 f   LIBCMT:strftime.obj
 0001:00086cec       __Gettnames                10087cec f   LIBCMT:strftime.obj
 0001:000876de       __Strftime_mt              100886de f   LIBCMT:strftime.obj
 0001:000877a3       __Strftime                 100887a3 f   LIBCMT:strftime.obj
 0001:000877d5       _strftime                  100887d5 f   LIBCMT:strftime.obj
 0001:000877f0       _localeconv                100887f0 f   LIBCMT:lconv.obj
 0001:00087b5d       ___free_lc_time            10088b5d f   LIBCMT:inittime.obj
 0001:00087ced       ___init_time               10088ced f   LIBCMT:inittime.obj
 0001:00087d7f       ___free_lconv_num          10088d7f f   LIBCMT:initnum.obj
 0001:00087dde       ___init_numeric            10088dde f   LIBCMT:initnum.obj
 0001:00087fde       ___free_lconv_mon          10088fde f   LIBCMT:initmon.obj
 0001:000880b7       ___init_monetary           100890b7 f   LIBCMT:initmon.obj
 0001:000882f6       ___init_ctype              100892f6 f   LIBCMT:initctyp.obj
 0001:000884e0       ____mb_cur_max_func        100894e0 f   LIBCMT:initctyp.obj
 0001:000884e6       ____lc_codepage_func       100894e6 f   LIBCMT:initctyp.obj
 0001:000884ff       ____lc_collate_cp_func     100894ff f   LIBCMT:initctyp.obj
 0001:00088518       ____lc_handle_func         10089518 f   LIBCMT:initctyp.obj
 0001:00088531       ___init_collate            10089531 f   LIBCMT:initcoll.obj
 0001:00088540       _strcspn                   10089540 f   LIBCMT:strcspn.obj
 0001:00088cc5       ___get_qualified_locale    10089cc5 f   LIBCMT:getqloc.obj
 0001:00088e80       _memcmp                    10089e80 f   LIBCMT:memcmp.obj
 0001:00088f38       ___crtGetStringTypeA       10089f38 f   LIBCMT:a_str.obj
 0001:00089100       _strpbrk                   1008a100 f   LIBCMT:strpbrk.obj
 0001:00089140       __chsize_lk                1008a140 f   LIBCMT:chsize.obj
 0001:00089281       __chsize                   1008a281 f   LIBCMT:chsize.obj
 0001:00089318       ___ansicp                  1008a318 f   LIBCMT:convrtcp.obj
 0001:0008935b       ___convertcp               1008a35b f   LIBCMT:convrtcp.obj
 0001:00089524       __resetstkoflw             1008a524 f   LIBCMT:resetstk.obj
 0001:00089607       ___ld12mul                 1008a607 f   LIBCMT:tenpow.obj
 0001:00089839       ___multtenpow12            1008a839 f   LIBCMT:tenpow.obj
 0001:00089ea6       ___tzset                   1008aea6 f   LIBCMT:tzset.obj
 0001:00089ef2       __tzset                    1008aef2 f   LIBCMT:tzset.obj
 0001:00089f27       __isindst                  1008af27 f   LIBCMT:tzset.obj
 0001:00089f70       ___ascii_stricmp           1008af70 f   LIBCMT:_stricmp.obj
 0001:00089fbe       ___getlocaleinfo           1008afbe f   LIBCMT:inithelp.obj
 0001:0008a0e5       __stricmp                  1008b0e5 f   LIBCMT:stricmp.obj
 0001:0008a14e       _atol                      1008b14e f   LIBCMT:atox.obj
 0001:0008a1d6       _atoi                      1008b1d6 f   LIBCMT:atox.obj
 0001:0008a1db       __atoi64                   1008b1db f   LIBCMT:atox.obj
 0001:0008a282       __strnicmp                 1008b282 f   LIBCMT:strnicmp.obj
 0001:0008a33f       __itoa                     1008b33f f   LIBCMT:xtoa.obj
 0001:0008a369       __ltoa                     1008b369 f   LIBCMT:xtoa.obj
 0001:0008a390       __ultoa                    1008b390 f   LIBCMT:xtoa.obj
 0001:0008a417       __i64toa                   1008b417 f   LIBCMT:xtoa.obj
 0001:0008a448       __ui64toa                  1008b448 f   LIBCMT:xtoa.obj
 0001:0008a463       __setmode_lk               1008b463 f   LIBCMT:setmode.obj
 0001:0008a4cf       __setmode                  1008b4cf f   LIBCMT:setmode.obj
 0001:0008a566       __getenv_lk                1008b566 f   LIBCMT:getenv.obj
 0001:0008a5e7       _getenv                    1008b5e7 f   LIBCMT:getenv.obj
 0001:0008a626       ___crtGetLocaleInfoW       1008b626 f   LIBCMT:w_loc.obj
 0001:0008a756       ___crtGetLocaleInfoA       1008b756 f   LIBCMT:a_loc.obj
 0001:0008a8a0       __allmul                   1008b8a0 f   LIBCMT:llmul.obj
 0001:0008a8e0       ___ascii_strnicmp          1008b8e0 f   LIBCMT:_strnicm.obj
 0001:0008a941       __mbsnbicoll               1008b941 f   LIBCMT:mbsnbico.obj
 0001:0008a98f       ___wtomb_environ           1008b98f f   LIBCMT:wtombenv.obj
 0001:0008aa3b       ___crtCompareStringA       1008ba3b f   LIBCMT:a_cmp.obj
 0001:0008ae6d       ___crtsetenv               1008be6d f   LIBCMT:setenv.obj
 0001:0008b042       __strdup                   1008c042 f   LIBCMT:strdup.obj
 0001:0008b06d       __mbschr                   1008c06d f   LIBCMT:mbschr.obj
 0001:0008b100       _strchr                    1008c100 f   LIBCMT:strchr.obj
 0001:0008b106       ___from_strstr_to_strchr   1008c106     LIBCMT:strchr.obj
 0001:0008b1be       _RtlUnwind@16              1008c1be f   kernel32:KERNEL32.dll
 0001:0008b1c4       _ExitProcess@4             1008c1c4 f   kernel32:KERNEL32.dll
 0001:0008b1ca       _HeapAlloc@12              1008c1ca f   kernel32:KERNEL32.dll
 0001:0008b1d0       _HeapReAlloc@16            1008c1d0 f   kernel32:KERNEL32.dll
 0001:0008b1d6       _HeapFree@12               1008c1d6 f   kernel32:KERNEL32.dll
 0001:0008b1dc       _GetCommandLineA@0         1008c1dc f   kernel32:KERNEL32.dll
 0001:0008b1e2       _GetVersionExA@4           1008c1e2 f   kernel32:KERNEL32.dll
 0001:0008b1e8       _RaiseException@16         1008c1e8 f   kernel32:KERNEL32.dll
 0001:0008b1ee       _GetProcAddress@8          1008c1ee f   kernel32:KERNEL32.dll
 0001:0008b1f4       _GetModuleHandleA@4        1008c1f4 f   kernel32:KERNEL32.dll
 0001:0008b1fa       _TlsAlloc@0                1008c1fa f   kernel32:KERNEL32.dll
 0001:0008b200       _SetLastError@4            1008c200 f   kernel32:KERNEL32.dll
 0001:0008b206       _GetLastError@0            1008c206 f   kernel32:KERNEL32.dll
 0001:0008b20c       _GetCurrentThread@0        1008c20c f   kernel32:KERNEL32.dll
 0001:0008b212       _TlsFree@4                 1008c212 f   kernel32:KERNEL32.dll
 0001:0008b218       _TlsGetValue@4             1008c218 f   kernel32:KERNEL32.dll
 0001:0008b21e       _GetTickCount@0            1008c21e f   kernel32:KERNEL32.dll
 0001:0008b224       _GetCurrentProcessId@0     1008c224 f   kernel32:KERNEL32.dll
 0001:0008b22a       _GetSystemTimeAsFileTime@4 1008c22a f   kernel32:KERNEL32.dll
 0001:0008b230       _GetModuleFileNameA@12     1008c230 f   kernel32:KERNEL32.dll
 0001:0008b236       _TerminateProcess@8        1008c236 f   kernel32:KERNEL32.dll
 0001:0008b23c       _GetCurrentProcess@0       1008c23c f   kernel32:KERNEL32.dll
 0001:0008b242       _HeapSize@12               1008c242 f   kernel32:KERNEL32.dll
 0001:0008b248       _FatalAppExitA@8           1008c248 f   kernel32:KERNEL32.dll
 0001:0008b24e       _HeapDestroy@4             1008c24e f   kernel32:KERNEL32.dll
 0001:0008b254       _HeapCreate@12             1008c254 f   kernel32:KERNEL32.dll
 0001:0008b25a       _VirtualFree@12            1008c25a f   kernel32:KERNEL32.dll
 0001:0008b260       _VirtualAlloc@16           1008c260 f   kernel32:KERNEL32.dll
 0001:0008b266       _IsBadWritePtr@8           1008c266 f   kernel32:KERNEL32.dll
 0001:0008b26c       _SetHandleCount@4          1008c26c f   kernel32:KERNEL32.dll
 0001:0008b272       _GetStdHandle@4            1008c272 f   kernel32:KERNEL32.dll
 0001:0008b278       _GetFileType@4             1008c278 f   kernel32:KERNEL32.dll
 0001:0008b27e       _GetStartupInfoA@4         1008c27e f   kernel32:KERNEL32.dll
 0001:0008b284       _SetFilePointer@16         1008c284 f   kernel32:KERNEL32.dll
 0001:0008b28a       _WriteFile@20              1008c28a f   kernel32:KERNEL32.dll
 0001:0008b290       _ReadFile@20               1008c290 f   kernel32:KERNEL32.dll
 0001:0008b296       _FreeEnvironmentStringsA@4 1008c296 f   kernel32:KERNEL32.dll
 0001:0008b29c       _GetEnvironmentStrings@0   1008c29c f   kernel32:KERNEL32.dll
 0001:0008b2a2       _FreeEnvironmentStringsW@4 1008c2a2 f   kernel32:KERNEL32.dll
 0001:0008b2a8       _WideCharToMultiByte@32    1008c2a8 f   kernel32:KERNEL32.dll
 0001:0008b2ae       _GetEnvironmentStringsW@0  1008c2ae f   kernel32:KERNEL32.dll
 0001:0008b2b4       _UnhandledExceptionFilter@4 1008c2b4 f   kernel32:KERNEL32.dll
 0001:0008b2ba       _SetUnhandledExceptionFilter@4 1008c2ba f   kernel32:KERNEL32.dll
 0001:0008b2c0       _IsBadReadPtr@8            1008c2c0 f   kernel32:KERNEL32.dll
 0001:0008b2c6       _IsBadCodePtr@4            1008c2c6 f   kernel32:KERNEL32.dll
 0001:0008b2cc       _GetACP@0                  1008c2cc f   kernel32:KERNEL32.dll
 0001:0008b2d2       _GetOEMCP@0                1008c2d2 f   kernel32:KERNEL32.dll
 0001:0008b2d8       _GetCPInfo@8               1008c2d8 f   kernel32:KERNEL32.dll
 0001:0008b2de       _InterlockedExchange@8     1008c2de f   kernel32:KERNEL32.dll
 0001:0008b2e4       _VirtualQuery@12           1008c2e4 f   kernel32:KERNEL32.dll
 0001:0008b2ea       _LoadLibraryA@4            1008c2ea f   kernel32:KERNEL32.dll
 0001:0008b2f0       _SetStdHandle@8            1008c2f0 f   kernel32:KERNEL32.dll
 0001:0008b2f6       _FlushFileBuffers@4        1008c2f6 f   kernel32:KERNEL32.dll
 0001:0008b2fc       _CreateFileA@28            1008c2fc f   kernel32:KERNEL32.dll
 0001:0008b302       _LCMapStringA@24           1008c302 f   kernel32:KERNEL32.dll
 0001:0008b308       _MultiByteToWideChar@24    1008c308 f   kernel32:KERNEL32.dll
 0001:0008b30e       _LCMapStringW@24           1008c30e f   kernel32:KERNEL32.dll
 0001:0008b314       _SetConsoleCtrlHandler@8   1008c314 f   kernel32:KERNEL32.dll
 0001:0008b31a       _GetTimeFormatA@24         1008c31a f   kernel32:KERNEL32.dll
 0001:0008b320       _GetDateFormatA@24         1008c320 f   kernel32:KERNEL32.dll
 0001:0008b326       _GetUserDefaultLCID@0      1008c326 f   kernel32:KERNEL32.dll
 0001:0008b32c       _GetLocaleInfoA@16         1008c32c f   kernel32:KERNEL32.dll
 0001:0008b332       _EnumSystemLocalesA@8      1008c332 f   kernel32:KERNEL32.dll
 0001:0008b338       _IsValidLocale@8           1008c338 f   kernel32:KERNEL32.dll
 0001:0008b33e       _IsValidCodePage@4         1008c33e f   kernel32:KERNEL32.dll
 0001:0008b344       _GetStringTypeA@20         1008c344 f   kernel32:KERNEL32.dll
 0001:0008b34a       _GetStringTypeW@16         1008c34a f   kernel32:KERNEL32.dll
 0001:0008b350       _SetEndOfFile@4            1008c350 f   kernel32:KERNEL32.dll
 0001:0008b356       _VirtualProtect@16         1008c356 f   kernel32:KERNEL32.dll
 0001:0008b35c       _GetSystemInfo@4           1008c35c f   kernel32:KERNEL32.dll
 0001:0008b362       _GetTimeZoneInformation@4  1008c362 f   kernel32:KERNEL32.dll
 0001:0008b368       _GetLocaleInfoW@16         1008c368 f   kernel32:KERNEL32.dll
 0001:0008b36e       _CompareStringA@24         1008c36e f   kernel32:KERNEL32.dll
 0001:0008b374       _CompareStringW@24         1008c374 f   kernel32:KERNEL32.dll
 0001:0008b37a       _SetEnvironmentVariableA@8 1008c37a f   kernel32:KERNEL32.dll
 0001:00095810       ?T@?1??DIST_PRIM@PointDistanceQuery@Opcode@@AAEXI@Z@$AVIndexedTriangle@IceMaths@@A 10096810 f i OPC_PointDistance.obj
 0002:00000020       ??_7CollisionHullBuilder@@6B@ 10098020     CollisionHullBuilder.obj
 0002:00000040       __real@3f800000            10098040     ConvexDecomposer.obj
 0002:00000044       __real@00000000            10098044     ConvexDecomposer.obj
 0002:00000048       __real@3c23d70a            10098048     ConvexDecomposer.obj
 0002:00000050       __real@4f800000            10098050     ConvexHullBuilder.obj
 0002:00000054       __real@38d1b717            10098054     ConvexHullBuilder.obj
 0002:00000058       ??_7ConvexHullBuilder@@6B@ 10098058     ConvexHullBuilder.obj
 0002:0000006c       __real@3ca3d70a            1009806c     ConvexHullBuilder.obj
 0002:00000070       __real@bfc90fdb            10098070     ConvexHullBuilder.obj
 0002:00000074       __real@bf800000            10098074     ConvexHullBuilder.obj
 0002:00000078       __real@3fc90fdb            10098078     ConvexHullBuilder.obj
 0002:0000007c       __real@3ea2f983            1009807c     ConvexHullBuilder.obj
 0002:00000080       ??_C@_0FE@KKAFOOKH@?2work?2ProjectD?2Core?2cosmos_src?2i@ 10098080     ConvexHullBuilder.obj
 0002:000000e8       __real@3ff0000000000000    100980e8     ConvexHullBuilder.obj
 0002:000000f8       __real@47efffffe0000000    100980f8     ConvexHullBuilder.obj
 0002:00000108       __real@0000000000000000    10098108     ConvexHullBuilder.obj
 0002:00000118       __real@c024000000000000    10098118     ConvexHullBuilder.obj
 0002:00000128       __real@4054000000000000    10098128     ConvexHullBuilder.obj
 0002:00000138       __real@3fe0000000000000    10098138     ConvexHullBuilder.obj
 0002:00000148       __real@3f00002000400080    10098148     ConvexHullBuilder.obj
 0002:00000158       __real@41f0000000000000    10098158     ConvexHullBuilder.obj
 0002:00000168       __real@3ee4f8b588e368f1    10098168     ConvexHullBuilder.obj
 0002:00000174       ?bmDihedralAngle@Cloth@@0IB 10098174     ConvexMeshBuilder.obj
 0002:00000178       ?bmCenterSpring@Cloth@@0IB 10098178     ConvexMeshBuilder.obj
 0002:0000017c       ?mHashIndexSize@ClothHash@@0IB 1009817c     ConvexMeshBuilder.obj
 0002:000001a8       ??_7Stream@IceCore@@6B@    100981a8     ConvexMeshBuilder.obj
 0002:000001e8       ??_C@_0FE@GEKBEOPC@?2work?2ProjectD?2Core?2cosmos_src?2i@ 100981e8     ConvexMeshBuilder.obj
 0002:0000024c       ??_C@_0CM@ODGIMHPH@createHull?3?5convex?5hull?5computat@ 1009824c     ConvexMeshBuilder.obj
 0002:00000280       ??_7ConvexMeshBuilder@@6B@ 10098280     ConvexMeshBuilder.obj
 0002:000002cc       ??_7StreamSave@@6B@        100982cc     ConvexMeshBuilder.obj
 0002:0000030c       ??_C@_0BC@MBEFPOPA@Opcode?5is?5not?5OK?4?$AA@ 1009830c     ConvexMeshBuilder.obj
 0002:00000324       ??_C@_0DM@DCBIEODI@ConvexMesh?3?3computeConvexHull?3?5c@ 10098324     ConvexMeshBuilder.obj
 0002:0000036c       ??_C@_0DF@LGCLIBJG@ConvexMesh?3?3loadConvexHull?3?5conv@ 1009836c     ConvexMeshBuilder.obj
 0002:000003b0       __real@c036000000000000    100983b0     ConvexMeshBuilder.obj
 0002:000003c0       __real@4000000000000000    100983c0     ConvexMeshBuilder.obj
 0002:000003cc       ??_C@_0DG@LAODPJOK@The?5hull?5has?5more?5than?5255?5verti@ 100983cc     ConvexMeshBuilder.obj
 0002:0000040c       ??_C@_0DG@DPENNCIO@The?5hull?5has?5more?5than?5255?5polyg@ 1009840c     ConvexMeshBuilder.obj
 0002:0000044c       ??_C@_0CA@GOOJLHBI@Failed?5to?5rebuild?5Opcode?5model?4?$AA@ 1009844c     ConvexMeshBuilder.obj
 0002:00000474       ??_C@_0BO@NHJJMPAC@Failed?5to?5refit?5Opcode?5model?4?$AA@ 10098474     ConvexMeshBuilder.obj
 0002:00000498       ??_C@_0BG@FDCAMHLB@Missing?5Opcode?5model?4?$AA@ 10098498     ConvexMeshBuilder.obj
 0002:000004b4       ??_C@_0DB@DAMGNKOM@ConvexMesh?3?3loadFromDesc?3?5desc?4i@ 100984b4     ConvexMeshBuilder.obj
 0002:000004f0       ??_C@_0HG@KIHOADED@ConvexMesh?3?5Mesh?5has?5a?5negative?5@ 100984f0     ConvexMeshBuilder.obj
 0002:000005a8       ??_7NxCookingInterface@@6B@ 100985a8     Cooking.obj
 0002:000005dc       ??_7NvClothMesh@@6B@       100985dc     Cooking.obj
 0002:000005f0       ??_7Allocator@IceCore@@6B@ 100985f0     Cooking.obj
 0002:00000608       ??_C@_0EE@MCDODDCG@NxInitCooking?$CI?$CJ?5state?5stack?5over@ 10098608     Cooking.obj
 0002:00000660       ??_C@_0EK@CLLMDPNI@?2work?2ProjectD?2Core?2cosmos_src?2i@ 10098660     Cooking.obj
 0002:000006b8       ??_7TriangleMeshBuilder@@6B@ 100986b8     Cooking.obj
 0002:0000072c       __real@3a83126f            1009872c     Cooking.obj
 0002:00000730       ??_7IceAllocator@@6B@      10098730     Cooking.obj
 0002:00000748       ??_C@_0FJ@JCDCJCMK@NxCookConvexMesh?3?5Warning?0?5NX_CF@ 10098748     Cooking.obj
 0002:000007b4       ??_7CookingInterface@@6B@  100987b4     Cooking.obj
 0002:000007e8       ??_7ClothMesh@@6B@         100987e8     Cooking.obj
 0002:00000800       __real@3f000000            10098800     hulllib.obj
 0002:00000804       __real@3dcccccd            10098804     hulllib.obj
 0002:00000808       ??_C@_0BM@FNPIOFJJ@Cant?5normalize?5ZERO?5vector?6?$AA@ 10098808     hulllib.obj
 0002:0000082c       __real@3089705f            1009882c     hulllib.obj
 0002:00000830       __real@3e112e0be826d695    10098830     hulllib.obj
 0002:0000083c       __real@42652ee0            1009883c     hulllib.obj
 0002:00000840       __real@3e800000            10098840     hulllib.obj
 0002:00000844       __real@9e3ce508            10098844     hulllib.obj
 0002:00000848       __real@1e3ce508            10098848     hulllib.obj
 0002:0000084c       __real@3d4ccccd            1009884c     hulllib.obj
 0002:00000850       __real@7f7fffff            10098850     hulllib.obj
 0002:00000854       __real@358637bd            10098854     hulllib.obj
 0002:00000858       __real@3c8efa35            10098858     hulllib.obj
 0002:0000085c       __real@bc8efa35            1009885c     hulllib.obj
 0002:00000860       __real@43b40000            10098860     hulllib.obj
 0002:00000864       __real@42340000            10098864     hulllib.obj
 0002:00000868       __real@40a00000            10098868     hulllib.obj
 0002:0000086c       __real@42200000            1009886c     hulllib.obj
 0002:00000870       __real@3ccccccd            10098870     hulllib.obj
 0002:00000874       __real@bca3d70a            10098874     hulllib.obj
 0002:00000878       __real@40200000            10098878     hulllib.obj
 0002:00000884       ??_7GaussMapBuilder@@6B@   10098884     IceHullGaussMapsBuilder.obj
 0002:0000089c       ??_7ClosestPolygonMapBuilder@@6B@ 1009889c     IceHullGaussMapsBuilder.obj
 0002:000008b4       ??_7RaycastMapBuilder@@6B@ 100988b4     IceHullGaussMapsBuilder.obj
 0002:000008d0       __real@3e7ad7f29abcaf48    100988d0     IceHullGaussMapsBuilder.obj
 0002:000008e0       __real@be7ad7f29abcaf48    100988e0     IceHullGaussMapsBuilder.obj
 0002:000008ec       ??_7SupportVertexMapBuilder@@6B@ 100988ec     IceHullGaussMapsBuilder.obj
 0002:00000954       ??_7AABBTreeBuilder@Opcode@@6B@ 10098954     InternalTriangleMeshBuilder.obj
 0002:00000970       ??_C@_0FO@JDOBEDOL@?2work?2ProjectD?2Core?2cosmos_src?2i@ 10098970     InternalTriangleMeshBuilder.obj
 0002:000009e0       ??_7AABBTreeOfAABBsBuilder@Opcode@@6B@ 100989e0     InternalTriangleMeshBuilder.obj
 0002:00000a00       ??_C@_0GL@FDMDDFFL@The?5mesh?5has?5a?5convex?5part?5made?5@ 10098a00     InternalTriangleMeshBuilder.obj
 0002:00000a80       ??_C@_0FH@CPIBMPAF@The?5mesh?5has?5more?5than?565536?5con@ 10098a80     InternalTriangleMeshBuilder.obj
 0002:00000ae8       ??_C@_0CN@KGPHHHLK@TriangleMesh?3?5mesh?5is?5too?5big?5fo@ 10098ae8     InternalTriangleMeshBuilder.obj
 0002:00000b70       ??_C@_0FG@HDCIJFOK@?2work?2ProjectD?2Core?2cosmos_src?2i@ 10098b70     TriangleMeshBuilder.obj
 0002:00000bd8       ??_C@_0BJ@BKHDBBHO@cleaning?5the?5mesh?5failed?$AA@ 10098bd8     TriangleMeshBuilder.obj
 0002:00000bf8       ??_C@_0N@GNALNIDB@f?5?$CFd?5?$CFd?5?$CFd?$AN?6?$AA@ 10098bf8     TriangleMeshBuilder.obj
 0002:00000c08       ??_C@_0BG@HFMKIMLA@v?5?$CF0?49f?5?$CF0?49f?5?$CF0?49f?$AN?6?$AA@ 10098c08     TriangleMeshBuilder.obj
 0002:00000c24       ??_C@_02GMLFBBN@wb?$AA@    10098c24     TriangleMeshBuilder.obj
 0002:00000c28       ??_C@_0DD@CMJGDCNN@TriangleMesh?3?3loadFromDesc?3?5desc@ 10098c28     TriangleMeshBuilder.obj
 0002:00000cac       __real@46fffe00            10098cac     FluidMeshCooker.obj
 0002:00000cb0       __real@ff7fffff            10098cb0     FluidMeshCooker.obj
 0002:00000db4       ??_7NxFoundationSDK@@6B@   10098db4     FoundationSDK.obj
 0002:00000de0       ??_7NxUserAllocator@@6B@   10098de0     FoundationSDK.obj
 0002:00000e08       ??_7NxUserAllocatorDefault@@6B@ 10098e08     FoundationSDK.obj
 0002:00000e30       ??_7Observable@NxFoundation@@6B@ 10098e30     FoundationSDK.obj
 0002:00000e34       ??_7FoundationSDK@NxFoundation@@6BNxFoundationSDK@@@ 10098e34     FoundationSDK.obj
 0002:00000e60       ??_7FoundationSDK@NxFoundation@@6BObservable@1@@ 10098e60     FoundationSDK.obj
 0002:00000e64       ?MAX_WAIT_OBJECTS@NxSync@@2IB 10098e64     NxSync.obj
 0002:00000e84       ??_7NxThread@@6B@          10098e84     NxThread.obj
 0002:00000e98       __real@4059000000000000    10098e98     Profiler.obj
 0002:00000ecc       __real@34000000            10098ecc     Sphere.obj
 0002:00000ef4       __real@3eaaaaab            10098ef4     Utilities.obj
 0002:00000ef8       __real@b58637bd            10098ef8     Utilities.obj
 0002:00000f00       __real@3bc79ca100000000    10098f00     Utilities.obj
 0002:00000f10       __real@3d7197997fb06240    10098f10     Utilities.obj
 0002:00000f1c       __real@40000000            10098f1c     Utilities.obj
 0002:00000f20       __real@3feffffde7210c00    10098f20     Utilities.obj
 0002:00000f2c       __real@3f7ffffe            10098f2c     Utilities.obj
 0002:00000f30       __real@3fe6a09e667f3bcd    10098f30     Utilities.obj
 0002:00000f60       __real@bf91111111111111    10098f60     VolumeIntegration.obj
 0002:00000f70       __real@3f91111111111111    10098f70     VolumeIntegration.obj
 0002:00000f80       __real@3fa5555555555555    10098f80     VolumeIntegration.obj
 0002:00000f90       __real@bfa999999999999a    10098f90     VolumeIntegration.obj
 0002:00000fa0       __real@bfb5555555555555    10098fa0     VolumeIntegration.obj
 0002:00000fb0       __real@bfc5555555555555    10098fb0     VolumeIntegration.obj
 0002:00000fc0       __real@3fa999999999999a    10098fc0     VolumeIntegration.obj
 0002:00000fd0       __real@3fb5555555555555    10098fd0     VolumeIntegration.obj
 0002:00000fe0       __real@3fc5555555555555    10098fe0     VolumeIntegration.obj
 0002:00000ff0       __real@4010000000000000    10098ff0     VolumeIntegration.obj
 0002:00001000       __real@4008000000000000    10099000     VolumeIntegration.obj
 0002:00001010       __real@3fd5555555555555    10099010     VolumeIntegration.obj
 0002:00001044       ??_7BaseModel@Opcode@@6B@  10099044     OPC_BaseModel.obj
 0002:00001070       ??_7Collider@Opcode@@6B@   10099070     OPC_Collider.obj
 0002:00001088       ??_7HybridModel@Opcode@@6B@ 10099088     OPC_HybridModel.obj
 0002:000010b0       ??_7AABBTreeOfTrianglesBuilder@Opcode@@6B@ 100990b0     OPC_HybridModel.obj
 0002:000010d0       ??_C@_0CM@DODBENPL@MeshInterface?3?3SetPointers?3?5poin@ 100990d0     OPC_MeshInterface.obj
 0002:00001108       ??_C@_0FD@PDDOPKKP@?2work?2ProjectD?2Core?2cosmos_src?2i@ 10099108     OPC_MeshInterface.obj
 0002:00001170       ??_7Model@Opcode@@6B@      10099170     OPC_Model.obj
 0002:00001198       ??_C@_0DP@PKFOLIJE@OPCODE?5WARNING?3?5supports?5complet@ 10099198     OPC_Model.obj
 0002:000011e8       ??_C@_0EL@NGEIGOEN@?2work?2ProjectD?2Core?2cosmos_src?2i@ 100991e8     OPC_Model.obj
 0002:00001248       ??_7OBBCollider@Opcode@@6B@ 10099248     OPC_OBBCollider.obj
 0002:00001258       ??_C@_0DH@CENBPGJM@Temporal?5coherence?5only?5works?5wi@ 10099258     OPC_OBBCollider.obj
 0002:0000129c       ??_7HybridOBBCollider@Opcode@@6B@ 1009929c     OPC_OBBCollider.obj
 0002:000012b0       ??_7AABBOptimizedTree@Opcode@@6B@ 100992b0     OPC_OptimizedTree.obj
 0002:000012d8       ??_7AABBNoLeafTree@Opcode@@6B@ 100992d8     OPC_OptimizedTree.obj
 0002:00001300       ??_7AABBQuantizedNoLeafTree@Opcode@@6B@ 10099300     OPC_OptimizedTree.obj
 0002:0000132c       ??_7PointDistanceQuery@Opcode@@6B@ 1009932c     OPC_PointDistance.obj
 0002:00001334       ??_7RayCollider@Opcode@@6B@ 10099334     OPC_RayCollider.obj
 0002:00001348       ??_C@_0EE@BNAJANDH@SkipPrimitiveTests?5not?5possible?5@ 10099348     OPC_RayCollider.obj
 0002:0000139c       ??_C@_0DK@NAOOGAEM@Temporal?5coherence?5can?8t?5guarant@ 1009939c     OPC_RayCollider.obj
 0002:000013e4       ??_C@_0DC@IMFKDDOD@Closest?5hit?5doesn?8t?5work?5with?5Fi@ 100993e4     OPC_RayCollider.obj
 0002:00001420       ??_C@_0CI@CJMDIHCG@Higher?5distance?5bound?5must?5be?5po@ 10099420     OPC_RayCollider.obj
 0002:00001450       ??_7HybridRayCollider@Opcode@@6B@ 10099450     OPC_RayCollider.obj
 0002:0000146c       ??_7VolumeCollider@Opcode@@6B@ 1009946c     OPC_VolumeCollider.obj
 0002:000016f0       __real@3f800054            100996f0     IceAABB.obj
 0002:000016f8       ??_7DefaultAllocator@@6B@  100996f8     IceAllocator.obj
 0002:00001714       ??_C@_02JDPG@rb?$AA@       10099714     IceCustomArray.obj
 0002:00001718       ??_C@_02DPKJAMEF@?$CFd?$AA@ 10099718     IceCustomArray.obj
 0002:0000171c       ??_C@_05LAPONLG@false?$AA@ 1009971c     IceCustomArray.obj
 0002:00001724       ??_C@_04LOAJBDKD@true?$AA@ 10099724     IceCustomArray.obj
 0002:0000172c       ??_C@_02GMHACPFF@?$CFu?$AA@ 1009972c     IceCustomArray.obj
 0002:00001730       ??_C@_02NJPGOMH@?$CFf?$AA@ 10099730     IceCustomArray.obj
 0002:0000173c       __real@38000100            1009973c     IceIndexedTriangle.obj
 0002:00001740       __real@41490fdb            10099740     IceIndexedTriangle.obj
 0002:00001744       __real@40490fdb            10099744     IceIndexedTriangle.obj
 0002:00001750       __real@33d6bf95            10099750     IceMatrix4x4.obj
 0002:00001768       __real@40c90fdb            10099768     IcePolygon.obj
 0002:00001780       ??_7CollisionHull@@6B@     10099780     CollisionHull.obj
 0002:00001794       ??_7ConvexHull@@6B@        10099794     ConvexHull.obj
 0002:000017d0       ??_7NvConvexMesh@@6B@      100997d0     ConvexMesh.obj
 0002:0000180c       ??_7StreamLoad@@6B@        1009980c     ConvexMesh.obj
 0002:00001850       ??_C@_0FB@HFIMKDK@?2work?2ProjectD?2Core?2cosmos_src?2i@ 10099850     ConvexMesh.obj
 0002:000018b8       ??_7ConvexMesh@@6B@        100998b8     ConvexMesh.obj
 0002:0000194c       ??_C@_0CO@OHPNODDD@EdgeList?3?3CreateFacesToEdges?3?5nu@ 1009994c     EdgeList.obj
 0002:00001988       ??_C@_0EP@DDPHDEPG@?2work?2ProjectD?2Core?2cosmos_src?2i@ 10099988     EdgeList.obj
 0002:000019e8       ??_C@_0EB@BFDPMFCD@ActiveEdges?3?3ComputeConvexEdges?3@ 100999e8     EdgeList.obj
 0002:00001a38       ??_C@_0ED@FEMJKPEL@ActiveEdges?3?3ComputeConvexEdges?3@ 10099a38     EdgeList.obj
 0002:00001a88       ??_C@_0DM@JOGBLHDI@ActiveEdges?3?3ComputeConvexEdges?3@ 10099a88     EdgeList.obj
 0002:00001ad0       ??_C@_0DI@GBHLFOFP@ActiveEdges?3?3ComputeConvexEdges?3@ 10099ad0     EdgeList.obj
 0002:00001b14       ??_C@_0CO@KGHBGKBE@EdgeList?3?3ComputeActiveEdges?3?5nu@ 10099b14     EdgeList.obj
 0002:00001b54       ??_C@_0DC@NNJHJLLF@Adjacencies?3?3GetBoundaryVertices@ 10099b54     IceAdjacencies.obj
 0002:00001b90       ??_C@_0FF@KFGPGJCH@?2work?2ProjectD?2Core?2cosmos_src?2i@ 10099b90     IceAdjacencies.obj
 0002:00001bf8       ??_C@_0CK@ELDAJNLG@Adjacencies?3?3MakeLastRef?3?5null?5p@ 10099bf8     IceAdjacencies.obj
 0002:00001c30       ??_C@_0ED@JNCCMAPI@Adjacencies?3?3UpdateLink?3?5invalid@ 10099c30     IceAdjacencies.obj
 0002:00001c80       ??_C@_0EC@GJGAEJFL@Adjacencies?3?3UpdateLink?3?5invalid@ 10099c80     IceAdjacencies.obj
 0002:00001cd0       ??_C@_0EA@CPHOACLK@Adjacencies?3?3CreateDatabase?3?5can@ 10099cd0     IceAdjacencies.obj
 0002:00001d24       ??_7GaussMap@@6B@          10099d24     IceGaussMap.obj
 0002:00001d34       ??_7ClosestPolygonMap@@6B@ 10099d34     IceHullGaussMaps.obj
 0002:00001d40       ??_7RaycastMap@@6B@        10099d40     IceHullGaussMaps.obj
 0002:00001d4c       ??_7SupportVertexMap@@6B@  10099d4c     IceHullGaussMaps.obj
 0002:00001d5c       __real@3f7ff972            10099d5c     IceSupport.obj
 0002:00001d88       ??_C@_0FL@HNGDHKHE@?2work?2ProjectD?2Core?2cosmos_src?2i@ 10099d88     InternalTriangleMesh.obj
 0002:00001e1c       ??_7PenetrationMap@@6B@    10099e1c     PenetrationMap.obj
 0002:00001e20       ??_C@_0DE@LMPKGMFP@PenetrationMap?3?3Create?3?5Opcode?5t@ 10099e20     PenetrationMap.obj
 0002:00001e60       ??_C@_0DO@GJGIBFNI@PenetrationMap?3?3Create?3?5the?5pmap@ 10099e60     PenetrationMap.obj
 0002:00001eac       ??_C@_0DP@CMCMADJM@NxCreatePMap?3?5PMaps?5are?5legacy?5o@ 10099eac     PenetrationMap.obj
 0002:00001ef8       ??_C@_0EG@CIAEDMLE@PenetrationMap?3?3Create?3?5the?5pmap@ 10099ef8     PenetrationMap.obj
 0002:00001f4c       ??_C@_0CJ@EPIBDBCD@PenetrationMap?3?3Create?3?5no?5trian@ 10099f4c     PenetrationMap.obj
 0002:00001f80       ??_C@_0FF@GCOPMNEM@?2work?2ProjectD?2Core?2cosmos_src?2i@ 10099f80     PenetrationMap.obj
 0002:00002038       ??_7NvTriangleMesh@@6B@    1009a038     TriangleMesh.obj
 0002:00002098       ??_C@_0FD@CLONIBKJ@?2work?2ProjectD?2Core?2cosmos_src?2i@ 1009a098     TriangleMesh.obj
 0002:00002100       ??_C@_0JC@JKBHKICP@heightFieldVerticalExtent?5is?5not@ 1009a100     TriangleMesh.obj
 0002:000021b0       ??_C@_0CL@FONFGEFI@TriangleMesh?3?3loadPMap?3?5invalid?5@ 1009a1b0     TriangleMesh.obj
 0002:000021e4       ??_C@_0CO@LIDPAIJP@TriangleMesh?3?3loadPMap?3?5pmap?5cre@ 1009a1e4     TriangleMesh.obj
 0002:00002220       ??_7TriangleMesh@@6B@      1009a220     TriangleMesh.obj
 0002:00002298       ?maxPhases@ClothCooker@@2HB 1009a298     ClothCooker.obj
 0002:000022bc       ?end@?$_Iosb@H@std@@2W4_Seekdir@12@B 1009a2bc     ClothMesh.obj
 0002:000022c0       ?cur@?$_Iosb@H@std@@2W4_Seekdir@12@B 1009a2c0     ClothMesh.obj
 0002:000022c4       ?beg@?$_Iosb@H@std@@2W4_Seekdir@12@B 1009a2c4     ClothMesh.obj
 0002:000022c8       ?binary@?$_Iosb@H@std@@2W4_Openmode@12@B 1009a2c8     ClothMesh.obj
 0002:000022cc       ?_Noreplace@?$_Iosb@H@std@@2W4_Openmode@12@B 1009a2cc     ClothMesh.obj
 0002:000022d0       ?_Nocreate@?$_Iosb@H@std@@2W4_Openmode@12@B 1009a2d0     ClothMesh.obj
 0002:000022d4       ?trunc@?$_Iosb@H@std@@2W4_Openmode@12@B 1009a2d4     ClothMesh.obj
 0002:000022d8       ?app@?$_Iosb@H@std@@2W4_Openmode@12@B 1009a2d8     ClothMesh.obj
 0002:000022dc       ?ate@?$_Iosb@H@std@@2W4_Openmode@12@B 1009a2dc     ClothMesh.obj
 0002:000022e0       ?out@?$_Iosb@H@std@@2W4_Openmode@12@B 1009a2e0     ClothMesh.obj
 0002:000022e4       ?in@?$_Iosb@H@std@@2W4_Openmode@12@B 1009a2e4     ClothMesh.obj
 0002:000022e8       ?_Hardfail@?$_Iosb@H@std@@2W4_Iostate@12@B 1009a2e8     ClothMesh.obj
 0002:000022ec       ?badbit@?$_Iosb@H@std@@2W4_Iostate@12@B 1009a2ec     ClothMesh.obj
 0002:000022f0       ?failbit@?$_Iosb@H@std@@2W4_Iostate@12@B 1009a2f0     ClothMesh.obj
 0002:000022f4       ?eofbit@?$_Iosb@H@std@@2W4_Iostate@12@B 1009a2f4     ClothMesh.obj
 0002:000022f8       ?goodbit@?$_Iosb@H@std@@2W4_Iostate@12@B 1009a2f8     ClothMesh.obj
 0002:000022fc       ?floatfield@?$_Iosb@H@std@@2W4_Fmtflags@12@B 1009a2fc     ClothMesh.obj
 0002:00002300       ?basefield@?$_Iosb@H@std@@2W4_Fmtflags@12@B 1009a300     ClothMesh.obj
 0002:00002304       ?adjustfield@?$_Iosb@H@std@@2W4_Fmtflags@12@B 1009a304     ClothMesh.obj
 0002:00002308       ?_Stdio@?$_Iosb@H@std@@2W4_Fmtflags@12@B 1009a308     ClothMesh.obj
 0002:0000230c       ?boolalpha@?$_Iosb@H@std@@2W4_Fmtflags@12@B 1009a30c     ClothMesh.obj
 0002:00002310       ?fixed@?$_Iosb@H@std@@2W4_Fmtflags@12@B 1009a310     ClothMesh.obj
 0002:00002314       ?scientific@?$_Iosb@H@std@@2W4_Fmtflags@12@B 1009a314     ClothMesh.obj
 0002:00002318       ?hex@?$_Iosb@H@std@@2W4_Fmtflags@12@B 1009a318     ClothMesh.obj
 0002:0000231c       ?oct@?$_Iosb@H@std@@2W4_Fmtflags@12@B 1009a31c     ClothMesh.obj
 0002:00002320       ?dec@?$_Iosb@H@std@@2W4_Fmtflags@12@B 1009a320     ClothMesh.obj
 0002:00002324       ?internal@?$_Iosb@H@std@@2W4_Fmtflags@12@B 1009a324     ClothMesh.obj
 0002:00002328       ?right@?$_Iosb@H@std@@2W4_Fmtflags@12@B 1009a328     ClothMesh.obj
 0002:0000232c       ?left@?$_Iosb@H@std@@2W4_Fmtflags@12@B 1009a32c     ClothMesh.obj
 0002:00002330       ?showpos@?$_Iosb@H@std@@2W4_Fmtflags@12@B 1009a330     ClothMesh.obj
 0002:00002334       ?showpoint@?$_Iosb@H@std@@2W4_Fmtflags@12@B 1009a334     ClothMesh.obj
 0002:00002338       ?showbase@?$_Iosb@H@std@@2W4_Fmtflags@12@B 1009a338     ClothMesh.obj
 0002:0000233c       ?uppercase@?$_Iosb@H@std@@2W4_Fmtflags@12@B 1009a33c     ClothMesh.obj
 0002:00002340       ?unitbuf@?$_Iosb@H@std@@2W4_Fmtflags@12@B 1009a340     ClothMesh.obj
 0002:00002344       ?skipws@?$_Iosb@H@std@@2W4_Fmtflags@12@B 1009a344     ClothMesh.obj
 0002:00002348       ?none@?$_Locbase@H@std@@2HB 1009a348     ClothMesh.obj
 0002:0000234c       ?all@?$_Locbase@H@std@@2HB 1009a34c     ClothMesh.obj
 0002:00002350       ?messages@?$_Locbase@H@std@@2HB 1009a350     ClothMesh.obj
 0002:00002354       ?time@?$_Locbase@H@std@@2HB 1009a354     ClothMesh.obj
 0002:00002358       ?numeric@?$_Locbase@H@std@@2HB 1009a358     ClothMesh.obj
 0002:0000235c       ?monetary@?$_Locbase@H@std@@2HB 1009a35c     ClothMesh.obj
 0002:00002360       ?ctype@?$_Locbase@H@std@@2HB 1009a360     ClothMesh.obj
 0002:00002364       ?collate@?$_Locbase@H@std@@2HB 1009a364     ClothMesh.obj
 0002:00002384       __real@3e2aaaab            1009a384     ClothMesh.obj
 0002:00002388       __real@3d99999a            1009a388     ClothMesh.obj
 0002:0000238c       __real@3d36db6e            1009a38c     ClothMesh.obj
 0002:00002390       __real@3cf8e38e            1009a390     ClothMesh.obj
 0002:000023fc       ??_C@_0BD@OLBABOEK@vector?$DMT?$DO?5too?5long?$AA@ 1009a3fc     PhysX:pagemaker.obj
 0002:00002428       __real@3f7d70a4            1009a428     PhysX:chunkcooker.obj
 0002:00002430       ??_7logic_error@std@@6B@   1009a430     libcpmt:string.obj
 0002:0000243c       ??_7length_error@std@@6B@  1009a43c     libcpmt:string.obj
 0002:00002448       ??_7out_of_range@std@@6B@  1009a448     libcpmt:string.obj
 0002:00002450       ??_C@_0BI@CFPLBAOH@invalid?5string?5position?$AA@ 1009a450     libcpmt:string.obj
 0002:00002468       ??_C@_0BA@JFNIOLAK@string?5too?5long?$AA@ 1009a468     libcpmt:string.obj
 0002:0000247c       ??_7bad_alloc@std@@6B@     1009a47c     libcpmt:nomemory.obj
 0002:00002484       ??_C@_0P@GHFPNOJB@bad?5allocation?$AA@ 1009a484     libcpmt:nomemory.obj
 0002:00002668       ??_7exception@@6B@         1009a668     LIBCMT:stdexcpt.obj
 0002:00002670       ??_C@_0BC@EOODALEL@Unknown?5exception?$AA@ 1009a670     LIBCMT:stdexcpt.obj
 0002:00002688       ??_7bad_cast@@6B@          1009a688     LIBCMT:stdexcpt.obj
 0002:00002694       ??_7bad_typeid@@6B@        1009a694     LIBCMT:stdexcpt.obj
 0002:000026a0       ??_7__non_rtti_object@@6B@ 1009a6a0     LIBCMT:stdexcpt.obj
 0002:000026ac       ??_7type_info@@6B@         1009a6ac     LIBCMT:typinfo.obj
 0002:000026bc       ??_C@_05KLBDPFGC@e?$CL000?$AA@ 1009a6bc     LIBCMT:cvt.obj
 0002:000026c8       __real@4150017ec0000000    1009a6c8     LIBCMT:testfdiv.obj
 0002:000026d0       __real@4147ffff80000000    1009a6d0     LIBCMT:testfdiv.obj
 0002:000026d8       ??_C@_0BK@NHEOCAHP@IsProcessorFeaturePresent?$AA@ 1009a6d8     LIBCMT:testfdiv.obj
 0002:000026f4       ??_C@_08CPNIBGIE@KERNEL32?$AA@ 1009a6f4     LIBCMT:testfdiv.obj
 0002:00002788       ??_C@_07PEJMOBNF@FlsFree?$AA@ 1009a788     LIBCMT:tidtable.obj
 0002:00002790       ??_C@_0M@JCPCPOEF@FlsSetValue?$AA@ 1009a790     LIBCMT:tidtable.obj
 0002:0000279c       ??_C@_0M@GDNOONDI@FlsGetValue?$AA@ 1009a79c     LIBCMT:tidtable.obj
 0002:000027a8       ??_C@_08KNHFBNJ@FlsAlloc?$AA@ 1009a7a8     LIBCMT:tidtable.obj
 0002:000027b4       ??_C@_0N@MDJJJHMB@kernel32?4dll?$AA@ 1009a7b4     LIBCMT:tidtable.obj
 0002:000027f8       __DEFAULT_CW_in_mem        1009a7f8     LIBCMT:common.obj
 0002:000027fa       __pi_by_2_to_61            1009a7fa     LIBCMT:common.obj
 0002:00002844       ??_C@_0N@FFJGBINN@AuthenticAMD?$AA@ 1009a844     LIBCMT:cpu_disp.obj
 0002:00006190       ??_C@_0L@KDOEJCKC@_nextafter?$AA@ 1009e190     LIBCMT:fpexcept.obj
 0002:0000619c       ??_C@_05JGDBENOH@_logb?$AA@ 1009e19c     LIBCMT:fpexcept.obj
 0002:000061a4       ??_C@_03ONILCKOB@_yn?$AA@  1009e1a4     LIBCMT:fpexcept.obj
 0002:000061a8       ??_C@_03NAKIGLHK@_y1?$AA@  1009e1a8     LIBCMT:fpexcept.obj
 0002:000061ac       ??_C@_03MJLDFKDL@_y0?$AA@  1009e1ac     LIBCMT:fpexcept.obj
 0002:000061b0       ??_C@_05GKKHEGJL@frexp?$AA@ 1009e1b0     LIBCMT:fpexcept.obj
 0002:000061b8       ??_C@_04KEPJIHGP@fmod?$AA@ 1009e1b8     LIBCMT:fpexcept.obj
 0002:000061c0       ??_C@_06MEIMCGCF@_hypot?$AA@ 1009e1c0     LIBCMT:fpexcept.obj
 0002:000061c8       ??_C@_05KBKMEMPO@_cabs?$AA@ 1009e1c8     LIBCMT:fpexcept.obj
 0002:000061d0       ??_C@_05CEJMAHNP@ldexp?$AA@ 1009e1d0     LIBCMT:fpexcept.obj
 0002:000061d8       ??_C@_04EHEDPDJG@modf?$AA@ 1009e1d8     LIBCMT:fpexcept.obj
 0002:000061e0       ??_C@_04ODHECPBC@fabs?$AA@ 1009e1e0     LIBCMT:fpexcept.obj
 0002:000061e8       ??_C@_05PBJFFIGL@floor?$AA@ 1009e1e8     LIBCMT:fpexcept.obj
 0002:000061f0       ??_C@_04GFPJNGEK@ceil?$AA@ 1009e1f0     LIBCMT:fpexcept.obj
 0002:000061f8       ??_C@_03IIINPABG@tan?$AA@  1009e1f8     LIBCMT:fpexcept.obj
 0002:000061fc       ??_C@_03LALBNOCG@cos?$AA@  1009e1fc     LIBCMT:fpexcept.obj
 0002:00006200       ??_C@_03BLEJJJBH@sin?$AA@  1009e200     LIBCMT:fpexcept.obj
 0002:00006204       ??_C@_04EIAKFFMI@sqrt?$AA@ 1009e204     LIBCMT:fpexcept.obj
 0002:0000620c       ??_C@_05KNGEOGJB@atan2?$AA@ 1009e20c     LIBCMT:fpexcept.obj
 0002:00006214       ??_C@_04MLLJIGOK@atan?$AA@ 1009e214     LIBCMT:fpexcept.obj
 0002:0000621c       ??_C@_04PDIFKINK@acos?$AA@ 1009e21c     LIBCMT:fpexcept.obj
 0002:00006224       ??_C@_04FIHNOPOL@asin?$AA@ 1009e224     LIBCMT:fpexcept.obj
 0002:0000622c       ??_C@_04FJHINJAO@tanh?$AA@ 1009e22c     LIBCMT:fpexcept.obj
 0002:00006234       ??_C@_04HPJJNFIM@cosh?$AA@ 1009e234     LIBCMT:fpexcept.obj
 0002:0000623c       ??_C@_04COOMCNPB@sinh?$AA@ 1009e23c     LIBCMT:fpexcept.obj
 0002:00006244       ??_C@_05HGHHAHAP@log10?$AA@ 1009e244     LIBCMT:fpexcept.obj
 0002:0000624c       ??_C@_03MGHMBJCF@log?$AA@  1009e24c     LIBCMT:fpexcept.obj
 0002:00006250       ??_C@_03JGHBODFD@pow?$AA@  1009e250     LIBCMT:fpexcept.obj
 0002:00006254       ??_C@_03KHJOGHMM@exp?$AA@  1009e254     LIBCMT:fpexcept.obj
 0002:00006258       ??_C@_0CF@GOGNBNAK@Microsoft?5Visual?5C?$CL?$CL?5Runtime?5Lib@ 1009e258     LIBCMT:secfail.obj
 0002:00006280       ??_C@_09KLGCKDOD@Program?3?5?$AA@ 1009e280     LIBCMT:secfail.obj
 0002:0000628c       ??_C@_02PHMGELLB@?6?6?$AA@ 1009e28c     LIBCMT:secfail.obj
 0002:00006290       ??_C@_03KHICJKCI@?4?4?4?$AA@ 1009e290     LIBCMT:secfail.obj
 0002:00006294       ??_C@_0BH@DNAGHKFM@?$DMprogram?5name?5unknown?$DO?$AA@ 1009e294     LIBCMT:secfail.obj
 0002:000062b0       ??_C@_0KA@JEHFIFGP@A?5buffer?5overrun?5has?5been?5detect@ 1009e2b0     LIBCMT:secfail.obj
 0002:00006350       ??_C@_0BJ@MDEKIEOJ@Buffer?5overrun?5detected?$CB?$AA@ 1009e350     LIBCMT:secfail.obj
 0002:00006370       ??_C@_0LB@BPLHHLFD@A?5security?5error?5of?5unknown?5caus@ 1009e370     LIBCMT:secfail.obj
 0002:00006424       ??_C@_0CD@GMKACBEK@Unknown?5security?5failure?5detecte@ 1009e424     LIBCMT:secfail.obj
 0002:00006454       ??_C@_0P@MIGLKIOC@CorExitProcess?$AA@ 1009e454     LIBCMT:crt0dat.obj
 0002:00006464       ??_C@_0M@MBOPBNBK@mscoree?4dll?$AA@ 1009e464     LIBCMT:crt0dat.obj
 0002:000064f8       ??_C@_04HPAFEEIN@exp2?$AA@ 1009e4f8     LIBCMT:libm_error.obj
 0002:00006500       ??_C@_05EOHGHCHD@exp10?$AA@ 1009e500     LIBCMT:libm_error.obj
 0002:00006508       ??_C@_04KGLCPMCP@log2?$AA@ 1009e508     LIBCMT:libm_error.obj
 0002:00006510       ___lookuptable             1009e510     LIBCMT:output.obj
 0002:0000656c       ??_C@_1O@CEDCILHN@?$AA?$CI?$AAn?$AAu?$AAl?$AAl?$AA?$CJ?$AA?$AA@ 1009e56c     LIBCMT:output.obj
 0002:0000657c       ??_C@_06OJHGLDPL@?$CInull?$CJ?$AA@ 1009e57c     LIBCMT:output.obj
 0002:0000663c       ??_C@_0P@GGKDKEEG@runtime?5error?5?$AA@ 1009e63c     LIBCMT:crt0msg.obj
 0002:0000664c       ??_C@_02PCIJFNDE@?$AN?6?$AA@ 1009e64c     LIBCMT:crt0msg.obj
 0002:00006650       ??_C@_0O@MJNIPGOH@TLOSS?5error?$AN?6?$AA@ 1009e650     LIBCMT:crt0msg.obj
 0002:00006660       ??_C@_0N@BONNPDHF@SING?5error?$AN?6?$AA@ 1009e660     LIBCMT:crt0msg.obj
 0002:00006670       ??_C@_0P@MBDAJNE@DOMAIN?5error?$AN?6?$AA@ 1009e670     LIBCMT:crt0msg.obj
 0002:00006680       ??_C@_0KC@BDDGGBEJ@R6029?$AN?6?9?5This?5application?5cannot@ 1009e680     LIBCMT:crt0msg.obj
 0002:00006724       ??_C@_0CF@KJDAIALP@R6028?$AN?6?9?5unable?5to?5initialize?5he@ 1009e724     LIBCMT:crt0msg.obj
 0002:0000674c       ??_C@_0DF@GAKBPDFP@R6027?$AN?6?9?5not?5enough?5space?5for?5lo@ 1009e74c     LIBCMT:crt0msg.obj
 0002:00006784       ??_C@_0DF@IBLNNAIG@R6026?$AN?6?9?5not?5enough?5space?5for?5st@ 1009e784     LIBCMT:crt0msg.obj
 0002:000067bc       ??_C@_0CG@IOHKGFNJ@R6025?$AN?6?9?5pure?5virtual?5function?5c@ 1009e7bc     LIBCMT:crt0msg.obj
 0002:000067e4       ??_C@_0DF@JIJJFJDC@R6024?$AN?6?9?5not?5enough?5space?5for?5_o@ 1009e7e4     LIBCMT:crt0msg.obj
 0002:0000681c       ??_C@_0CJ@EGEJHFME@R6019?$AN?6?9?5unable?5to?5open?5console?5@ 1009e81c     LIBCMT:crt0msg.obj
 0002:00006848       ??_C@_0CB@GNHNIELH@R6018?$AN?6?9?5unexpected?5heap?5error?$AN?6@ 1009e848     LIBCMT:crt0msg.obj
 0002:0000686c       ??_C@_0CN@FOLDKNG@R6017?$AN?6?9?5unexpected?5multithread?5@ 1009e86c     LIBCMT:crt0msg.obj
 0002:0000689c       ??_C@_0CM@FAHFJNHO@R6016?$AN?6?9?5not?5enough?5space?5for?5th@ 1009e89c     LIBCMT:crt0msg.obj
 0002:000068c8       ??_C@_0JG@LBKMGKLD@?$AN?6This?5application?5has?5requested@ 1009e8c8     LIBCMT:crt0msg.obj
 0002:00006960       ??_C@_0CM@FLCNIPKK@R6009?$AN?6?9?5not?5enough?5space?5for?5en@ 1009e960     LIBCMT:crt0msg.obj
 0002:0000698c       ??_C@_0CK@KMMJOAPP@R6008?$AN?6?9?5not?5enough?5space?5for?5ar@ 1009e98c     LIBCMT:crt0msg.obj
 0002:000069b8       ??_C@_0CF@HOHMHDEK@R6002?$AN?6?9?5floating?5point?5not?5load@ 1009e9b8     LIBCMT:crt0msg.obj
 0002:000069e0       ??_C@_0BK@OFGJDLJJ@Runtime?5Error?$CB?6?6Program?3?5?$AA@ 1009e9e0     LIBCMT:crt0msg.obj
 0002:00006b80       ??_C@_07LCBHPJJN@LC_TIME?$AA@ 1009eb80     LIBCMT:setlocal.obj
 0002:00006b88       ??_C@_0L@DLHIECNL@LC_NUMERIC?$AA@ 1009eb88     LIBCMT:setlocal.obj
 0002:00006b94       ??_C@_0M@MIENIKLA@LC_MONETARY?$AA@ 1009eb94     LIBCMT:setlocal.obj
 0002:00006ba0       ??_C@_08EADHIDAD@LC_CTYPE?$AA@ 1009eba0     LIBCMT:setlocal.obj
 0002:00006bac       ??_C@_0L@KFJHEKIK@LC_COLLATE?$AA@ 1009ebac     LIBCMT:setlocal.obj
 0002:00006bb8       ??_C@_06NEFDFEKB@LC_ALL?$AA@ 1009ebb8     LIBCMT:setlocal.obj
 0002:00006bc0       ??_C@_03EGDHDPFD@_?4?0?$AA@ 1009ebc0     LIBCMT:setlocal.obj
 0002:00006bc4       ??_C@_01LFCBOECM@?4?$AA@   1009ebc4     LIBCMT:setlocal.obj
 0002:00006bc8       ??_C@_01IDAFKMJL@_?$AA@    1009ebc8     LIBCMT:setlocal.obj
 0002:00006bdc       ??_C@_01ICJEACDI@?$DL?$AA@ 1009ebdc     LIBCMT:setlocal.obj
 0002:00006be0       ??_C@_01NEMOKFLO@?$DN?$AA@ 1009ebe0     LIBCMT:setlocal.obj
 0002:00006be2       ??_C@_00CNPNBAHC@?$AA@     1009ebe2     LIBCMT:setlocal.obj
 0002:00006be4       ??_C@_02BALPLPBG@?$DN?$DL?$AA@ 1009ebe4     LIBCMT:setlocal.obj
 0002:00006c14       ??_C@_0BI@DFKBFLJE@GetProcessWindowStation?$AA@ 1009ec14     LIBCMT:crtmbox.obj
 0002:00006c2c       ??_C@_0BK@CIDNPOGP@GetUserObjectInformationA?$AA@ 1009ec2c     LIBCMT:crtmbox.obj
 0002:00006c48       ??_C@_0BD@HHGDFDBJ@GetLastActivePopup?$AA@ 1009ec48     LIBCMT:crtmbox.obj
 0002:00006c5c       ??_C@_0BA@HNOPNCHB@GetActiveWindow?$AA@ 1009ec5c     LIBCMT:crtmbox.obj
 0002:00006c6c       ??_C@_0M@CHKKJDAI@MessageBoxA?$AA@ 1009ec6c     LIBCMT:crtmbox.obj
 0002:00006c78       ??_C@_0L@GMPLCCII@user32?4dll?$AA@ 1009ec78     LIBCMT:crtmbox.obj
 0002:00006c98       ___newctype                1009ec98     LIBCMT:ctype.obj
 0002:00006f98       __wctype                   1009ef98     LIBCMT:ctype.obj
 0002:00007204       ??_C@_0CG@PKBDLMEO@InitializeCriticalSectionAndSpin@ 1009f204     LIBCMT:initcrit.obj
 0002:0000724c       ??_C@_13NOLLCAOD@?$AA?$AA?$AA?$AA@ 1009f24c     LIBCMT:a_map.obj
 0002:00007274       ??_C@_06IMKFLFPG@1?$CDQNAN?$AA@ 1009f274     LIBCMT:x10fout.obj
 0002:0000727c       ??_C@_05DNEBIAHO@1?$CDINF?$AA@ 1009f27c     LIBCMT:x10fout.obj
 0002:00007284       ??_C@_05PHHOCPM@1?$CDIND?$AA@ 1009f284     LIBCMT:x10fout.obj
 0002:0000728c       ??_C@_06PGGFOGJG@1?$CDSNAN?$AA@ 1009f28c     LIBCMT:x10fout.obj
 0002:000072c4       ??_C@_08JCCMCCIL@HH?3mm?3ss?$AA@ 1009f2c4     LIBCMT:strftime.obj
 0002:000072d0       ??_C@_0BE@CKGJFCPC@dddd?0?5MMMM?5dd?0?5yyyy?$AA@ 1009f2d0     LIBCMT:strftime.obj
 0002:000072e4       ??_C@_08BPBNCDIB@MM?1dd?1yy?$AA@ 1009f2e4     LIBCMT:strftime.obj
 0002:000072f0       ??_C@_02CJNFDJBF@PM?$AA@   1009f2f0     LIBCMT:strftime.obj
 0002:000072f4       ??_C@_02DEDBPAFC@AM?$AA@   1009f2f4     LIBCMT:strftime.obj
 0002:000072f8       ??_C@_08EDHMEBNP@December?$AA@ 1009f2f8     LIBCMT:strftime.obj
 0002:00007304       ??_C@_08HCHEGEOA@November?$AA@ 1009f304     LIBCMT:strftime.obj
 0002:00007310       ??_C@_07JJNFCEND@October?$AA@ 1009f310     LIBCMT:strftime.obj
 0002:00007318       ??_C@_09BHHEALKD@September?$AA@ 1009f318     LIBCMT:strftime.obj
 0002:00007324       ??_C@_06LBBHFDDG@August?$AA@ 1009f324     LIBCMT:strftime.obj
 0002:0000732c       ??_C@_04MIEPOIFP@July?$AA@ 1009f32c     LIBCMT:strftime.obj
 0002:00007334       ??_C@_04CNLMGBGM@June?$AA@ 1009f334     LIBCMT:strftime.obj
 0002:0000733c       ??_C@_05DMJDNLEJ@April?$AA@ 1009f33c     LIBCMT:strftime.obj
 0002:00007344       ??_C@_05HPCKOFNC@March?$AA@ 1009f344     LIBCMT:strftime.obj
 0002:0000734c       ??_C@_08GNJGEPFN@February?$AA@ 1009f34c     LIBCMT:strftime.obj
 0002:00007358       ??_C@_07CGJPFGJA@January?$AA@ 1009f358     LIBCMT:strftime.obj
 0002:00007360       ??_C@_03MKABNOCG@Dec?$AA@  1009f360     LIBCMT:strftime.obj
 0002:00007364       ??_C@_03JPJOFNIA@Nov?$AA@  1009f364     LIBCMT:strftime.obj
 0002:00007368       ??_C@_03BMAOKBAD@Oct?$AA@  1009f368     LIBCMT:strftime.obj
 0002:0000736c       ??_C@_03GGCAPAJC@Sep?$AA@  1009f36c     LIBCMT:strftime.obj
 0002:00007370       ??_C@_03IFJFEIGA@Aug?$AA@  1009f370     LIBCMT:strftime.obj
 0002:00007374       ??_C@_03LBGABGKK@Jul?$AA@  1009f374     LIBCMT:strftime.obj
 0002:00007378       ??_C@_03IDFGHECI@Jun?$AA@  1009f378     LIBCMT:strftime.obj
 0002:0000737c       ??_C@_03CNMDKL@May?$AA@    1009f37c     LIBCMT:strftime.obj
 0002:00007380       ??_C@_03LEOLGMJP@Apr?$AA@  1009f380     LIBCMT:strftime.obj
 0002:00007384       ??_C@_03ODNJBKGA@Mar?$AA@  1009f384     LIBCMT:strftime.obj
 0002:00007388       ??_C@_03HJBDCHOM@Feb?$AA@  1009f388     LIBCMT:strftime.obj
 0002:0000738c       ??_C@_03JIHJHPIE@Jan?$AA@  1009f38c     LIBCMT:strftime.obj
 0002:00007390       ??_C@_08INBOOONO@Saturday?$AA@ 1009f390     LIBCMT:strftime.obj
 0002:0000739c       ??_C@_06JECMNKMI@Friday?$AA@ 1009f39c     LIBCMT:strftime.obj
 0002:000073a4       ??_C@_08HACCIKIA@Thursday?$AA@ 1009f3a4     LIBCMT:strftime.obj
 0002:000073b0       ??_C@_09DLIGFAKA@Wednesday?$AA@ 1009f3b0     LIBCMT:strftime.obj
 0002:000073bc       ??_C@_07BAAGCFCM@Tuesday?$AA@ 1009f3bc     LIBCMT:strftime.obj
 0002:000073c4       ??_C@_06JLEDEDGH@Monday?$AA@ 1009f3c4     LIBCMT:strftime.obj
 0002:000073cc       ??_C@_06OOPIFAJ@Sunday?$AA@ 1009f3cc     LIBCMT:strftime.obj
 0002:000073d4       ??_C@_03FEFJNEK@Sat?$AA@   1009f3d4     LIBCMT:strftime.obj
 0002:000073d8       ??_C@_03IDIOELNC@Fri?$AA@  1009f3d8     LIBCMT:strftime.obj
 0002:000073dc       ??_C@_03IOFIKPDN@Thu?$AA@  1009f3dc     LIBCMT:strftime.obj
 0002:000073e0       ??_C@_03MHOMLAJA@Wed?$AA@  1009f3e0     LIBCMT:strftime.obj
 0002:000073e4       ??_C@_03NAGEINEP@Tue?$AA@  1009f3e4     LIBCMT:strftime.obj
 0002:000073e8       ??_C@_03PDAGKDH@Mon?$AA@   1009f3e8     LIBCMT:strftime.obj
 0002:000073ec       ??_C@_03KOEHGMDN@Sun?$AA@  1009f3ec     LIBCMT:strftime.obj
 0002:000073f0       ??_C@_03EBAPMIKO@a?1p?$AA@ 1009f3f0     LIBCMT:strftime.obj
 0002:000073f4       ??_C@_05JAMEPDIN@am?1pm?$AA@ 1009f3f4     LIBCMT:strftime.obj
 0002:00007410       ___rgLocInfo               1009f410     LIBCMT:getqloc.obj
 0002:000078b4       ??_C@_08PKBIPKE@Paraguay?$AA@ 1009f8b4     LIBCMT:getqloc.obj
 0002:000078c0       ??_C@_07GHBIBIBP@Uruguay?$AA@ 1009f8c0     LIBCMT:getqloc.obj
 0002:000078c8       ??_C@_05HBNKAPDN@Chile?$AA@ 1009f8c8     LIBCMT:getqloc.obj
 0002:000078d0       ??_C@_07FEIFIPNF@Ecuador?$AA@ 1009f8d0     LIBCMT:getqloc.obj
 0002:000078d8       ??_C@_09PGNFPGME@Argentina?$AA@ 1009f8d8     LIBCMT:getqloc.obj
 0002:000078e4       ??_C@_04IALPBJF@Peru?$AA@  1009f8e4     LIBCMT:getqloc.obj
 0002:000078ec       ??_C@_08IJPLNLKH@Colombia?$AA@ 1009f8ec     LIBCMT:getqloc.obj
 0002:000078f8       ??_C@_09IDMFKCN@Venezuela?$AA@ 1009f8f8     LIBCMT:getqloc.obj
 0002:00007904       ??_C@_0BD@DNEJOGOK@Dominican?5Republic?$AA@ 1009f904     LIBCMT:getqloc.obj
 0002:00007918       ??_C@_0N@LPINDNDB@South?5Africa?$AA@ 1009f918     LIBCMT:getqloc.obj
 0002:00007928       ??_C@_06BLJPEOBG@Panama?$AA@ 1009f928     LIBCMT:getqloc.obj
 0002:00007930       ??_C@_0L@BOCNDGON@Luxembourg?$AA@ 1009f930     LIBCMT:getqloc.obj
 0002:0000793c       ??_C@_0L@CONEHKA@Costa?5Rica?$AA@ 1009f93c     LIBCMT:getqloc.obj
 0002:00007948       ??_C@_0M@KGBPELAM@Switzerland?$AA@ 1009f948     LIBCMT:getqloc.obj
 0002:00007954       ??_C@_09FJGLIMAG@Guatemala?$AA@ 1009f954     LIBCMT:getqloc.obj
 0002:00007960       ??_C@_06ECHIPDMK@Canada?$AA@ 1009f960     LIBCMT:getqloc.obj
 0002:00007968       ??_C@_0BG@CCEBNPGH@Spanish?5?9?5Modern?5Sort?$AA@ 1009f968     LIBCMT:getqloc.obj
 0002:00007980       ??_C@_09EFGJAPAD@Australia?$AA@ 1009f980     LIBCMT:getqloc.obj
 0002:0000798c       ??_C@_07NEKHPBCG@English?$AA@ 1009f98c     LIBCMT:getqloc.obj
 0002:00007994       ??_C@_07LKIIOGFH@Austria?$AA@ 1009f994     LIBCMT:getqloc.obj
 0002:0000799c       ??_C@_06EDDDIONA@German?$AA@ 1009f99c     LIBCMT:getqloc.obj
 0002:000079a4       ??_C@_07LIIIOFOA@Belgium?$AA@ 1009f9a4     LIBCMT:getqloc.obj
 0002:000079ac       ??_C@_06DIAOLLEH@Mexico?$AA@ 1009f9ac     LIBCMT:getqloc.obj
 0002:000079b4       ??_C@_07PFALJOGE@Spanish?$AA@ 1009f9b4     LIBCMT:getqloc.obj
 0002:000079bc       ??_C@_06FFOOPAJB@Basque?$AA@ 1009f9bc     LIBCMT:getqloc.obj
 0002:000079c4       ??_C@_06DGHNDJFJ@Sweden?$AA@ 1009f9c4     LIBCMT:getqloc.obj
 0002:000079cc       ??_C@_07OBINPKFN@Swedish?$AA@ 1009f9cc     LIBCMT:getqloc.obj
 0002:000079d4       ??_C@_07NCOIHDGC@Iceland?$AA@ 1009f9d4     LIBCMT:getqloc.obj
 0002:000079dc       ??_C@_09JHBBDDIA@Icelandic?$AA@ 1009f9dc     LIBCMT:getqloc.obj
 0002:000079e8       ??_C@_06COBCPIFO@France?$AA@ 1009f9e8     LIBCMT:getqloc.obj
 0002:000079f0       ??_C@_06GODMCAND@French?$AA@ 1009f9f0     LIBCMT:getqloc.obj
 0002:000079f8       ??_C@_07MFHPMOED@Finland?$AA@ 1009f9f8     LIBCMT:getqloc.obj
 0002:00007a00       ??_C@_07MCEAMKOD@Finnish?$AA@ 1009fa00     LIBCMT:getqloc.obj
 0002:00007a08       ??_C@_05CBHOCCK@Spain?$AA@ 1009fa08     LIBCMT:getqloc.obj
 0002:00007a10       ??_C@_0BL@GIOEGDHB@Spanish?5?9?5Traditional?5Sort?$AA@ 1009fa10     LIBCMT:getqloc.obj
 0002:00007a2c       ___rglangidNotDefault      1009fa2c     LIBCMT:getqloc.obj
 0002:00007a40       ___rg_country              1009fa40     LIBCMT:getqloc.obj
 0002:00007af8       ??_C@_0O@FMJNFNKE@united?9states?$AA@ 1009faf8     LIBCMT:getqloc.obj
 0002:00007b08       ??_C@_0P@NDHFFKCA@united?9kingdom?$AA@ 1009fb08     LIBCMT:getqloc.obj
 0002:00007b18       ??_C@_0BC@HHDADLGF@trinidad?5?$CG?5tobago?$AA@ 1009fb18     LIBCMT:getqloc.obj
 0002:00007b2c       ??_C@_0M@IOAEBDAC@south?9korea?$AA@ 1009fb2c     LIBCMT:getqloc.obj
 0002:00007b38       ??_C@_0N@FIELFKIJ@south?9africa?$AA@ 1009fb38     LIBCMT:getqloc.obj
 0002:00007b48       ??_C@_0M@OPNDHCMC@south?5korea?$AA@ 1009fb48     LIBCMT:getqloc.obj
 0002:00007b54       ??_C@_0N@MDEOEPFI@south?5africa?$AA@ 1009fb54     LIBCMT:getqloc.obj
 0002:00007b64       ??_C@_06FKAPCJLB@slovak?$AA@ 1009fb64     LIBCMT:getqloc.obj
 0002:00007b6c       ??_C@_0M@EFJANOAL@puerto?9rico?$AA@ 1009fb6c     LIBCMT:getqloc.obj
 0002:00007b78       ??_C@_08PGOJKDAI@pr?9china?$AA@ 1009fb78     LIBCMT:getqloc.obj
 0002:00007b84       ??_C@_08JHDOMCMI@pr?5china?$AA@ 1009fb84     LIBCMT:getqloc.obj
 0002:00007b90       ??_C@_02JHCHFBLL@nz?$AA@   1009fb90     LIBCMT:getqloc.obj
 0002:00007b94       ??_C@_0M@LINHDHKP@new?9zealand?$AA@ 1009fb94     LIBCMT:getqloc.obj
 0002:00007ba0       ??_C@_09IIIPPBDB@hong?9kong?$AA@ 1009fba0     LIBCMT:getqloc.obj
 0002:00007bac       ??_C@_07HJLCKBG@holland?$AA@ 1009fbac     LIBCMT:getqloc.obj
 0002:00007bb4       ??_C@_0O@LEHGMHAG@great?5britain?$AA@ 1009fbb4     LIBCMT:getqloc.obj
 0002:00007bc4       ??_C@_07FACOMELA@england?$AA@ 1009fbc4     LIBCMT:getqloc.obj
 0002:00007bcc       ??_C@_05JIHCEICB@czech?$AA@ 1009fbcc     LIBCMT:getqloc.obj
 0002:00007bd4       ??_C@_05BBJOBLGB@china?$AA@ 1009fbd4     LIBCMT:getqloc.obj
 0002:00007bdc       ??_C@_07GPKPHICP@britain?$AA@ 1009fbdc     LIBCMT:getqloc.obj
 0002:00007be4       ??_C@_07MHIPBHMG@america?$AA@ 1009fbe4     LIBCMT:getqloc.obj
 0002:00007bf0       ___rg_language             1009fbf0     LIBCMT:getqloc.obj
 0002:00007df8       ??_C@_03KIALPMKC@usa?$AA@  1009fdf8     LIBCMT:getqloc.obj
 0002:00007dfc       ??_C@_02FGJGKGGD@us?$AA@   1009fdfc     LIBCMT:getqloc.obj
 0002:00007e00       ??_C@_02NEINDODK@uk?$AA@   1009fe00     LIBCMT:getqloc.obj
 0002:00007e04       ??_C@_05JMPCFJFJ@swiss?$AA@ 1009fe04     LIBCMT:getqloc.obj
 0002:00007e0c       ??_C@_0BA@HLOCPIOD@swedish?9finland?$AA@ 1009fe0c     LIBCMT:getqloc.obj
 0002:00007e1c       ??_C@_0BC@PKCNIABK@spanish?9venezuela?$AA@ 1009fe1c     LIBCMT:getqloc.obj
 0002:00007e30       ??_C@_0BA@GBHHMIJI@spanish?9uruguay?$AA@ 1009fe30     LIBCMT:getqloc.obj
 0002:00007e40       ??_C@_0BE@BHDOHPMC@spanish?9puerto?5rico?$AA@ 1009fe40     LIBCMT:getqloc.obj
 0002:00007e54       ??_C@_0N@KMOIDGGN@spanish?9peru?$AA@ 1009fe54     LIBCMT:getqloc.obj
 0002:00007e64       ??_C@_0BB@HMHLPGPH@spanish?9paraguay?$AA@ 1009fe64     LIBCMT:getqloc.obj
 0002:00007e78       ??_C@_0P@MCPKNGFD@spanish?9panama?$AA@ 1009fe78     LIBCMT:getqloc.obj
 0002:00007e88       ??_C@_0BC@IHOHGAIL@spanish?9nicaragua?$AA@ 1009fe88     LIBCMT:getqloc.obj
 0002:00007e9c       ??_C@_0P@KLMJDNFJ@spanish?9modern?$AA@ 1009fe9c     LIBCMT:getqloc.obj
 0002:00007eac       ??_C@_0BA@BPAPGBCM@spanish?9mexican?$AA@ 1009feac     LIBCMT:getqloc.obj
 0002:00007ebc       ??_C@_0BB@PDECHHHE@spanish?9honduras?$AA@ 1009febc     LIBCMT:getqloc.obj
 0002:00007ed0       ??_C@_0BC@KLHKFGDB@spanish?9guatemala?$AA@ 1009fed0     LIBCMT:getqloc.obj
 0002:00007ee4       ??_C@_0BE@MFOOKJAI@spanish?9el?5salvador?$AA@ 1009fee4     LIBCMT:getqloc.obj
 0002:00007ef8       ??_C@_0BA@FCOKFPFC@spanish?9ecuador?$AA@ 1009fef8     LIBCMT:getqloc.obj
 0002:00007f08       ??_C@_0BL@PLMGIMOO@spanish?9dominican?5republic?$AA@ 1009ff08     LIBCMT:getqloc.obj
 0002:00007f24       ??_C@_0BD@HLGDNMHB@spanish?9costa?5rica?$AA@ 1009ff24     LIBCMT:getqloc.obj
 0002:00007f38       ??_C@_0BB@PKCBKCPE@spanish?9colombia?$AA@ 1009ff38     LIBCMT:getqloc.obj
 0002:00007f4c       ??_C@_0O@MCBIJGNE@spanish?9chile?$AA@ 1009ff4c     LIBCMT:getqloc.obj
 0002:00007f5c       ??_C@_0BA@BEFEIGJJ@spanish?9bolivia?$AA@ 1009ff5c     LIBCMT:getqloc.obj
 0002:00007f6c       ??_C@_0BC@EMECMPD@spanish?9argentina?$AA@ 1009ff6c     LIBCMT:getqloc.obj
 0002:00007f80       ??_C@_0BF@EALFLENP@portuguese?9brazilian?$AA@ 1009ff80     LIBCMT:getqloc.obj
 0002:00007f98       ??_C@_0BC@HBLEBLNN@norwegian?9nynorsk?$AA@ 1009ff98     LIBCMT:getqloc.obj
 0002:00007fac       ??_C@_0BB@HMACDDCK@norwegian?9bokmal?$AA@ 1009ffac     LIBCMT:getqloc.obj
 0002:00007fc0       ??_C@_09BAFFPPHE@norwegian?$AA@ 1009ffc0     LIBCMT:getqloc.obj
 0002:00007fcc       ??_C@_0O@EAJFJDFG@italian?9swiss?$AA@ 1009ffcc     LIBCMT:getqloc.obj
 0002:00007fdc       ??_C@_0O@CNOMPGD@irish?9english?$AA@ 1009ffdc     LIBCMT:getqloc.obj
 0002:00007fec       ??_C@_0N@EDHBGCKG@german?9swiss?$AA@ 1009ffec     LIBCMT:getqloc.obj
 0002:00007ffc       ??_C@_0BC@JACMHNBP@german?9luxembourg?$AA@ 1009fffc     LIBCMT:getqloc.obj
 0002:00008010       ??_C@_0BE@HBGMGFEG@german?9lichtenstein?$AA@ 100a0010     LIBCMT:getqloc.obj
 0002:00008024       ??_C@_0BA@HKKBIBKL@german?9austrian?$AA@ 100a0024     LIBCMT:getqloc.obj
 0002:00008034       ??_C@_0N@GCAEPEBK@french?9swiss?$AA@ 100a0034     LIBCMT:getqloc.obj
 0002:00008044       ??_C@_0BC@DJFJJCK@french?9luxembourg?$AA@ 100a0044     LIBCMT:getqloc.obj
 0002:00008058       ??_C@_0BA@NNCEDFIC@french?9canadian?$AA@ 100a0058     LIBCMT:getqloc.obj
 0002:00008068       ??_C@_0P@CMPOCLM@french?9belgian?$AA@ 100a0068     LIBCMT:getqloc.obj
 0002:00008078       ??_C@_0M@GHHDJOK@english?9usa?$AA@ 100a0078     LIBCMT:getqloc.obj
 0002:00008084       ??_C@_0L@PLDJKEIL@english?9us?$AA@ 100a0084     LIBCMT:getqloc.obj
 0002:00008090       ??_C@_0L@HJCCDMNC@english?9uk?$AA@ 100a0090     LIBCMT:getqloc.obj
 0002:0000809c       ??_C@_0BK@CKLIAGJB@english?9trinidad?5y?5tobago?$AA@ 100a009c     LIBCMT:getqloc.obj
 0002:000080b8       ??_C@_0BF@JMJMGNNF@english?9south?5africa?$AA@ 100a00b8     LIBCMT:getqloc.obj
 0002:000080d0       ??_C@_0L@DKIIFDFD@english?9nz?$AA@ 100a00d0     LIBCMT:getqloc.obj
 0002:000080dc       ??_C@_0BA@ONHGJCLH@english?9jamaica?$AA@ 100a00dc     LIBCMT:getqloc.obj
 0002:000080ec       ??_C@_0M@HJBGHOPO@english?9ire?$AA@ 100a00ec     LIBCMT:getqloc.obj
 0002:000080f8       ??_C@_0BC@LFEKMIFB@english?9caribbean?$AA@ 100a00f8     LIBCMT:getqloc.obj
 0002:0000810c       ??_C@_0M@OLDPFKHI@english?9can?$AA@ 100a010c     LIBCMT:getqloc.obj
 0002:00008118       ??_C@_0P@OMDEHBMP@english?9belize?$AA@ 100a0118     LIBCMT:getqloc.obj
 0002:00008128       ??_C@_0M@KFHFPFED@english?9aus?$AA@ 100a0128     LIBCMT:getqloc.obj
 0002:00008134       ??_C@_0BB@MNMBKDFE@english?9american?$AA@ 100a0134     LIBCMT:getqloc.obj
 0002:00008148       ??_C@_0O@KIDLNNBA@dutch?9belgian?$AA@ 100a0148     LIBCMT:getqloc.obj
 0002:00008158       ??_C@_0BE@JBKABBMH@chinese?9traditional?$AA@ 100a0158     LIBCMT:getqloc.obj
 0002:0000816c       ??_C@_0BC@MJJMPKCG@chinese?9singapore?$AA@ 100a016c     LIBCMT:getqloc.obj
 0002:00008180       ??_C@_0BD@FDKADDCP@chinese?9simplified?$AA@ 100a0180     LIBCMT:getqloc.obj
 0002:00008194       ??_C@_0BB@DBEFDDME@chinese?9hongkong?$AA@ 100a0194     LIBCMT:getqloc.obj
 0002:000081a8       ??_C@_07DHNMFMCI@chinese?$AA@ 100a01a8     LIBCMT:getqloc.obj
 0002:000081b0       ??_C@_03FNDDCHI@chi?$AA@   100a01b0     LIBCMT:getqloc.obj
 0002:000081b4       ??_C@_03BMMIADDJ@chh?$AA@  100a01b4     LIBCMT:getqloc.obj
 0002:000081b8       ??_C@_08OAIPJDGI@canadian?$AA@ 100a01b8     LIBCMT:getqloc.obj
 0002:000081c4       ??_C@_07HBPMNPNJ@belgian?$AA@ 100a01c4     LIBCMT:getqloc.obj
 0002:000081cc       ??_C@_0L@OEKOPBEL@australian?$AA@ 100a01cc     LIBCMT:getqloc.obj
 0002:000081d8       ??_C@_0BB@MEIMBEDG@american?9english?$AA@ 100a01d8     LIBCMT:getqloc.obj
 0002:000081ec       ??_C@_0BB@DFMDPDGB@american?5english?$AA@ 100a01ec     LIBCMT:getqloc.obj
 0002:00008200       ??_C@_08IJLOKOLL@american?$AA@ 100a0200     LIBCMT:getqloc.obj
 0002:0000820c       ??_C@_03NFKLAGEF@OCP?$AA@  100a020c     LIBCMT:getqloc.obj
 0002:00008210       ??_C@_03DFHEHBHG@ACP?$AA@  100a0210     LIBCMT:getqloc.obj
 0002:00008214       ??_C@_0BC@NFIEMBLL@Norwegian?9Nynorsk?$AA@ 100a0214     LIBCMT:getqloc.obj
 0002:00008254       ___dnames                  100a0254     LIBCMT:timeset.obj
 0002:0000826c       ___mnames                  100a026c     LIBCMT:timeset.obj
 0002:00008294       ??_C@_02CLFPBFFP@TZ?$AA@   100a0294     LIBCMT:tzset.obj
 0002:00008330       __load_config_used         100a0330     LIBCMT:loadcfg.obj
 0002:00009a5c       ??_R1A@?0A@A@exception@@8  100a1a5c     libcpmt:string.obj
 0002:00009a74       ??_R1A@?0A@A@logic_error@std@@8 100a1a74     libcpmt:string.obj
 0002:00009a8c       ??_R2logic_error@std@@8    100a1a8c     libcpmt:string.obj
 0002:00009a98       ??_R3logic_error@std@@8    100a1a98     libcpmt:string.obj
 0002:00009aa8       ??_R4logic_error@std@@6B@  100a1aa8     libcpmt:string.obj
 0002:00009abc       ??_R1A@?0A@A@length_error@std@@8 100a1abc     libcpmt:string.obj
 0002:00009ad4       ??_R2length_error@std@@8   100a1ad4     libcpmt:string.obj
 0002:00009ae4       ??_R3length_error@std@@8   100a1ae4     libcpmt:string.obj
 0002:00009af4       ??_R4length_error@std@@6B@ 100a1af4     libcpmt:string.obj
 0002:00009b08       ??_R1A@?0A@A@out_of_range@std@@8 100a1b08     libcpmt:string.obj
 0002:00009b20       ??_R2out_of_range@std@@8   100a1b20     libcpmt:string.obj
 0002:00009b30       ??_R3out_of_range@std@@8   100a1b30     libcpmt:string.obj
 0002:00009b40       ??_R4out_of_range@std@@6B@ 100a1b40     libcpmt:string.obj
 0002:00009b54       ??_R1A@?0A@A@bad_alloc@std@@8 100a1b54     libcpmt:nomemory.obj
 0002:00009b6c       ??_R2bad_alloc@std@@8      100a1b6c     libcpmt:nomemory.obj
 0002:00009b78       ??_R3bad_alloc@std@@8      100a1b78     libcpmt:nomemory.obj
 0002:00009b88       ??_R4bad_alloc@std@@6B@    100a1b88     libcpmt:nomemory.obj
 0002:00009b9c       ??_R2exception@@8          100a1b9c     LIBCMT:stdexcpt.obj
 0002:00009ba4       ??_R3exception@@8          100a1ba4     LIBCMT:stdexcpt.obj
 0002:00009bb4       ??_R4exception@@6B@        100a1bb4     LIBCMT:stdexcpt.obj
 0002:00009bc8       ??_R1A@?0A@A@bad_cast@@8   100a1bc8     LIBCMT:stdexcpt.obj
 0002:00009be0       ??_R2bad_cast@@8           100a1be0     LIBCMT:stdexcpt.obj
 0002:00009bec       ??_R3bad_cast@@8           100a1bec     LIBCMT:stdexcpt.obj
 0002:00009bfc       ??_R4bad_cast@@6B@         100a1bfc     LIBCMT:stdexcpt.obj
 0002:00009c10       ??_R1A@?0A@A@bad_typeid@@8 100a1c10     LIBCMT:stdexcpt.obj
 0002:00009c28       ??_R2bad_typeid@@8         100a1c28     LIBCMT:stdexcpt.obj
 0002:00009c34       ??_R3bad_typeid@@8         100a1c34     LIBCMT:stdexcpt.obj
 0002:00009c44       ??_R4bad_typeid@@6B@       100a1c44     LIBCMT:stdexcpt.obj
 0002:00009c58       ??_R1A@?0A@A@__non_rtti_object@@8 100a1c58     LIBCMT:stdexcpt.obj
 0002:00009c70       ??_R2__non_rtti_object@@8  100a1c70     LIBCMT:stdexcpt.obj
 0002:00009c80       ??_R3__non_rtti_object@@8  100a1c80     LIBCMT:stdexcpt.obj
 0002:00009c90       ??_R4__non_rtti_object@@6B@ 100a1c90     LIBCMT:stdexcpt.obj
 0002:00009ca4       ??_R1A@?0A@A@type_info@@8  100a1ca4     LIBCMT:typinfo.obj
 0002:00009cbc       ??_R2type_info@@8          100a1cbc     LIBCMT:typinfo.obj
 0002:00009cc4       ??_R3type_info@@8          100a1cc4     LIBCMT:typinfo.obj
 0002:00009cd4       ??_R4type_info@@6B@        100a1cd4     LIBCMT:typinfo.obj
 0002:00009e70       ___safe_se_handler_table   100a1e70     <linker-defined>
 0002:0000a204       ___rtc_iaa                 100a2204     LIBCMT:initsect.obj
 0002:0000a308       ___rtc_izz                 100a2308     LIBCMT:initsect.obj
 0002:0000a40c       ___rtc_taa                 100a240c     LIBCMT:initsect.obj
 0002:0000a510       ___rtc_tzz                 100a2510     LIBCMT:initsect.obj
 0002:0000be94       __CT??_R0?AVexception@@@8??0exception@@QAE@ABV0@@Z12 100a3e94     PhysX:pagemaker.obj
 0002:0000beb0       __CT??_R0?AVlogic_error@std@@@8??0logic_error@std@@QAE@ABV01@@Z40 100a3eb0     PhysX:pagemaker.obj
 0002:0000becc       __CT??_R0?AVlength_error@std@@@8??0length_error@std@@QAE@ABV01@@Z40 100a3ecc     PhysX:pagemaker.obj
 0002:0000bee8       __CTA3?AVlength_error@std@@ 100a3ee8     PhysX:pagemaker.obj
 0002:0000bef8       __TI3?AVlength_error@std@@ 100a3ef8     PhysX:pagemaker.obj
 0002:0000bff8       __CT??_R0?AVout_of_range@std@@@8??0out_of_range@std@@QAE@ABV01@@Z40 100a3ff8     libcpmt:string.obj
 0002:0000c014       __CTA3?AVout_of_range@std@@ 100a4014     libcpmt:string.obj
 0002:0000c024       __TI3?AVout_of_range@std@@ 100a4024     libcpmt:string.obj
 0002:0000c07c       __CT??_R0?AVbad_alloc@std@@@8??0bad_alloc@std@@QAE@ABV01@@Z12 100a407c     libcpmt:nomemory.obj
 0002:0000c098       __CTA2?AVbad_alloc@std@@   100a4098     libcpmt:nomemory.obj
 0002:0000c0a4       __TI2?AVbad_alloc@std@@    100a40a4     libcpmt:nomemory.obj
 0003:00000000       ___xc_a                    100a5000     LIBCMT:crt0init.obj
 0003:00000324       ___xc_z                    100a5324     LIBCMT:crt0init.obj
 0003:00000428       ___xi_a                    100a5428     LIBCMT:crt0init.obj
 0003:00000744       ___xi_z                    100a5744     LIBCMT:crt0init.obj
 0003:00000848       ___xp_a                    100a5848     LIBCMT:crt0init.obj
 0003:00000a50       ___xp_z                    100a5a50     LIBCMT:crt0init.obj
 0003:00000b54       ___xt_a                    100a5b54     LIBCMT:crt0init.obj
 0003:00000d5c       ___xt_z                    100a5d5c     LIBCMT:crt0init.obj
 0003:00000e70       ?planetestepsilon@@3MA     100a5e70     hulllib.obj
 0003:00000e74       ?minadjangle@@3MA          100a5e74     hulllib.obj
 0003:00000e80       ?primes@@3PAIA             100a5e80     FluidMeshCooker.obj
 0003:00001284       ?nxAllocaThreshold@NxFoundation@@3IA 100a6284     FoundationSDK.obj
 0003:00001288       ?nxAutoThreshold@NxFoundation@@3_NA 100a6288     FoundationSDK.obj
 0003:00001290       ?ticksToMS@ProfilerClock@NxFoundation@@2_KA 100a6290     Profiler.obj
 0003:00001b70       ??_R0?AVexception@@@8      100a6b70     PhysX:pagemaker.obj
 0003:00001b88       ??_R0?AVlogic_error@std@@@8 100a6b88     PhysX:pagemaker.obj
 0003:00001ba8       ??_R0?AVlength_error@std@@@8 100a6ba8     PhysX:pagemaker.obj
 0003:00001bc8       ??_R0?AVout_of_range@std@@@8 100a6bc8     libcpmt:string.obj
 0003:00001be8       ??_R0?AVbad_alloc@std@@@8  100a6be8     libcpmt:nomemory.obj
 0003:00001c04       __fltused                  100a6c04     LIBCMT:fpinit.obj
 0003:00001c08       __ldused                   100a6c08     LIBCMT:fpinit.obj
 0003:00001c0c       __FPinit                   100a6c0c     LIBCMT:fpinit.obj
 0003:00001c10       __FPmtinit                 100a6c10     LIBCMT:fpinit.obj
 0003:00001c14       __FPmtterm                 100a6c14     LIBCMT:fpinit.obj
 0003:00001c18       __NLG_Destination          100a6c18     LIBCMT:exsup.obj
 0003:00001c40       __half                     100a6c40     LIBCMT:pow.obj
 0003:00001c4c       ___security_cookie         100a6c4c     LIBCMT:seccook.obj
 0003:00001c60       __aexit_rtn                100a6c60     LIBCMT:dllcrt0.obj
 0003:00001c70       ?__pMyUnhandledExceptionFilter@@3PAXA 100a6c70     LIBCMT:throw.obj
 0003:00001c74       ??_R0?AVbad_cast@@@8       100a6c74     LIBCMT:stdexcpt.obj
 0003:00001c8c       ??_R0?AVbad_typeid@@@8     100a6c8c     LIBCMT:stdexcpt.obj
 0003:00001ca8       ??_R0?AV__non_rtti_object@@@8 100a6ca8     LIBCMT:stdexcpt.obj
 0003:00001cc8       ??_R0?AVtype_info@@@8      100a6cc8     LIBCMT:typinfo.obj
 0003:00001ce0       __cfltcvt_tab              100a6ce0     LIBCMT:cmiscdat.obj
 0003:00001cfc       ___tlsindex                100a6cfc     LIBCMT:tidtable.obj
 0003:00001d00       ?__pInconsistency@@3P6AXXZA 100a6d00     LIBCMT:hooks.obj
 0003:00001d10       __indefinite               100a6d10     LIBCMT:87disp.obj
 0003:00001d1a       __piby2                    100a6d1a     LIBCMT:87disp.obj
 0003:00001d40       __infinity                 100a6d40     LIBCMT:87tran.obj
 0003:00001d4a       __minfinity                100a6d4a     LIBCMT:87tran.obj
 0003:00001d54       __logemax                  100a6d54     LIBCMT:87tran.obj
 0003:00001d7a       __OP_EXPjmptab             100a6d7a     LIBCMT:87tran.obj
 0003:00001da0       __d_inf                    100a6da0     LIBCMT:util.obj
 0003:00001da8       __d_ind                    100a6da8     LIBCMT:util.obj
 0003:00001db0       __d_max                    100a6db0     LIBCMT:util.obj
 0003:00001db8       __d_min                    100a6db8     LIBCMT:util.obj
 0003:00001dc0       __d_mzero                  100a6dc0     LIBCMT:util.obj
 0003:00001ec8       __pmatherr                 100a6ec8     LIBCMT:libm_error.obj
 0003:00001ed0       __iob                      100a6ed0     LIBCMT:_file.obj
 0003:00002150       ___nullstring              100a7150     LIBCMT:output.obj
 0003:00002154       ___wnullstring             100a7154     LIBCMT:output.obj
 0003:000023e0       __amblksiz                 100a73e0     LIBCMT:heapinit.obj
 0003:000023e4       ___badioinfo               100a73e4     LIBCMT:ioinit.obj
 0003:00002410       __XcptActTab               100a7410     LIBCMT:winxfltr.obj
 0003:00002488       __First_FPE_Indx           100a7488     LIBCMT:winxfltr.obj
 0003:0000248c       __Num_FPE                  100a748c     LIBCMT:winxfltr.obj
 0003:00002490       __XcptActTabSize           100a7490     LIBCMT:winxfltr.obj
 0003:00002494       __XcptActTabCount          100a7494     LIBCMT:winxfltr.obj
 0003:00002530       ___mb_cur_max              100a7530     LIBCMT:nlsdata1.obj
 0003:00002534       ___decimal_point           100a7534     LIBCMT:nlsdata1.obj
 0003:00002538       ___decimal_point_length    100a7538     LIBCMT:nlsdata1.obj
 0003:00002578       ___initiallocinfo          100a7578     LIBCMT:setlocal.obj
 0003:000025cc       ___ptlocinfo               100a75cc     LIBCMT:setlocal.obj
 0003:00002708       ___lc_category             100a7708     LIBCMT:setlocal.obj
 0003:000029b0       __matherr_flag             100a79b0     LIBCMT:matherr.obj
 0003:000029c0       __pctype                   100a79c0     LIBCMT:ctype.obj
 0003:000029c4       __pwctype                  100a79c4     LIBCMT:ctype.obj
 0003:000029d0       ___lc_time_curr            100a79d0     LIBCMT:strftime.obj
 0003:000029d8       ___lc_time_c               100a79d8     LIBCMT:strftime.obj
 0003:00002a90       ___lconv_static_decimal    100a7a90     LIBCMT:lconv.obj
 0003:00002a94       ___lconv_c                 100a7a94     LIBCMT:lconv.obj
 0003:00002ac4       ___lconv                   100a7ac4     LIBCMT:lconv.obj
 0003:00002ad0       ___lc_clike                100a7ad0     LIBCMT:nlsdata2.obj
 0003:00002ae0       __timezone                 100a7ae0     LIBCMT:timeset.obj
 0003:00002ae4       __daylight                 100a7ae4     LIBCMT:timeset.obj
 0003:00002ae8       __dstbias                  100a7ae8     LIBCMT:timeset.obj
 0003:00002b70       __tzname                   100a7b70     LIBCMT:timeset.obj
 0003:00002b90       __pow10pos                 100a7b90     LIBCMT:constpow.obj
 0003:00002cf0       __pow10neg                 100a7cf0     LIBCMT:constpow.obj
 0003:00002e4c       __lpdays                   100a7e4c     LIBCMT:days.obj
 0003:00002e80       __days                     100a7e80     LIBCMT:days.obj
 0003:000036f0       ?countpolyhit@@3HA         100a86f0     hulllib.obj
 0003:000037cc       ?nxFoundationSDKAllocator@NxFoundation@@3PAVNxUserAllocator@@A 100a87cc     FoundationSDK.obj
 0003:000037d0       ?instance@FoundationSDK@NxFoundation@@0PAV12@A 100a87d0     FoundationSDK.obj
 0003:000037d4       ?defaultSDKAllocator@FoundationSDK@NxFoundation@@2VNxUserAllocatorDefault@@A 100a87d4     FoundationSDK.obj
 0003:000037e0       ?baseTime@ProfilerClock@NxFoundation@@2_KA 100a87e0     Profiler.obj
 0003:00003804       ?T@?1??DIST_PRIM@PointDistanceQuery@Opcode@@AAEXI@Z@4VIndexedTriangle@IceMaths@@A 100a8804     OPC_PointDistance.obj
 0003:00003814       ??_B?1??DIST_PRIM@PointDistanceQuery@Opcode@@AAEXI@Z@51 100a8814     OPC_PointDistance.obj
 0003:00003a74       ___fastflag                100a8a74     LIBCMT:fpinit.obj
 0003:00003a78       __adjust_fdiv              100a8a78     LIBCMT:fpinit.obj
 0003:00003a7c       ___pPurecall               100a8a7c     LIBCMT:purevirt.obj
 0003:00003a84       __aenvptr                  100a8a84     LIBCMT:dllcrt0.obj
 0003:00003a88       __wenvptr                  100a8a88     LIBCMT:dllcrt0.obj
 0003:00003a8c       ___error_mode              100a8a8c     LIBCMT:dllcrt0.obj
 0003:00003a90       ___app_type                100a8a90     LIBCMT:dllcrt0.obj
 0003:00003a94       ?_pnhHeap@@3P6AHI@ZA       100a8a94     LIBCMT:handler.obj
 0003:00003a98       _gpFlsAlloc                100a8a98     LIBCMT:tidtable.obj
 0003:00003a9c       _gpFlsGetValue             100a8a9c     LIBCMT:tidtable.obj
 0003:00003aa0       _gpFlsSetValue             100a8aa0     LIBCMT:tidtable.obj
 0003:00003aa4       _gpFlsFree                 100a8aa4     LIBCMT:tidtable.obj
 0003:00003aac       __umaskval                 100a8aac     LIBCMT:crt0dat.obj
 0003:00003ab0       __osplatform               100a8ab0     LIBCMT:crt0dat.obj
 0003:00003ab4       __osver                    100a8ab4     LIBCMT:crt0dat.obj
 0003:00003ab8       __winver                   100a8ab8     LIBCMT:crt0dat.obj
 0003:00003abc       __winmajor                 100a8abc     LIBCMT:crt0dat.obj
 0003:00003ac0       __winminor                 100a8ac0     LIBCMT:crt0dat.obj
 0003:00003ac4       ___argc                    100a8ac4     LIBCMT:crt0dat.obj
 0003:00003ac8       ___argv                    100a8ac8     LIBCMT:crt0dat.obj
 0003:00003acc       ___wargv                   100a8acc     LIBCMT:crt0dat.obj
 0003:00003ad0       __environ                  100a8ad0     LIBCMT:crt0dat.obj
 0003:00003ad4       ___initenv                 100a8ad4     LIBCMT:crt0dat.obj
 0003:00003ad8       __wenviron                 100a8ad8     LIBCMT:crt0dat.obj
 0003:00003adc       ___winitenv                100a8adc     LIBCMT:crt0dat.obj
 0003:00003ae0       __pgmptr                   100a8ae0     LIBCMT:crt0dat.obj
 0003:00003ae4       __wpgmptr                  100a8ae4     LIBCMT:crt0dat.obj
 0003:00003ae8       __exitflag                 100a8ae8     LIBCMT:crt0dat.obj
 0003:00003aec       __C_Termination_Done       100a8aec     LIBCMT:crt0dat.obj
 0003:00003af0       __C_Exit_Done              100a8af0     LIBCMT:crt0dat.obj
 0003:00003af4       __cflush                   100a8af4     LIBCMT:_file.obj
 0003:00003af8       __stdbuf                   100a8af8     LIBCMT:_sftbuf.obj
 0003:00003c50       __newmode                  100a8c50     LIBCMT:_newmode.obj
 0003:00003d64       __adbgmsg                  100a8d64     LIBCMT:crt0msg.obj
 0003:00003de0       __commode                  100a8de0     LIBCMT:ncommode.obj
 0003:00003e00       ___lconv_static_null       100a8e00     LIBCMT:lconv.obj
 0003:00003e04       ___lc_time_intl            100a8e04     LIBCMT:inittime.obj
 0003:00003e08       ___lconv_intl              100a8e08     LIBCMT:initmon.obj
 0003:00003e30       ___lc_handle               100a8e30     LIBCMT:nlsdata2.obj
 0003:00003e48       ___lc_codepage             100a8e48     LIBCMT:nlsdata2.obj
 0003:00003e4c       ___lc_collate_cp           100a8e4c     LIBCMT:nlsdata2.obj
 0003:00003e54       ___lc_id                   100a8e54     LIBCMT:nlsdata3.obj
 0003:00003e78       __fmode                    100a8e78     LIBCMT:txtmode.obj
 0003:00003f4c       ___ctype1                  100a8f4c     <common>
 0003:00003f5c       ___ctype1_refcount         100a8f5c     <common>
 0003:00003f60       ___lconv_mon_refcount      100a8f60     <common>
 0003:00003f70       ___lconv_intl_refcount     100a8f70     <common>
 0003:00003f74       ___lconv_num_refcount      100a8f74     <common>
 0003:00003f80       ___mblcid                  100a8f80     <common>
 0003:00003ff8       ___ptmbcinfo               100a8ff8     <common>
 0003:00003ffc       ___ismbcodepage            100a8ffc     <common>
 0003:00004000       __mbctype                  100a9000     <common>
 0003:00004104       ___mbcodepage              100a9104     <common>
 0003:00004110       ___mbulinfo                100a9110     <common>
 0003:00004120       __mbcasemap                100a9120     <common>
 0003:00004220       ___setlc_active            100a9220     <common>
 0003:00004230       ___unguarded_readlc_active 100a9230     <common>
 0003:00004234       __nhandle                  100a9234     <common>
 0003:00004280       ___pioinfo                 100a9280     <common>
 0003:00004380       ___sbh_initialized         100a9380     <common>
 0003:00004394       ___sbh_pHeaderDefer        100a9394     <common>
 0003:00004398       ___sbh_cntHeaderList       100a9398     <common>
 0003:0000439c       ___sbh_pHeaderList         100a939c     <common>
 0003:000043a0       ___sbh_threshold           100a93a0     <common>
 0003:000043a4       ___sbh_pHeaderScan         100a93a4     <common>
 0003:000043a8       ___sbh_sizeHeaderList      100a93a8     <common>
 0003:000043ac       ___sbh_indGroupDefer       100a93ac     <common>
 0003:000043b0       __crtheap                  100a93b0     <common>
 0003:000043c0       ___active_heap             100a93c0     <common>
 0003:000043c4       ___piob                    100a93c4     <common>
 0003:00004720       __bufin                    100a9720     <common>
 0003:00005720       __nstream                  100aa720     <common>
 0003:00005724       ___env_initialized         100aa724     <common>
 0003:00005734       ___onexitend               100aa734     <common>
 0003:00005738       ___onexitbegin             100aa738     <common>
 0003:0000573c       ___mbctype_initialized     100aa73c     <common>
 0003:00005740       ___use_sse2_mathfcns       100aa740     <common>
 0003:00005750       ___sse2_available          100aa750     <common>
 0003:00005754       __acmdln                   100aa754     <common>
 0003:00005764       __pRawDllMain              100aa764     <common>
 0004:00000000       __IMPORT_DESCRIPTOR_KERNEL32 100ab000     kernel32:KERNEL32.dll
 0004:00000014       __NULL_IMPORT_DESCRIPTOR   100ab014     kernel32:KERNEL32.dll
 0004:00000224       __imp__InitializeCriticalSection@4 100ab224     kernel32:KERNEL32.dll
 0004:00000228       __imp__DeleteCriticalSection@4 100ab228     kernel32:KERNEL32.dll
 0004:0000022c       __imp__GetCurrentThreadId@0 100ab22c     kernel32:KERNEL32.dll
 0004:00000230       __imp__InterlockedCompareExchange@12 100ab230     kernel32:KERNEL32.dll
 0004:00000234       __imp__EnterCriticalSection@4 100ab234     kernel32:KERNEL32.dll
 0004:00000238       __imp__LeaveCriticalSection@4 100ab238     kernel32:KERNEL32.dll
 0004:0000023c       __imp__CreateEventA@16     100ab23c     kernel32:KERNEL32.dll
 0004:00000240       __imp__CloseHandle@4       100ab240     kernel32:KERNEL32.dll
 0004:00000244       __imp__ResetEvent@4        100ab244     kernel32:KERNEL32.dll
 0004:00000248       __imp__SetEvent@4          100ab248     kernel32:KERNEL32.dll
 0004:0000024c       __imp__WaitForSingleObject@8 100ab24c     kernel32:KERNEL32.dll
 0004:00000250       __imp__WaitForMultipleObjects@16 100ab250     kernel32:KERNEL32.dll
 0004:00000254       __imp__CreateThread@24     100ab254     kernel32:KERNEL32.dll
 0004:00000258       __imp__InterlockedIncrement@4 100ab258     kernel32:KERNEL32.dll
 0004:0000025c       __imp__ExitThread@4        100ab25c     kernel32:KERNEL32.dll
 0004:00000260       __imp__TerminateThread@8   100ab260     kernel32:KERNEL32.dll
 0004:00000264       __imp__Sleep@4             100ab264     kernel32:KERNEL32.dll
 0004:00000268       __imp__SetThreadAffinityMask@8 100ab268     kernel32:KERNEL32.dll
 0004:0000026c       __imp__SetThreadPriority@8 100ab26c     kernel32:KERNEL32.dll
 0004:00000270       __imp__TlsSetValue@8       100ab270     kernel32:KERNEL32.dll
 0004:00000274       __imp__QueryPerformanceFrequency@4 100ab274     kernel32:KERNEL32.dll
 0004:00000278       __imp__QueryPerformanceCounter@4 100ab278     kernel32:KERNEL32.dll
 0004:0000027c       __imp__RtlUnwind@16        100ab27c     kernel32:KERNEL32.dll
 0004:00000280       __imp__ExitProcess@4       100ab280     kernel32:KERNEL32.dll
 0004:00000284       __imp__HeapAlloc@12        100ab284     kernel32:KERNEL32.dll
 0004:00000288       __imp__HeapReAlloc@16      100ab288     kernel32:KERNEL32.dll
 0004:0000028c       __imp__HeapFree@12         100ab28c     kernel32:KERNEL32.dll
 0004:00000290       __imp__GetCommandLineA@0   100ab290     kernel32:KERNEL32.dll
 0004:00000294       __imp__GetVersionExA@4     100ab294     kernel32:KERNEL32.dll
 0004:00000298       __imp__RaiseException@16   100ab298     kernel32:KERNEL32.dll
 0004:0000029c       __imp__GetProcAddress@8    100ab29c     kernel32:KERNEL32.dll
 0004:000002a0       __imp__GetModuleHandleA@4  100ab2a0     kernel32:KERNEL32.dll
 0004:000002a4       __imp__TlsAlloc@0          100ab2a4     kernel32:KERNEL32.dll
 0004:000002a8       __imp__SetLastError@4      100ab2a8     kernel32:KERNEL32.dll
 0004:000002ac       __imp__GetLastError@0      100ab2ac     kernel32:KERNEL32.dll
 0004:000002b0       __imp__GetCurrentThread@0  100ab2b0     kernel32:KERNEL32.dll
 0004:000002b4       __imp__TlsFree@4           100ab2b4     kernel32:KERNEL32.dll
 0004:000002b8       __imp__TlsGetValue@4       100ab2b8     kernel32:KERNEL32.dll
 0004:000002bc       __imp__GetTickCount@0      100ab2bc     kernel32:KERNEL32.dll
 0004:000002c0       __imp__GetCurrentProcessId@0 100ab2c0     kernel32:KERNEL32.dll
 0004:000002c4       __imp__GetSystemTimeAsFileTime@4 100ab2c4     kernel32:KERNEL32.dll
 0004:000002c8       __imp__GetModuleFileNameA@12 100ab2c8     kernel32:KERNEL32.dll
 0004:000002cc       __imp__TerminateProcess@8  100ab2cc     kernel32:KERNEL32.dll
 0004:000002d0       __imp__GetCurrentProcess@0 100ab2d0     kernel32:KERNEL32.dll
 0004:000002d4       __imp__HeapSize@12         100ab2d4     kernel32:KERNEL32.dll
 0004:000002d8       __imp__FatalAppExitA@8     100ab2d8     kernel32:KERNEL32.dll
 0004:000002dc       __imp__HeapDestroy@4       100ab2dc     kernel32:KERNEL32.dll
 0004:000002e0       __imp__HeapCreate@12       100ab2e0     kernel32:KERNEL32.dll
 0004:000002e4       __imp__VirtualFree@12      100ab2e4     kernel32:KERNEL32.dll
 0004:000002e8       __imp__VirtualAlloc@16     100ab2e8     kernel32:KERNEL32.dll
 0004:000002ec       __imp__IsBadWritePtr@8     100ab2ec     kernel32:KERNEL32.dll
 0004:000002f0       __imp__SetHandleCount@4    100ab2f0     kernel32:KERNEL32.dll
 0004:000002f4       __imp__GetStdHandle@4      100ab2f4     kernel32:KERNEL32.dll
 0004:000002f8       __imp__GetFileType@4       100ab2f8     kernel32:KERNEL32.dll
 0004:000002fc       __imp__GetStartupInfoA@4   100ab2fc     kernel32:KERNEL32.dll
 0004:00000300       __imp__SetFilePointer@16   100ab300     kernel32:KERNEL32.dll
 0004:00000304       __imp__WriteFile@20        100ab304     kernel32:KERNEL32.dll
 0004:00000308       __imp__ReadFile@20         100ab308     kernel32:KERNEL32.dll
 0004:0000030c       __imp__FreeEnvironmentStringsA@4 100ab30c     kernel32:KERNEL32.dll
 0004:00000310       __imp__GetEnvironmentStrings@0 100ab310     kernel32:KERNEL32.dll
 0004:00000314       __imp__FreeEnvironmentStringsW@4 100ab314     kernel32:KERNEL32.dll
 0004:00000318       __imp__WideCharToMultiByte@32 100ab318     kernel32:KERNEL32.dll
 0004:0000031c       __imp__GetEnvironmentStringsW@0 100ab31c     kernel32:KERNEL32.dll
 0004:00000320       __imp__UnhandledExceptionFilter@4 100ab320     kernel32:KERNEL32.dll
 0004:00000324       __imp__SetUnhandledExceptionFilter@4 100ab324     kernel32:KERNEL32.dll
 0004:00000328       __imp__IsBadReadPtr@8      100ab328     kernel32:KERNEL32.dll
 0004:0000032c       __imp__IsBadCodePtr@4      100ab32c     kernel32:KERNEL32.dll
 0004:00000330       __imp__GetACP@0            100ab330     kernel32:KERNEL32.dll
 0004:00000334       __imp__GetOEMCP@0          100ab334     kernel32:KERNEL32.dll
 0004:00000338       __imp__GetCPInfo@8         100ab338     kernel32:KERNEL32.dll
 0004:0000033c       __imp__InterlockedExchange@8 100ab33c     kernel32:KERNEL32.dll
 0004:00000340       __imp__VirtualQuery@12     100ab340     kernel32:KERNEL32.dll
 0004:00000344       __imp__LoadLibraryA@4      100ab344     kernel32:KERNEL32.dll
 0004:00000348       __imp__SetStdHandle@8      100ab348     kernel32:KERNEL32.dll
 0004:0000034c       __imp__FlushFileBuffers@4  100ab34c     kernel32:KERNEL32.dll
 0004:00000350       __imp__CreateFileA@28      100ab350     kernel32:KERNEL32.dll
 0004:00000354       __imp__LCMapStringA@24     100ab354     kernel32:KERNEL32.dll
 0004:00000358       __imp__MultiByteToWideChar@24 100ab358     kernel32:KERNEL32.dll
 0004:0000035c       __imp__LCMapStringW@24     100ab35c     kernel32:KERNEL32.dll
 0004:00000360       __imp__SetConsoleCtrlHandler@8 100ab360     kernel32:KERNEL32.dll
 0004:00000364       __imp__GetTimeFormatA@24   100ab364     kernel32:KERNEL32.dll
 0004:00000368       __imp__GetDateFormatA@24   100ab368     kernel32:KERNEL32.dll
 0004:0000036c       __imp__GetUserDefaultLCID@0 100ab36c     kernel32:KERNEL32.dll
 0004:00000370       __imp__GetLocaleInfoA@16   100ab370     kernel32:KERNEL32.dll
 0004:00000374       __imp__EnumSystemLocalesA@8 100ab374     kernel32:KERNEL32.dll
 0004:00000378       __imp__IsValidLocale@8     100ab378     kernel32:KERNEL32.dll
 0004:0000037c       __imp__IsValidCodePage@4   100ab37c     kernel32:KERNEL32.dll
 0004:00000380       __imp__GetStringTypeA@20   100ab380     kernel32:KERNEL32.dll
 0004:00000384       __imp__GetStringTypeW@16   100ab384     kernel32:KERNEL32.dll
 0004:00000388       __imp__SetEndOfFile@4      100ab388     kernel32:KERNEL32.dll
 0004:0000038c       __imp__VirtualProtect@16   100ab38c     kernel32:KERNEL32.dll
 0004:00000390       __imp__GetSystemInfo@4     100ab390     kernel32:KERNEL32.dll
 0004:00000394       __imp__GetTimeZoneInformation@4 100ab394     kernel32:KERNEL32.dll
 0004:00000398       __imp__GetLocaleInfoW@16   100ab398     kernel32:KERNEL32.dll
 0004:0000039c       __imp__CompareStringA@24   100ab39c     kernel32:KERNEL32.dll
 0004:000003a0       __imp__CompareStringW@24   100ab3a0     kernel32:KERNEL32.dll
 0004:000003a4       __imp__SetEnvironmentVariableA@8 100ab3a4     kernel32:KERNEL32.dll
 0004:000003a8       \177KERNEL32_NULL_THUNK_DATA 100ab3a8     kernel32:KERNEL32.dll

 entry point at        0001:00079bae

