 PhysXCore

 Timestamp is 492bb41b (Tue Nov 25 17:15:23 2008)

 Preferred load address is 10000000

 Start         Length     Name                   Class
 0001:00000000 00329413H .text                   CODE
 0001:00329420 0000bb4cH .text$x                 CODE
 0001:00334f70 000011acH .text$yc                CODE
 0001:00336120 000011d7H .text$yd                CODE
 0002:00000000 00028366H .rdata                  DATA
 0002:00028368 00000176H .rdata$debug            DATA
 0002:000284e0 000005dbH .rdata$r                DATA
 0002:00028ac0 00001296H .rdata$sxdata           DATA
 0002:00029d58 00000104H .rtc$IAA                DATA
 0002:00029e5c 00000104H .rtc$IZZ                DATA
 0002:00029f60 00000104H .rtc$TAA                DATA
 0002:0002a064 00000104H .rtc$TZZ                DATA
 0002:0002a168 0000c104H .xdata$x                DATA
 0002:00036270 00000266H .edata                  DATA
 0003:00000000 00000104H .CRT$XCA                DATA
 0003:00000104 00000104H .CRT$XCAA               DATA
 0003:00000208 0000010eH .CRT$XCC                DATA
 0003:00000318 0000014aH .CRT$XCU                DATA
 0003:00000464 00000104H .CRT$XCZ                DATA
 0003:00000568 00000104H .CRT$XIA                DATA
 0003:0000066c 00000113H .CRT$XIC                DATA
 0003:00000780 00000104H .CRT$XIY                DATA
 0003:00000884 00000104H .CRT$XIZ                DATA
 0003:00000988 00000104H .CRT$XPA                DATA
 0003:00000a8c 00000104H .CRT$XPX                DATA
 0003:00000b90 00000104H .CRT$XPZ                DATA
 0003:00000c94 00000104H .CRT$XTA                DATA
 0003:00000d98 00000104H .CRT$XTB                DATA
 0003:00000e9c 00000104H .CRT$XTZ                DATA
 0003:00000fa0 000040fcH .data                   DATA
 0003:000050a0 000036b0H .bss                    DATA
 0004:00000000 00000050H .idata$2                DATA
 0004:00000050 00000014H .idata$3                DATA
 0004:00000064 00000300H .idata$4                DATA
 0004:00000364 00000300H .idata$5                DATA
 0004:00000664 00000a95H .idata$6                DATA

  Address         Publics by Value              Rva+Base     Lib:Object

 0000:00000000       __except_list              00000000     <absolute>
 0000:000003aa       ___safe_se_handler_count   000003aa     <absolute>
 0001:00011a90       ??0NxVec3@@QAE@M@Z         10012a90 f i PhysicsSDK.obj
 0001:00011ab0       ??0NxVec3@@QAE@MMM@Z       10012ab0 f i PhysicsSDK.obj
 0001:00011ad0       ??1NxMat33@@QAE@XZ         10012ad0 f i PhysicsSDK.obj
 0001:00011ae0       ?zero@NxMat33@@QAEXXZ      10012ae0 f i PhysicsSDK.obj
 0001:00011b10       ?id@NxMat33@@QAEXXZ        10012b10 f i PhysicsSDK.obj
 0001:00011b40       ??1NvPhysicsSDK@@IAE@XZ    10012b40 f i PhysicsSDK.obj
 0001:00011b50       ??2NxAllocateable@NxFoundation@@SAPAXIW4NxMemoryType@@@Z 10012b50 f i PhysicsSDK.obj
 0001:00011b70       ??3NxAllocateable@NxFoundation@@SAXPAXW4NxMemoryType@@@Z 10012b70 f i PhysicsSDK.obj
 0001:00011b90       ?setInstance@FoundationSDK@NxFoundation@@SAXPAV12@@Z 10012b90 f i PhysicsSDK.obj
 0001:00011ba0       ?getInstance@FoundationSDK@NxFoundation@@SAAAV12@XZ 10012ba0 f i PhysicsSDK.obj
 0001:00011bc0       ?error@FoundationSDK@NxFoundation@@SA_NW4NxErrorCode@@PBDHPA_N1ZZ 10012bc0 f i PhysicsSDK.obj
 0001:00011c10       ??_H@YGXPAXIHP6EPAX0@Z@Z   10012c10 f i PhysicsSDK.obj
 0001:00011c50       ?isValid@PxScene@@QBE_NXZ  10012c50 f i PhysicsSDK.obj
 0001:00011c80       ??0NvCCDSkeleton@@QAE@XZ   10012c80 f i PhysicsSDK.obj
 0001:00011c90       ?isValid@Scene@@QBE_NXZ    10012c90 f i PhysicsSDK.obj
 0001:00011cc0       ??0Allocator@IceCore@@QAE@XZ 10012cc0 f i PhysicsSDK.obj
 0001:00011d90       ??0NvPhysicsSDK@@QAE@XZ    10012d90 f i PhysicsSDK.obj
 0001:00011da0       ??1PhysicsSDK@@UAE@XZ      10012da0 f   PhysicsSDK.obj
 0001:00011e20       ?getNbPPUs@PhysicsSDK@@UBEIXZ 10012e20 f i PhysicsSDK.obj
 0001:00011e30       ?getPPUConnection@PhysicsSDK@@UBEPAVAgPPUConnection@@I@Z 10012e30 f i PhysicsSDK.obj
 0001:00011e40       ?setParameter@PhysicsSDK@@UAE_NW4NxParameter@@M@Z 10012e40 f   PhysicsSDK.obj
 0001:00011f70       ?getParameter@PhysicsSDK@@UBEMW4NxParameter@@@Z 10012f70 f   PhysicsSDK.obj
 0001:00011fe0       ?release@PhysicsSDK@@UAEXXZ 10012fe0 f   PhysicsSDK.obj
 0001:00011ff0       ?setNpPhysicsSDK@PhysicsSDK@@UAEXPAVNpPhysicsSDK@@@Z 10012ff0 f   PhysicsSDK.obj
 0001:00012000       ?createScene@PhysicsSDK@@UAEPAVNvScene@@ABVNvSceneDesc@@II@Z 10013000 f   PhysicsSDK.obj
 0001:000120b0       ?createTriangleMesh@PhysicsSDK@@UAEPAVNvTriangleMesh@@XZ 100130b0 f   PhysicsSDK.obj
 0001:00012130       ?createConvexMesh@PhysicsSDK@@UAEPAVNvConvexMesh@@XZ 10013130 f   PhysicsSDK.obj
 0001:000121b0       ?createHeightField@PhysicsSDK@@UAEPAVNvHeightField@@XZ 100131b0 f   PhysicsSDK.obj
 0001:00012230       ?memoryReport@PhysicsSDK@@UAEXXZ 10013230 f   PhysicsSDK.obj
 0001:00012240       ?getHWVersion@PhysicsSDK@@UBE?AW4NxHWVersion@@XZ 10013240 f   PhysicsSDK.obj
 0001:00012250       ??0NxMat33@@QAE@W4NxMatrixType@@@Z 10013250 f i PhysicsSDK.obj
 0001:000122a0       ??0SourceCCDSkeleton@@QAE@XZ 100132a0 f i PhysicsSDK.obj
 0001:000122e0       ?setNxCCDSkeleton@SourceCCDSkeleton@@UAEXPAVNxCCDSkeleton@@@Z 100132e0 f i PhysicsSDK.obj
 0001:000122f0       ?getNxCCDSkeleton@SourceCCDSkeleton@@UAEPAVNxCCDSkeleton@@XZ 100132f0 f i PhysicsSDK.obj
 0001:00012300       ??0IceAllocator@@QAE@XZ    10013300 f i PhysicsSDK.obj
 0001:00012310       ?malloc@IceAllocator@@UAEPAXIW4MemoryType@IceCore@@@Z 10013310 f i PhysicsSDK.obj
 0001:00012800       ?realloc@IceAllocator@@UAEPAXPAXI@Z 10013800 f i PhysicsSDK.obj
 0001:00012810       ?free@IceAllocator@@UAEXPAX@Z 10013810 f i PhysicsSDK.obj
 0001:00012820       ?mallocDebug@IceAllocator@@UAEPAXIPBDI0W4MemoryType@IceCore@@@Z 10013820 f i PhysicsSDK.obj
 0001:00012840       ??0PhysicsSDK@@QAE@PAVNxFoundationSDK@@ABVNxPhysicsSDKDesc@@AAW4NxSDKCreateError@@@Z 10013840 f   PhysicsSDK.obj
 0001:00012970       ??_GPhysicsSDK@@UAEPAXI@Z  10013970 f i PhysicsSDK.obj
 0001:00012970       ??_EPhysicsSDK@@UAEPAXI@Z  10013970 f i PhysicsSDK.obj
 0001:000129a0       _NxCreateCoreSDK           100139a0 f   PhysicsSDK.obj
 0001:00012a30       ?createCCDSkeleton@PhysicsSDK@@UAEPAVNvCCDSkeleton@@ABVNxSimpleTriangleMesh@@@Z 10013a30 f   PhysicsSDK.obj
 0001:00012ac0       ??3NxAllocateable@NxFoundation@@SAXPAX@Z 10013ac0 f i Articulation.obj
 0001:00012ae0       ?malloc@UserAllocatorAccess@NxFoundation@@QAEPAXIW4NxMemoryType@@@Z 10013ae0 f i Articulation.obj
 0001:00012af0       ?free@UserAllocatorAccess@NxFoundation@@QAEXPAX@Z 10013af0 f i Articulation.obj
 0001:00012b10       ?dbMessage@FoundationSDK@NxFoundation@@SAXW4NxErrorCode@@PBDH1ZZ 10013b10 f i Articulation.obj
 0001:00012b20       ?getNext@Group@@QAEPAVBody@@XZ 10013b20 f i Articulation.obj
 0001:00012b30       ?readFlag@Body@@QBE_NW4InternalFlag@1@@Z 10013b30 f i Articulation.obj
 0001:00012b50       ?raiseFlag@Body@@QAEXW4InternalFlag@1@@Z 10013b50 f i Articulation.obj
 0001:00012b70       ?clearFlag@Body@@QAEXW4InternalFlag@1@@Z 10013b70 f i Articulation.obj
 0001:00012b90       ?jointGroupGetNext@Body@@QAEPAV1@XZ 10013b90 f i Articulation.obj
 0001:00012ba0       ?setArticulations@Body@@QAEXPAVArticulation@@@Z 10013ba0 f i Articulation.obj
 0001:00012bb0       ?otherBody@Joint@@QAEPAVBody@@PAV2@@Z 10013bb0 f i Articulation.obj
 0001:00012bd0       ??RBodyRankCompare@@QAE_NABVBodyRank@@0@Z 10013bd0 f i Articulation.obj
 0001:00012bf0       ?isFixedBody@@YA_NPAVBody@@@Z 10013bf0 f i Articulation.obj
 0001:00012c10       ?rankJoint@Articulation@@CAXAAVJoint@@AAVBodyRank@@@Z 10013c10 f   Articulation.obj
 0001:00012c80       ?buildBodyTree@Articulation@@CAPAVArticulationNode@@PAV2@PAVBody@@PAVJoint@@AA_N@Z 10013c80 f   Articulation.obj
 0001:00012d70       ?countJointsToWorld@Articulation@@CAIPAVBody@@@Z 10013d70 f   Articulation.obj
 0001:00012d80       ??0?$NxArray@PAVArticulationNode@@VUserAllocatorAccess@NxFoundation@@@@QAE@XZ 10013d80 f i Articulation.obj
 0001:00012d90       ?size@?$NxArray@PAVArticulationNode@@VUserAllocatorAccess@NxFoundation@@@@QBEIXZ 10013d90 f i Articulation.obj
 0001:00012da0       ??A?$NxArray@PAVArticulationNode@@VUserAllocatorAccess@NxFoundation@@@@QAEAAPAVArticulationNode@@I@Z 10013da0 f i Articulation.obj
 0001:00012db0       ??0?$NxArray@VBodyRank@@VUserAllocatorAccess@NxFoundation@@@@QAE@XZ 10013db0 f i Articulation.obj
 0001:00012dc0       ?begin@?$NxArray@VBodyRank@@VUserAllocatorAccess@NxFoundation@@@@QAEPAVBodyRank@@XZ 10013dc0 f i Articulation.obj
 0001:00012dd0       ?end@?$NxArray@VBodyRank@@VUserAllocatorAccess@NxFoundation@@@@QAEPAVBodyRank@@XZ 10013dd0 f i Articulation.obj
 0001:00012de0       ?front@?$NxArray@VBodyRank@@VUserAllocatorAccess@NxFoundation@@@@QAEAAVBodyRank@@XZ 10013de0 f i Articulation.obj
 0001:00012df0       ?back@?$NxArray@VBodyRank@@VUserAllocatorAccess@NxFoundation@@@@QAEAAVBodyRank@@XZ 10013df0 f i Articulation.obj
 0001:00012e00       ?deallocate@?$NxArray@PAVArticulationNode@@VUserAllocatorAccess@NxFoundation@@@@AAEXPAPAVArticulationNode@@@Z 10013e00 f i Articulation.obj
 0001:00012e20       ?destroy@?$NxArray@PAVArticulationNode@@VUserAllocatorAccess@NxFoundation@@@@AAEXPAPAVArticulationNode@@0@Z 10013e20 f i Articulation.obj
 0001:00012e30       ?size@?$NxArray@VBodyRank@@VUserAllocatorAccess@NxFoundation@@@@QBEIXZ 10013e30 f i Articulation.obj
 0001:00012e40       ?deallocate@?$NxArray@VBodyRank@@VUserAllocatorAccess@NxFoundation@@@@AAEXPAVBodyRank@@@Z 10013e40 f i Articulation.obj
 0001:00012e60       ?destroy@?$NxArray@VBodyRank@@VUserAllocatorAccess@NxFoundation@@@@AAEXPAVBodyRank@@0@Z 10013e60 f i Articulation.obj
 0001:00012e70       ?capacity@?$NxArray@PAVArticulationNode@@VUserAllocatorAccess@NxFoundation@@@@QBEIXZ 10013e70 f i Articulation.obj
 0001:00012e90       ?copy@?$NxArray@PAVArticulationNode@@VUserAllocatorAccess@NxFoundation@@@@AAEPAPAVArticulationNode@@PBQAV2@0PAPAV2@@Z 10013e90 f i Articulation.obj
 0001:00012ec0       ?allocate@?$NxArray@PAVArticulationNode@@VUserAllocatorAccess@NxFoundation@@@@AAEPAPAVArticulationNode@@I@Z 10013ec0 f i Articulation.obj
 0001:00012ef0       ?capacity@?$NxArray@VBodyRank@@VUserAllocatorAccess@NxFoundation@@@@QBEIXZ 10013ef0 f i Articulation.obj
 0001:00012f10       ?copy@?$NxArray@VBodyRank@@VUserAllocatorAccess@NxFoundation@@@@AAEPAVBodyRank@@PBV2@0PAV2@@Z 10013f10 f i Articulation.obj
 0001:00012f60       ?allocate@?$NxArray@VBodyRank@@VUserAllocatorAccess@NxFoundation@@@@AAEPAVBodyRank@@I@Z 10013f60 f i Articulation.obj
 0001:00012f90       ??$NxQuickSort@VBodyRank@@VBodyRankCompare@@@@YAXPAVBodyRank@@0@Z 10013f90 f i Articulation.obj
 0001:000130b0       ?buildOneArticulation@Articulation@@CAPAVArticulationNode@@PAVBody@@PAVJoint@@@Z 100140b0 f   Articulation.obj
 0001:000130e0       ?visualize@Articulation@@QAEXAAVDebugRenderable@NxFoundation@@@Z 100140e0 f   Articulation.obj
 0001:00013130       ?projectPose@Articulation@@QAEXXZ 10014130 f   Articulation.obj
 0001:00013170       ?processToAxisConstraintsInProjectionOrder@Articulation@@QAEXM@Z 10014170 f   Articulation.obj
 0001:000131c0       ??1?$NxArray@PAVArticulationNode@@VUserAllocatorAccess@NxFoundation@@@@QAE@XZ 100141c0 f i Articulation.obj
 0001:00013200       ??1?$NxArray@VBodyRank@@VUserAllocatorAccess@NxFoundation@@@@QAE@XZ 10014200 f i Articulation.obj
 0001:00013240       ?reserve@?$NxArray@PAVArticulationNode@@VUserAllocatorAccess@NxFoundation@@@@QAEXI@Z 10014240 f i Articulation.obj
 0001:000132f0       ?reserve@?$NxArray@VBodyRank@@VUserAllocatorAccess@NxFoundation@@@@QAEXI@Z 100142f0 f i Articulation.obj
 0001:000133d0       ??0?$NxArraySDK@VBodyRank@@@NxFoundation@@QAE@XZ 100143d0 f i Articulation.obj
 0001:000133e0       ??1?$NxArraySDK@VBodyRank@@@NxFoundation@@QAE@XZ 100143e0 f i Articulation.obj
 0001:00013420       ??0?$NxArraySDK@PAVArticulationNode@@@NxFoundation@@QAE@XZ 10014420 f i Articulation.obj
 0001:00013430       ??1?$NxArraySDK@PAVArticulationNode@@@NxFoundation@@QAE@XZ 10014430 f i Articulation.obj
 0001:00013470       ??1Articulation@@QAE@XZ    10014470 f   Articulation.obj
 0001:00013580       ?pushBack@?$NxArray@PAVArticulationNode@@VUserAllocatorAccess@NxFoundation@@@@QAEXABQAVArticulationNode@@@Z 10014580 f i Articulation.obj
 0001:00013650       ?pushBack@?$NxArray@VBodyRank@@VUserAllocatorAccess@NxFoundation@@@@QAEXABVBodyRank@@@Z 10014650 f i Articulation.obj
 0001:00013770       ??_GArticulation@@QAEPAXI@Z 10014770 f i Articulation.obj
 0001:000137a0       ??0Articulation@@QAE@XZ    100147a0 f   Articulation.obj
 0001:000137c0       ?buildArticulations@Articulation@@CAPAV1@PAVBody@@@Z 100147c0 f   Articulation.obj
 0001:00013be0       ?processJointGroup@Articulation@@SAXPAVBody@@@Z 10014be0 f   Articulation.obj
 0001:00013c50       ?getPublicFlagsFast@Body@@QBEIXZ 10014c50 f i ArticulationMaximal.obj
 0001:00013c60       ?isUnsolvable@Joint@@QAE_NXZ 10014c60 f i ArticulationMaximal.obj
 0001:00013ca0       ??0ArticulationMaximal@@QAE@PAVArticulationNode@@PAVBody@@PAVJoint@@@Z 10014ca0 f   ArticulationMaximal.obj
 0001:00013cd0       ??1ArticulationMaximal@@UAE@XZ 10014cd0 f   ArticulationMaximal.obj
 0001:00013ce0       ?processToAxisConstraintsInProjectionOrder@ArticulationMaximal@@UAEXM@Z 10014ce0 f   ArticulationMaximal.obj
 0001:00013d10       ?projectPose@ArticulationMaximal@@UAEXXZ 10014d10 f   ArticulationMaximal.obj
 0001:00013d90       ??_GArticulationMaximal@@UAEPAXI@Z 10014d90 f i ArticulationMaximal.obj
 0001:00013d90       ??_EArticulationMaximal@@UAEPAXI@Z 10014d90 f i ArticulationMaximal.obj
 0001:00013dc0       ??0NxVec3@@QAE@XZ          10014dc0 f i ArticulationNode.obj
 0001:00013dd0       ??HNxVec3@@QBE?AV0@ABV0@@Z 10014dd0 f i ArticulationNode.obj
 0001:00013e00       ??XNxVec3@@QAEAAV0@M@Z     10014e00 f i ArticulationNode.obj
 0001:00013e30       ?getColumn@NxMat33@@QBEXHAAVNxVec3@@@Z 10014e30 f i ArticulationNode.obj
 0001:00013e60       ?fromQuat@NxMat33@@QAEXABVNxQuat@@@Z 10014e60 f i ArticulationNode.obj
 0001:00013f50       ?getBody2WorldLL@Body@@QBEABVNxQP@@XZ 10014f50 f i ArticulationNode.obj
 0001:00013f60       ?makeNode@ArticulationNode@@SAPAV1@PAV1@PAVBody@@PAVJoint@@@Z 10014f60 f   ArticulationNode.obj
 0001:00013ff0       ??0ArticulationNode@@QAE@PAV0@PAVBody@@PAVJoint@@@Z 10014ff0 f   ArticulationNode.obj
 0001:00014060       ??1ArticulationNode@@UAE@XZ 10015060 f   ArticulationNode.obj
 0001:000140b0       ?pruneSubtrees@ArticulationNode@@QAEHXZ 100150b0 f   ArticulationNode.obj
 0001:00014130       ?removeChild@ArticulationNode@@QAEXPAV1@@Z 10015130 f   ArticulationNode.obj
 0001:00014180       ?DEBUGprintTree@ArticulationNode@@QAEXI@Z 10015180 f   ArticulationNode.obj
 0001:00014190       ?initializeTree@ArticulationNode@@UAEXPAVBody@@AAIPAV1@@Z 10015190 f   ArticulationNode.obj
 0001:000141a0       ?integratePose@ArticulationNode@@UAEXM@Z 100151a0 f   ArticulationNode.obj
 0001:000141b0       ?sleepVelCheck@ArticulationNode@@UAEXM@Z 100151b0 f   ArticulationNode.obj
 0001:000141c0       ?projectPose@ArticulationNode@@UAEXXZ 100151c0 f   ArticulationNode.obj
 0001:000141d0       ?processToAxisConstraintsInProjectionOrder@ArticulationNode@@UAEXM@Z 100151d0 f   ArticulationNode.obj
 0001:000141e0       ??0NxMat33@@QAE@ABVNxQuat@@@Z 100151e0 f i ArticulationNode.obj
 0001:000142d0       ??_EArticulationNode@@UAEPAXI@Z 100152d0 f i ArticulationNode.obj
 0001:000142d0       ??_GArticulationNode@@UAEPAXI@Z 100152d0 f i ArticulationNode.obj
 0001:00014300       ?makeRoot@ArticulationNode@@QAEXXZ 10015300 f   ArticulationNode.obj
 0001:00014360       ?visualize@ArticulationNode@@UAEXAAVDebugRenderable@NxFoundation@@@Z 10015360 f   ArticulationNode.obj
 0001:00014610       _acosf                     10015610 f i Body.obj
 0001:00014620       _cosf                      10015620 f i Body.obj
 0001:00014630       _fabsf                     10015630 f i Body.obj
 0001:00014640       _powf                      10015640 f i Body.obj
 0001:00014660       _sinf                      10015660 f i Body.obj
 0001:00014670       _sqrtf                     10015670 f i Body.obj
 0001:00014680       ?fabs@@YAMM@Z              10015680 f i Body.obj
 0001:00014690       ?sqrt@@YAMM@Z              10015690 f i Body.obj
 0001:000146a0       ?max@NxMath@@SAMMM@Z       100156a0 f i Body.obj
 0001:000146c0       ?min@NxMath@@SAMMM@Z       100156c0 f i Body.obj
 0001:000146e0       ?sqrt@NxMath@@SAMM@Z       100156e0 f i Body.obj
 0001:000146f0       ?recipSqrt@NxMath@@SAMM@Z  100156f0 f i Body.obj
 0001:00014700       ?pow@NxMath@@SAMMM@Z       10015700 f i Body.obj
 0001:00014720       ?sin@NxMath@@SAMM@Z        10015720 f i Body.obj
 0001:00014730       ?cos@NxMath@@SAMM@Z        10015730 f i Body.obj
 0001:00014740       ?acos@NxMath@@SAMM@Z       10015740 f i Body.obj
 0001:00014790       ??0NxVec3@@QAE@ABV0@@Z     10015790 f i Body.obj
 0001:000147b0       ??4NxVec3@@QAEABV0@ABV0@@Z 100157b0 f i Body.obj
 0001:000147d0       ??ANxVec3@@QAEAAMH@Z       100157d0 f i Body.obj
 0001:000147e0       ??ANxVec3@@QBEMH@Z         100157e0 f i Body.obj
 0001:000147f0       ?zero@NxVec3@@QAEXXZ       100157f0 f i Body.obj
 0001:00014800       ?arrayMultiply@NxVec3@@QAEXABV1@0@Z 10015800 f i Body.obj
 0001:00014830       ?dot@NxVec3@@QBEMABV1@@Z   10015830 f i Body.obj
 0001:00014860       ?magnitude@NxVec3@@QBEMXZ  10015860 f i Body.obj
 0001:00014890       ?magnitudeSquared@NxVec3@@QBEMXZ 10015890 f i Body.obj
 0001:000148c0       ?cross@NxVec3@@QAEXABV1@0@Z 100158c0 f i Body.obj
 0001:00014910       ??GNxVec3@@QBE?AV0@XZ      10015910 f i Body.obj
 0001:00014940       ??GNxVec3@@QBE?AV0@ABV0@@Z 10015940 f i Body.obj
 0001:00014970       ??DNxVec3@@QBE?AV0@M@Z     10015970 f i Body.obj
 0001:000149a0       ??YNxVec3@@QAEAAV0@ABV0@@Z 100159a0 f i Body.obj
 0001:000149d0       ??ZNxVec3@@QAEAAV0@ABV0@@Z 100159d0 f i Body.obj
 0001:00014a00       ?cross@NxVec3@@QBE?AV1@ABV1@@Z 10015a00 f i Body.obj
 0001:00014a50       ??TNxVec3@@QBE?AV0@ABV0@@Z 10015a50 f i Body.obj
 0001:00014aa0       ??UNxVec3@@QBEMABV0@@Z     10015aa0 f i Body.obj
 0001:00014ad0       ??D@YA?AVNxVec3@@MABV0@@Z  10015ad0 f i Body.obj
 0001:00014b00       ??0NxQuat@@QAE@XZ          10015b00 f i Body.obj
 0001:00014b10       ??0NxQuat@@QAE@ABV0@@Z     10015b10 f i Body.obj
 0001:00014b40       ??0NxQuat@@QAE@ABVNxVec3@@M@Z 10015b40 f i Body.obj
 0001:00014b70       ?negate@NxQuat@@QAEXXZ     10015b70 f i Body.obj
 0001:00014ba0       ?magnitudeSquared@NxQuat@@QBEMXZ 10015ba0 f i Body.obj
 0001:00014be0       ?normalize@NxQuat@@QAEXXZ  10015be0 f i Body.obj
 0001:00014c60       ?conjugate@NxQuat@@QAEXXZ  10015c60 f i Body.obj
 0001:00014c80       ?multiply@NxQuat@@QAEXABV1@0@Z 10015c80 f i Body.obj
 0001:00014d40       ??4NxQuat@@QAEAAV0@ABV0@@Z 10015d40 f i Body.obj
 0001:00014d70       ??0NxQuat@@AAE@MMMM@Z      10015d70 f i Body.obj
 0001:00014da0       ??DNxQuat@@QBE?AV0@ABV0@@Z 10015da0 f i Body.obj
 0001:00014e50       ??7NxQuat@@QBE?AV0@XZ      10015e50 f i Body.obj
 0001:00014e80       ?rot@NxQuat@@QBE?BVNxVec3@@ABV2@@Z 10015e80 f i Body.obj
 0001:00014fb0       ?invRot@NxQuat@@QBE?BVNxVec3@@ABV2@@Z 10015fb0 f i Body.obj
 0001:000150e0       ?transform@NxQuat@@QBE?BVNxVec3@@ABV2@0@Z 100160e0 f i Body.obj
 0001:00015230       ??0NxMat33@@QAE@XZ         10016230 f i Body.obj
 0001:00015240       ??RNxMat33@@QBEABMHH@Z     10016240 f i Body.obj
 0001:00015260       ?toQuat@NxMat33@@QBEXAAVNxQuat@@@Z 10016260 f i Body.obj
 0001:00015440       ?multiply@NxMat33@@QBEXABVNxVec3@@AAV2@@Z 10016440 f i Body.obj
 0001:000154b0       ??DNxMat33@@QBE?AVNxVec3@@ABV1@@Z 100164b0 f i Body.obj
 0001:00015520       ??0NxQuat@@QAE@ABVNxMat33@@@Z 10016520 f i Body.obj
 0001:000156f0       ?Add@ContainerSizeT@IceCore@@QAEAAV12@I@Z 100166f0 f i Body.obj
 0001:00015730       ?getFlagMask@NxBitField@@QBE_NI@Z 10016730 f i Body.obj
 0001:00015750       ?readFlag@PxScene@@QBE_NW4PxSceneFlags@@@Z 10016750 f i Body.obj
 0001:00015770       ?getLowLevelContext@PxScene@@QAEAAIXZ 10016770 f i Body.obj
 0001:00015780       ?isActive@PxActor@@QBE_NXZ 10016780 f i Body.obj
 0001:00015790       ?getNumInteractionsOfType@PxActor@@QBEII@Z 10016790 f i Body.obj
 0001:000157a0       ?hasActiveInteraction@PxActor@@QBE_NXZ 100167a0 f i Body.obj
 0001:000157b0       ?getType@PxInteraction@@QBE?AW4PxInteractionType@@XZ 100167b0 f i Body.obj
 0001:000157c0       ?addToUpdateList@BroadPhase@@QAEXPBVShape@@@Z 100167c0 f i Body.obj
 0001:00015800       ??1NvBody@@IAE@XZ          10016800 f i Body.obj
 0001:00015810       ??0NxSphere@@QAE@XZ        10016810 f i Body.obj
 0001:00015820       ??1NxSphere@@QAE@XZ        10016820 f i Body.obj
 0001:00015830       ?getBroadPhase@Scene@@QAEAAVBroadPhase@@XZ 10016830 f i Body.obj
 0001:00015840       ?getTimeStamp@Scene@@QBEIXZ 10016840 f i Body.obj
 0001:00015850       ?getInvNumSubSteps@Scene@@QBEMXZ 10016850 f i Body.obj
 0001:00015860       ?getNumSubSteps@Scene@@QBEIXZ 10016860 f i Body.obj
 0001:00015870       ?getCurrSubstep@Scene@@QBEIXZ 10016870 f i Body.obj
 0001:00015880       ?isLastSubstep@Scene@@QBEHXZ 10016880 f i Body.obj
 0001:000158a0       ?getOneOverDt@Scene@@QBEMXZ 100168a0 f i Body.obj
 0001:000158b0       ?getDt@Scene@@QBEMXZ       100168b0 f i Body.obj
 0001:000158c0       ?getGravityFast@Scene@@QBEABVNxVec3@@XZ 100168c0 f i Body.obj
 0001:000158d0       ?readFlag@Scene@@QBE_NW4SceneFlag@@@Z 100168d0 f i Body.obj
 0001:000158f0       ?getPxSceneFast@Scene@@QAEAAVPxScene@@XZ 100168f0 f i Body.obj
 0001:00015900       ??0NxQP@@QAE@XZ            10016900 f i Body.obj
 0001:00015930       ??0NxQP@@QAE@ABVNxQuat@@ABVNxVec3@@@Z 10016930 f i Body.obj
 0001:00015980       ??DNxQP@@QBE?AV0@ABV0@@Z   10016980 f i Body.obj
 0001:00015b90       ?transform@NxQP@@QBE?AVNxVec3@@ABV2@@Z 10016b90 f i Body.obj
 0001:00015ce0       ?getMotionVel@Body@@QBEABVNxVec3@@XZ 10016ce0 f i Body.obj
 0001:00015cf0       ?getMotionAngVel@Body@@QBEABVNxVec3@@XZ 10016cf0 f i Body.obj
 0001:00015d00       ?getCCDRadius@Body@@QBEMXZ 10016d00 f i Body.obj
 0001:00015d10       ?markAccelerationAsDirty@Body@@QAEXXZ 10016d10 f i Body.obj
 0001:00015d20       ?getBody2WorldOld@Body@@QBEABVNxQP@@XZ 10016d20 f i Body.obj
 0001:00015d30       ?getWakeCounter@Body@@QBEMXZ 10016d30 f i Body.obj
 0001:00015d40       ?setWakeCounter@Body@@QAEXM@Z 10016d40 f i Body.obj
 0001:00015d50       ?getInverseInertiaBodySpace@Body@@QBEABVNxVec3@@XZ 10016d50 f i Body.obj
 0001:00015d60       ?getBody2Actor@Body@@QBEABVNxQP@@XZ 10016d60 f i Body.obj
 0001:00015d70       ?setBody2ActorPos2@Body@@QAEXABVNxVec3@@@Z 10016d70 f i Body.obj
 0001:00015da0       ?setBody2ActorOrient2@Body@@QAEXABVNxQuat@@@Z 10016da0 f i Body.obj
 0001:00015de0       ?getInvMass@Body@@QBEMXZ   10016de0 f i Body.obj
 0001:00015df0       ?getLinearVelModPerSec@Body@@QBEABVNxVec3@@XZ 10016df0 f i Body.obj
 0001:00015e00       ?setLinearVelModPerSec@Body@@QAEXABVNxVec3@@@Z 10016e00 f i Body.obj
 0001:00015e30       ?accumulateLinearVelModPerSec@Body@@QAEXABVNxVec3@@@Z 10016e30 f i Body.obj
 0001:00015e70       ?getAngularVelModPerSec@Body@@QBEABVNxVec3@@XZ 10016e70 f i Body.obj
 0001:00015e80       ?setAngularVelModPerSec@Body@@QAEXABVNxVec3@@@Z 10016e80 f i Body.obj
 0001:00015eb0       ?accumulateAngularVelModPerSec@Body@@QAEXABVNxVec3@@@Z 10016eb0 f i Body.obj
 0001:00015ef0       ?getLinearVelModPerStep@Body@@QBEABVNxVec3@@XZ 10016ef0 f i Body.obj
 0001:00015f00       ?setLinearVelModPerStep@Body@@QAEXABVNxVec3@@@Z 10016f00 f i Body.obj
 0001:00015f30       ?accumulateLinearVelModPerStep@Body@@QAEXABVNxVec3@@@Z 10016f30 f i Body.obj
 0001:00015f70       ?getAngularVelModPerStep@Body@@QBEABVNxVec3@@XZ 10016f70 f i Body.obj
 0001:00015f80       ?setAngularVelModPerStep@Body@@QAEXABVNxVec3@@@Z 10016f80 f i Body.obj
 0001:00015fb0       ?accumulateAngularVelModPerStep@Body@@QAEXABVNxVec3@@@Z 10016fb0 f i Body.obj
 0001:00015ff0       ?getLowLevelAtom@Body@@QAEAAIXZ 10016ff0 f i Body.obj
 0001:00016000       ?getKinematicTarget@Body@@QBEPBUKinematicTarget@1@XZ 10017000 f i Body.obj
 0001:00016010       ?setKinematicTargetToInvalid@Body@@QAEXXZ 10017010 f i Body.obj
 0001:00016030       ?deleteKinematicTarget@Body@@QAEXXZ 10017030 f i Body.obj
 0001:00016060       ?isForcedToSleep@Body@@QBE_NXZ 10017060 f i Body.obj
 0001:000160a0       ?getLinearVelocityLL@Body@@QBEABVNxVec3@@XZ 100170a0 f i Body.obj
 0001:000160b0       ?getAngularVelocityLL@Body@@QBEABVNxVec3@@XZ 100170b0 f i Body.obj
 0001:000160c0       ??0NxQP@@QAE@ABV0@@Z       100170c0 f i Body.obj
 0001:00016100       ??0KinematicTarget@Body@@QAE@XZ 10017100 f i Body.obj
 0001:00016110       ?setInverseInertiaBodySpace@Body@@QAEXABVNxVec3@@@Z 10017110 f i Body.obj
 0001:000161a0       ?setInvMass@Body@@QAEXM@Z  100171a0 f i Body.obj
 0001:00016210       ?syncToLL@Body@@QAEXXZ     10017210 f i Body.obj
 0001:00016330       ??4NxQP@@QAEAAV0@ABV0@@Z   10017330 f i Body.obj
 0001:00016370       ?getVelocityLL@Body@@QBEXAAVNxVec3@@0@Z 10017370 f i Body.obj
 0001:000163c0       ?setVelocityLL@Body@@QAEXABVNxVec3@@0@Z 100173c0 f i Body.obj
 0001:00016430       ?setLinearVelocityLL@Body@@QAEXABVNxVec3@@@Z 10017430 f i Body.obj
 0001:00016480       ?setAngularVelocityLL@Body@@QAEXABVNxVec3@@@Z 10017480 f i Body.obj
 0001:000164d0       ?setBody2WorldLL@Body@@QAEXABVNxQuat@@ABVNxVec3@@@Z 100174d0 f i Body.obj
 0001:00016550       ?setBody2WorldPosLL@Body@@QAEXABVNxVec3@@@Z 10017550 f i Body.obj
 0001:000165a0       ?setBody2WorldRotLL@Body@@QAEXABVNxQuat@@@Z 100175a0 f i Body.obj
 0001:00016600       ?setKinematicTargetPos@Body@@QAEXABVNxVec3@@@Z 10017600 f i Body.obj
 0001:00016650       ?setKinematicTargetQuat@Body@@QAEXABVNxQuat@@@Z 10017650 f i Body.obj
 0001:000166a0       ?getShapeA@ShapeInstancePair@@QBEPAVShape@@XZ 100176a0 f i Body.obj
 0001:000166b0       ?getShapeB@ShapeInstancePair@@QBEPAVShape@@XZ 100176b0 f i Body.obj
 0001:000166c0       ?thisFrameHaveContacts@ShapeInstancePair@@QBEHXZ 100176c0 f i Body.obj
 0001:000166d0       ??0NvBody@@QAE@XZ          100176d0 f i Body.obj
 0001:000166e0       ??0LLState@Body@@QAE@XZ    100176e0 f i Body.obj
 0001:00016710       ?setShape@Body@@QAEXPAVShape@@@Z 10017710 f   Body.obj
 0001:00016750       ?setForcesToDefaults@Body@@QAEXXZ 10017750 f   Body.obj
 0001:000167d0       ?jointGroupGetRoot@Body@@QAEPAV1@XZ 100177d0 f   Body.obj
 0001:00016800       ?addToJointList@Body@@QAEXAAVJoint@@PAV1@@Z 10017800 f   Body.obj
 0001:00016840       ?jointGroupUnion@Body@@QAEXAAV1@@Z 10017840 f   Body.obj
 0001:00016920       ?processNewJointGroup@Body@@QAEXXZ 10017920 f   Body.obj
 0001:00016960       ?updateForces@Body@@QAEXMM_N0@Z 10017960 f   Body.obj
 0001:00016c50       ?processJointsToAxisConstraints@Body@@QAEXMM@Z 10017c50 f   Body.obj
 0001:00016c80       ?integrateQuaternion@Body@@QAEHAAVNxQuat@@M@Z 10017c80 f   Body.obj
 0001:00016e80       ?ccdUpdate@Body@@QAEXMM@Z  10017e80 f   Body.obj
 0001:00017320       ?getTemporalBounds@Body@@QAEHAAVNxBounds3@@@Z 10018320 f   Body.obj
 0001:00017470       ?updateRadius@Body@@QAEXPBVNxSphere@@@Z 10018470 f   Body.obj
 0001:000174e0       ?visualize@Body@@QAEXAAVDebugRenderable@NxFoundation@@@Z 100184e0 f   Body.obj
 0001:00017580       ?addForceAtPos@Body@@UAEXABVNxVec3@@0W4NxForceMode@@@Z 10018580 f   Body.obj
 0001:00017630       ?isGroupSleeping@Body@@UAE_NXZ 10018630 f   Body.obj
 0001:00017640       ?setKinematicTargetP@Body@@UAEXABVNxVec3@@@Z 10018640 f   Body.obj
 0001:00017690       ?setKinematicTargetQ@Body@@UAEXABVNxQuat@@@Z 10018690 f   Body.obj
 0001:000176e0       ?setKinematicTargetPQ@Body@@UAEXABVNxVec3@@ABVNxQuat@@@Z 100186e0 f   Body.obj
 0001:00017770       ?invalidateArticulation@Body@@QAEXXZ 10018770 f   Body.obj
 0001:000177b0       ?isAttachedByJoint@Body@@QBEHABV1@@Z 100187b0 f   Body.obj
 0001:00017830       ?updateOnActor2WorldPosChange@Body@@QAEXXZ 10018830 f   Body.obj
 0001:000178e0       ?updateActorFromBody2ActorChange@Body@@QAEXXZ 100188e0 f   Body.obj
 0001:00017bf0       ?wakeUp@Body@@QAEXM@Z      10018bf0 f   Body.obj
 0001:00017ca0       ?updateActorOnBody2WorldChange@Body@@QAEX_N@Z 10018ca0 f   Body.obj
 0001:00017d80       ?release@Body@@UAEXXZ      10018d80 f   Body.obj
 0001:00017db0       ?getActor2WorldP@Body@@UBE?AVNxVec3@@XZ 10018db0 f   Body.obj
 0001:00017de0       ?getActor2WorldQ@Body@@UBE?AVNxQuat@@XZ 10018de0 f   Body.obj
 0001:00017e20       ?getBody2ActorP@Body@@UBE?AVNxVec3@@XZ 10018e20 f   Body.obj
 0001:00017e50       ?getBody2ActorQ@Body@@UBE?AVNxQuat@@XZ 10018e50 f   Body.obj
 0001:00017e90       ?getInverseMass@Body@@UBEMXZ 10018e90 f   Body.obj
 0001:00017ea0       ?setInverseMass@Body@@UAEXM@Z 10018ea0 f   Body.obj
 0001:00017f10       ?getInverseInertia@Body@@UBE?AVNxVec3@@XZ 10018f10 f   Body.obj
 0001:00017f40       ?setInverseInertia@Body@@UAEXABVNxVec3@@@Z 10018f40 f   Body.obj
 0001:00017fd0       ?getSleepTimer@Body@@UBEMXZ 10018fd0 f   Body.obj
 0001:00017fe0       ?setSleepTimer@Body@@UAEXM@Z 10018fe0 f   Body.obj
 0001:00018090       ?jointProjMoveTo@Body@@QAEXABVNxVec3@@@Z 10019090 f   Body.obj
 0001:000180f0       ?jointProjMoveTo@Body@@QAEXABVNxVec3@@ABVNxQuat@@@Z 100190f0 f   Body.obj
 0001:00018410       ?onKinematicActivate@Body@@QAEXXZ 10019410 f   Body.obj
 0001:00018450       ?onKinematicDeactivate@Body@@QAEXXZ 10019450 f   Body.obj
 0001:000184b0       ?onAllInteractionsInactiveChange@Body@@UAEX_N@Z 100194b0 f   Body.obj
 0001:00018520       ?getLinearVelocity@Body@@UBE?AVNxVec3@@XZ 10019520 f   Body.obj
 0001:00018550       ?setLinearVelocity@Body@@UAEXABVNxVec3@@@Z 10019550 f   Body.obj
 0001:000185d0       ?getAngularVelocity@Body@@UBE?AVNxVec3@@XZ 100195d0 f   Body.obj
 0001:00018600       ?setAngularVelocity@Body@@UAEXABVNxVec3@@@Z 10019600 f   Body.obj
 0001:00018680       ?getLinearDamping@Body@@UBEMXZ 10019680 f   Body.obj
 0001:00018690       ?setLinearDamping@Body@@UAEXM@Z 10019690 f   Body.obj
 0001:000186f0       ?getAngularDamping@Body@@UBEMXZ 100196f0 f   Body.obj
 0001:00018700       ?setAngularDamping@Body@@UAEXM@Z 10019700 f   Body.obj
 0001:00018760       ?getPublicFlags@Body@@UBEIXZ 10019760 f   Body.obj
 0001:00018770       ?getSleepLinVelSq@Body@@UBEMXZ 10019770 f   Body.obj
 0001:00018780       ?setSleepLinVelSq@Body@@UAEXM@Z 10019780 f   Body.obj
 0001:00018790       ?getSleepAngVelSq@Body@@UBEMXZ 10019790 f   Body.obj
 0001:000187a0       ?setSleepAngVelSq@Body@@UAEXM@Z 100197a0 f   Body.obj
 0001:000187b0       ?getSleepEnergyThreshold@Body@@UBEMXZ 100197b0 f   Body.obj
 0001:000187c0       ?setSleepEnergyThreshold@Body@@UAEXM@Z 100197c0 f   Body.obj
 0001:000187d0       ?getMaxAngVelSq@Body@@UBEMXZ 100197d0 f   Body.obj
 0001:000187e0       ?setMaxAngVelSq@Body@@UAEXM@Z 100197e0 f   Body.obj
 0001:00018840       ?getSolverIterationCount@Body@@UBEIXZ 10019840 f   Body.obj
 0001:00018850       ?setSolverIterationCount@Body@@UAEXI@Z 10019850 f   Body.obj
 0001:00018880       ?getCCDMotionThreshold@Body@@UBEMXZ 10019880 f   Body.obj
 0001:00018890       ?setCCDMotionThreshold@Body@@UAEXM@Z 10019890 f   Body.obj
 0001:000188a0       ?getID@Body@@UBEIXZ        100198a0 f   Body.obj
 0001:000188b0       ?getNvShape@Body@@UBEPAVNvShape@@XZ 100198b0 f   Body.obj
 0001:000188c0       ??0?$NxArray@PAVObservable@NxFoundation@@VUserAllocatorAccess@2@@@QAE@XZ 100198c0 f i Body.obj
 0001:000188d0       ?size@?$NxArray@IVUserAllocatorAccess@NxFoundation@@@@QBEIXZ 100198d0 f i Body.obj
 0001:000188e0       ?popBack@?$NxArray@IVUserAllocatorAccess@NxFoundation@@@@QAEXXZ 100198e0 f i Body.obj
 0001:000188f0       ??A?$NxArray@IVUserAllocatorAccess@NxFoundation@@@@QAEAAII@Z 100198f0 f i Body.obj
 0001:00018900       ?begin@?$NxArray@IVUserAllocatorAccess@NxFoundation@@@@QAEPAIXZ 10019900 f i Body.obj
 0001:00018910       ?back@?$NxArray@IVUserAllocatorAccess@NxFoundation@@@@QAEAAIXZ 10019910 f i Body.obj
 0001:00018920       ?begin@?$NxArray@PAVPxInteraction@@VUserAllocatorAccess@NxFoundation@@@@QBEPBQAVPxInteraction@@XZ 10019920 f i Body.obj
 0001:00018930       ?end@?$NxArray@PAVPxInteraction@@VUserAllocatorAccess@NxFoundation@@@@QBEPBQAVPxInteraction@@XZ 10019930 f i Body.obj
 0001:00018940       ??0?$PxIterator@QAVPxInteraction@@@@QAE@PBQAVPxInteraction@@0@Z 10019940 f i Body.obj
 0001:00018960       ??E?$PxIterator@QAVPxInteraction@@@@QAEAAV0@XZ 10019960 f i Body.obj
 0001:00018970       ??D?$PxIterator@QAVPxInteraction@@@@QAEPBQAVPxInteraction@@XZ 10019970 f i Body.obj
 0001:00018980       ?end@?$PxIterator@QAVPxInteraction@@@@QBEPBQAVPxInteraction@@XZ 10019980 f i Body.obj
 0001:00018990       ?deallocate@?$NxArray@PAVObservable@NxFoundation@@VUserAllocatorAccess@2@@@AAEXPAPAVObservable@NxFoundation@@@Z 10019990 f i Body.obj
 0001:000189b0       ?destroy@?$NxArray@PAVObservable@NxFoundation@@VUserAllocatorAccess@2@@@AAEXPAPAVObservable@NxFoundation@@0@Z 100199b0 f i Body.obj
 0001:000189c0       ?deallocate@?$NxArray@IVUserAllocatorAccess@NxFoundation@@@@AAEXPAI@Z 100199c0 f i Body.obj
 0001:000189e0       ?destroy@?$NxArray@IVUserAllocatorAccess@NxFoundation@@@@AAEXPAI0@Z 100199e0 f i Body.obj
 0001:000189f0       ?capacity@?$NxArray@IVUserAllocatorAccess@NxFoundation@@@@QBEIXZ 100199f0 f i Body.obj
 0001:00018a10       ?copy@?$NxArray@IVUserAllocatorAccess@NxFoundation@@@@AAEPAIPBI0PAI@Z 10019a10 f i Body.obj
 0001:00018a40       ?allocate@?$NxArray@IVUserAllocatorAccess@NxFoundation@@@@AAEPAII@Z 10019a40 f i Body.obj
 0001:00018a70       ?size@?$NxArray@PAVJoint@@VUserAllocatorAccess@NxFoundation@@@@QBEIXZ 10019a70 f i Body.obj
 0001:00018a80       ?capacity@?$NxArray@PAVJoint@@VUserAllocatorAccess@NxFoundation@@@@QBEIXZ 10019a80 f i Body.obj
 0001:00018aa0       ?copy@?$NxArray@PAVJoint@@VUserAllocatorAccess@NxFoundation@@@@AAEPAPAVJoint@@PBQAV2@0PAPAV2@@Z 10019aa0 f i Body.obj
 0001:00018ad0       ?allocate@?$NxArray@PAVJoint@@VUserAllocatorAccess@NxFoundation@@@@AAEPAPAVJoint@@I@Z 10019ad0 f i Body.obj
 0001:00018b00       ?deallocate@?$NxArray@PAVJoint@@VUserAllocatorAccess@NxFoundation@@@@AAEXPAPAVJoint@@@Z 10019b00 f i Body.obj
 0001:00018b20       ?destroy@?$NxArray@PAVJoint@@VUserAllocatorAccess@NxFoundation@@@@AAEXPAPAVJoint@@0@Z 10019b20 f i Body.obj
 0001:00018b30       ?getNewID@IDPool@@QAEIXZ   10019b30 f i Body.obj
 0001:00018ba0       ?getInteractions@PxActor@@QBE?AV?$PxIterator@QAVPxInteraction@@@@XZ 10019ba0 f i Body.obj
 0001:00018bc0       ?getActor2World@Body@@QBE?AVNxQP@@XZ 10019bc0 f i Body.obj
 0001:00018c20       ?setBody2ActorPos@Body@@QAEXABVNxVec3@@@Z 10019c20 f i Body.obj
 0001:00018c50       ?setBody2ActorOrient@Body@@QAEXABVNxMat33@@@Z 10019c50 f i Body.obj
 0001:00018e90       ?createKinematicTarget@Body@@QAEXXZ 10019e90 f i Body.obj
 0001:00018ec0       ?cacheInertia@Body@@QBEXXZ 10019ec0 f i Body.obj
 0001:00019010       ?jointGroupResetInfo@Body@@QAEX_N@Z 1001a010 f   Body.obj
 0001:000190c0       ?sleepCheck@Body@@QAEXM@Z  1001a0c0 f   Body.obj
 0001:00019b80       ?groupNotifyJoint@Body@@QAEXAAVJoint@@@Z 1001ab80 f   Body.obj
 0001:00019d20       ?calculateKinematicVelocity@Body@@QAEXMM@Z 1001ad20 f   Body.obj
 0001:0001a700       ?integrateOrientation@Body@@QAEXM@Z 1001b700 f   Body.obj
 0001:0001a7c0       ?ccdImpactLinear@Body@@QAEHM@Z 1001b7c0 f   Body.obj
 0001:0001a950       ?ccdImpactAngular@Body@@QAEHM@Z 1001b950 f   Body.obj
 0001:0001ab30       ?setKinematic@Body@@UAEX_N@Z 1001bb30 f   Body.obj
 0001:0001af10       ?updateOnActor2WorldChange@Body@@QAEXXZ 1001bf10 f   Body.obj
 0001:0001b2e0       ?updateOnBody2ActorChange@Body@@QAEXXZ 1001c2e0 f   Body.obj
 0001:0001b770       ?setActor2WorldP@Body@@UAEXABVNxVec3@@@Z 1001c770 f   Body.obj
 0001:0001b7e0       ?setActor2WorldQ@Body@@UAEXABVNxQuat@@@Z 1001c7e0 f   Body.obj
 0001:0001b860       ?setActor2WorldPQ@Body@@UAEXABVNxVec3@@ABVNxQuat@@@Z 1001c860 f   Body.obj
 0001:0001b930       ?setBody2ActorP@Body@@UAEXABVNxVec3@@@Z 1001c930 f   Body.obj
 0001:0001b970       ?setBody2ActorQ@Body@@UAEXABVNxQuat@@@Z 1001c970 f   Body.obj
 0001:0001bcc0       ?setBody2ActorPQ@Body@@UAEXABVNxVec3@@ABVNxQuat@@@Z 1001ccc0 f   Body.obj
 0001:0001c040       ?onActivate@Body@@UAEXXZ   1001d040 f   Body.obj
 0001:0001c0a0       ?onDeactivate@Body@@UAEXXZ 1001d0a0 f   Body.obj
 0001:0001c110       ?getCollidingShapes@Body@@QAEIPAPAVShape@@I@Z 1001d110 f   Body.obj
 0001:0001c180       ??1?$NxArray@PAVObservable@NxFoundation@@VUserAllocatorAccess@2@@@QAE@XZ 1001d180 f i Body.obj
 0001:0001c1c0       ?reserve@?$NxArray@IVUserAllocatorAccess@NxFoundation@@@@QAEXI@Z 1001d1c0 f i Body.obj
 0001:0001c270       ?reserve@?$NxArray@PAVJoint@@VUserAllocatorAccess@NxFoundation@@@@QAEXI@Z 1001d270 f i Body.obj
 0001:0001c320       ?getGlobalInertiaTensorInverse@Body@@QBEABVNxMat33@@XZ 1001d320 f i Body.obj
 0001:0001c340       ??0?$NxArraySDK@PAVObservable@NxFoundation@@@NxFoundation@@QAE@XZ 1001d340 f i Body.obj
 0001:0001c350       ??1?$NxArraySDK@PAVObservable@NxFoundation@@@NxFoundation@@QAE@XZ 1001d350 f i Body.obj
 0001:0001c390       ?finalizeMotion@Body@@QAEXMM@Z 1001d390 f   Body.obj
 0001:0001c8b0       ?addSpatialForce@Body@@UAEXPBVNxVec3@@0W4NxForceMode@@@Z 1001d8b0 f   Body.obj
 0001:0001ced0       ?loadFromDesc@Body@@QAEXABVNvBodyDesc@@@Z 1001ded0 f   Body.obj
 0001:0001d5f0       ?pushBack@?$NxArray@IVUserAllocatorAccess@NxFoundation@@@@QAEXABI@Z 1001e5f0 f i Body.obj
 0001:0001d6c0       ?pushBack@?$NxArray@PAVJoint@@VUserAllocatorAccess@NxFoundation@@@@QAEXABQAVJoint@@@Z 1001e6c0 f i Body.obj
 0001:0001d790       ?freeID@IDPool@@QAEXI@Z    1001e790 f i Body.obj
 0001:0001d860       ??0Observable@NxFoundation@@QAE@XZ 1001e860 f i Body.obj
 0001:0001d880       ??1Observable@NxFoundation@@QAE@XZ 1001e880 f i Body.obj
 0001:0001d8c0       ??1Body@@EAE@XZ            1001e8c0 f   Body.obj
 0001:0001d960       ?canActivate@Body@@UBE_NXZ 1001e960 f i Body.obj
 0001:0001d970       ?getAppData@Body@@UAEPAXXZ 1001e970 f i Body.obj
 0001:0001d980       ??_EBody@@G3AEPAXI@Z       1001e980 f i Body.obj
 0001:0001d990       ?canDeactivate@Body@@UBE_NXZ 1001e990 f i Body.obj
 0001:0001d9d0       ?isIslandGenerating@Body@@UBE_NXZ 1001e9d0 f i Body.obj
 0001:0001d9f0       ?setPublicFlags@Body@@UAEXI@Z 1001e9f0 f i Body.obj
 0001:0001dd30       ?destroy@Body@@UAEXXZ      1001ed30 f   Body.obj
 0001:0001ddc0       ?push_back@?$NxArray@PAVJoint@@VUserAllocatorAccess@NxFoundation@@@@QAEXABQAVJoint@@@Z 1001edc0 f i Body.obj
 0001:0001de90       ??0Body@@QAE@AAVScene@@ABVNvBodyDesc@@PAVShape@@@Z 1001ee90 f   Body.obj
 0001:0001e280       ??_EBody@@EAEPAXI@Z        1001f280 f i Body.obj
 0001:0001e280       ??_GBody@@EAEPAXI@Z        1001f280 f i Body.obj
 0001:0001e2b0       ?invalidateJointGroup@Body@@QAEXPAVJoint@@AAV?$NxArraySDK@PAVJoint@@@NxFoundation@@@Z 1001f2b0 f   Body.obj
 0001:0001e4c0       ??0BodyPairEffector@@QAE@AAVScene@@@Z 1001f4c0 f   BodyPairEffector.obj
 0001:0001e500       ?getNext@Effector@@UAEPAVNvSpringAndDamperEffector@@XZ 1001f500 f i BodyPairEffector.obj
 0001:0001e510       ?setNpEffector@Effector@@UAEXPAVNpSpringAndDamperEffector@@@Z 1001f510 f i BodyPairEffector.obj
 0001:0001e520       ?getNpEffector@Effector@@UAEPAVNpSpringAndDamperEffector@@XZ 1001f520 f i BodyPairEffector.obj
 0001:0001e530       ?apply@BodyPairEffector@@UAEXXZ 1001f530 f   BodyPairEffector.obj
 0001:0001e550       ?setBodies@BodyPairEffector@@IAEXPAVBody@@0@Z 1001f550 f   BodyPairEffector.obj
 0001:0001e5d0       ?event@BodyPairEffector@@UAEXIAAVObservable@NxFoundation@@@Z 1001f5d0 f   BodyPairEffector.obj
 0001:0001e610       ??1BodyPairEffector@@UAE@XZ 1001f610 f   BodyPairEffector.obj
 0001:0001e6c0       ??_EBodyPairEffector@@UAEPAXI@Z 1001f6c0 f i BodyPairEffector.obj
 0001:0001e6c0       ??_GBodyPairEffector@@UAEPAXI@Z 1001f6c0 f i BodyPairEffector.obj
 0001:0001e6f0       ?abs@NxMath@@SAMM@Z        1001f6f0 f i BoxShape.obj
 0001:0001e700       ??4NxVec3@@QAEABV0@ABU_Nx3F32@@@Z 1001f700 f i BoxShape.obj
 0001:0001e720       ?set@NxVec3@@QAEXMMM@Z     1001f720 f i BoxShape.obj
 0001:0001e740       ?add@NxVec3@@QAEXABV1@0@Z  1001f740 f i BoxShape.obj
 0001:0001e770       ?subtract@NxVec3@@QAEXABV1@0@Z 1001f770 f i BoxShape.obj
 0001:0001e7a0       ??0NxMat33@@QAE@ABV0@@Z    1001f7a0 f i BoxShape.obj
 0001:0001e7c0       ??4NxMat33@@QAEABV0@ABV0@@Z 1001f7c0 f i BoxShape.obj
 0001:0001e7e0       ?multiplyByTranspose@NxMat33@@QBEXABVNxVec3@@AAV2@@Z 1001f7e0 f i BoxShape.obj
 0001:0001e850       ??LNxMat33@@QBE?AVNxVec3@@ABV1@@Z 1001f850 f i BoxShape.obj
 0001:0001e8c0       ??0NxMat34@@QAE@ABVNxMat33@@ABVNxVec3@@@Z 1001f8c0 f i BoxShape.obj
 0001:0001e900       ??1NxMat34@@QAE@XZ         1001f900 f i BoxShape.obj
 0001:0001e910       ?set@NxBounds3@@QAEXMMMMMM@Z 1001f910 f i BoxShape.obj
 0001:0001e950       ?set@NxBounds3@@QAEXABVNxVec3@@0@Z 1001f950 f i BoxShape.obj
 0001:0001e990       ?boundsOfOBB@NxBounds3@@QAEXABVNxMat33@@ABVNxVec3@@1@Z 1001f990 f i BoxShape.obj
 0001:0001ea80       ?getCenter@NxBounds3@@QBEXAAVNxVec3@@@Z 1001fa80 f i BoxShape.obj
 0001:0001eae0       ?getExtents@NxBounds3@@QBEXAAVNxVec3@@@Z 1001fae0 f i BoxShape.obj
 0001:0001eb40       ?CopyMemory@@YAXPAXPBXI@Z  1001fb40 f i BoxShape.obj
 0001:0001eb70       ??0Point@IceMaths@@QAE@XZ  1001fb70 f i BoxShape.obj
 0001:0001eb80       ??0Point@IceMaths@@QAE@MMM@Z 1001fb80 f i BoxShape.obj
 0001:0001eba0       ??0Point@IceMaths@@QAE@ABV01@@Z 1001fba0 f i BoxShape.obj
 0001:0001ebc0       ??1Point@IceMaths@@QAE@XZ  1001fbc0 f i BoxShape.obj
 0001:0001ebd0       ??GPoint@IceMaths@@QBE?AV01@XZ 1001fbd0 f i BoxShape.obj
 0001:0001ec00       ??HPoint@IceMaths@@QBE?AV01@ABV01@@Z 1001fc00 f i BoxShape.obj
 0001:0001ec30       ??GPoint@IceMaths@@QBE?AV01@ABV01@@Z 1001fc30 f i BoxShape.obj
 0001:0001ec60       ??UPoint@IceMaths@@QBEMABV01@@Z 1001fc60 f i BoxShape.obj
 0001:0001ec90       ??0Matrix3x3@IceMaths@@QAE@MMMMMMMMM@Z 1001fc90 f i BoxShape.obj
 0001:0001ecf0       ??0Matrix3x3@IceMaths@@QAE@ABV01@@Z 1001fcf0 f i BoxShape.obj
 0001:0001ed10       ??1Matrix3x3@IceMaths@@QAE@XZ 1001fd10 f i BoxShape.obj
 0001:0001ed20       ?GetRow@Matrix3x3@IceMaths@@QBEABVPoint@2@I@Z 1001fd20 f i BoxShape.obj
 0001:0001ed30       ??DMatrix3x3@IceMaths@@QBE?AVPoint@1@ABV21@@Z 1001fd30 f i BoxShape.obj
 0001:0001eda0       ?GetRow@Matrix4x4@IceMaths@@QBEABVHPoint@2@I@Z 1001fda0 f i BoxShape.obj
 0001:0001edb0       ?GetTrans@Matrix4x4@IceMaths@@QBEABVHPoint@2@XZ 1001fdb0 f i BoxShape.obj
 0001:0001edc0       ??BMatrix4x4@IceMaths@@QBE?AVMatrix3x3@1@XZ 1001fdc0 f i BoxShape.obj
 0001:0001ee20       ??0AABB@IceMaths@@QAE@XZ   1001fe20 f i BoxShape.obj
 0001:0001ee30       ??1AABB@IceMaths@@QAE@XZ   1001fe30 f i BoxShape.obj
 0001:0001ee40       ?SetCenterExtents@AABB@IceMaths@@QAEXABVPoint@2@0@Z 1001fe40 f i BoxShape.obj
 0001:0001eeb0       ??0NxBox@@QAE@XZ           1001feb0 f i BoxShape.obj
 0001:0001eec0       ??1NxBox@@QAE@XZ           1001fec0 f i BoxShape.obj
 0001:0001eed0       ?InverseMultiply3x3@@YAXAAVPoint@IceMaths@@ABV12@ABVMatrix4x4@2@@Z 1001fed0 f i BoxShape.obj
 0001:0001ef40       ??7NxQP@@QBE?AV0@XZ        1001ff40 f i BoxShape.obj
 0001:0001f0e0       ?getActor2WorldNew@Body@@QBEABVNxQP@@XZ 100200e0 f i BoxShape.obj
 0001:0001f0f0       ?getPoseTimestamp@Body@@QBEIXZ 100200f0 f i BoxShape.obj
 0001:0001f100       ?getFlagFast@Shape@@QBEHW4NxShapeFlag@@@Z 10020100 f i BoxShape.obj
 0001:0001f120       ?getNxShapeConst@Shape@@QBEPBVNxShape@@XZ 10020120 f i BoxShape.obj
 0001:0001f130       ??4NxMat34@@QAEAAV0@ABV0@@Z 10020130 f i BoxShape.obj
 0001:0001f170       ?initBodyShapeDesc@Shape@@IAEXAAUPxdShapeDesc_@@@Z 10020170 f i BoxShape.obj
 0001:0001fb80       ?getDimensionsFast@BoxShape@@QBEABVNxVec3@@XZ 10020b80 f i BoxShape.obj
 0001:0001fb90       ?segmentBoxSqrDist@@YAMABVNxSegment@@ABVNxBox@@PAMPAVNxVec3@@@Z 10020b90 f i BoxShape.obj
 0001:0001fbc0       ?intersectBoxCapsule@@YA_NABVNxBox@@ABVNxCapsule@@@Z 10020bc0 f i BoxShape.obj
 0001:0001fc10       ??0ConvexMeshInterface@@QAE@XZ 10020c10 f i BoxShape.obj
 0001:0001fc20       ??1BoxShape@@MAE@XZ        10020c20 f   BoxShape.obj
 0001:0001fc40       ?getNxActor@Shape@@UBEPAVNxActor@@XZ 10020c40 f i BoxShape.obj
 0001:0001fc50       ?getNxShapes@Shape@@UAEPAPAVNxShape@@XZ 10020c50 f i BoxShape.obj
 0001:0001fc60       ?getNvScene@Shape@@UBEPAVNvScene@@XZ 10020c60 f i BoxShape.obj
 0001:0001fc70       ?setRadius@Shape@@UAEXM@Z  10020c70 f i BoxShape.obj
 0001:0001fc80       ?setHeight@Shape@@UAEXM@Z  10020c80 f i BoxShape.obj
 0001:0001fc90       ?getRadius@Shape@@UBEMXZ   10020c90 f i BoxShape.obj
 0001:0001fca0       ?getHeight@Shape@@UBEMXZ   10020ca0 f i BoxShape.obj
 0001:0001fcb0       ?getCapsuleFlags@Shape@@UBEIXZ 10020cb0 f i BoxShape.obj
 0001:0001fcc0       ?setCapsuleFlags@Shape@@UAEXI@Z 10020cc0 f i BoxShape.obj
 0001:0001fcd0       ?getWorldCapsule@Shape@@UBEXAAVNxCapsule@@@Z 10020cd0 f i BoxShape.obj
 0001:0001fce0       ?getPlaneEquation@Shape@@UBE?AVNxPlane@@XZ 10020ce0 f i BoxShape.obj
 0001:0001fd00       ?setPlaneEquation@Shape@@UAEXABVNxPlane@@@Z 10020d00 f i BoxShape.obj
 0001:0001fd10       ?setWheelRadius@Shape@@UAEXM@Z 10020d10 f i BoxShape.obj
 0001:0001fd20       ?getWheelRadius@Shape@@UBEMXZ 10020d20 f i BoxShape.obj
 0001:0001fd30       ?setWheelSuspensionTravel@Shape@@UAEXM@Z 10020d30 f i BoxShape.obj
 0001:0001fd40       ?getWheelSuspensionTravel@Shape@@UBEMXZ 10020d40 f i BoxShape.obj
 0001:0001fd50       ?setWheelInverseMass@Shape@@UAEXM@Z 10020d50 f i BoxShape.obj
 0001:0001fd60       ?getWheelInverseMass@Shape@@UBEMXZ 10020d60 f i BoxShape.obj
 0001:0001fd70       ?setWheelFlags@Shape@@UAEXI@Z 10020d70 f i BoxShape.obj
 0001:0001fd80       ?getWheelFlags@Shape@@UBEIXZ 10020d80 f i BoxShape.obj
 0001:0001fd90       ?setWheelMotorTorque@Shape@@UAEXM@Z 10020d90 f i BoxShape.obj
 0001:0001fda0       ?getWheelMotorTorque@Shape@@UBEMXZ 10020da0 f i BoxShape.obj
 0001:0001fdb0       ?setWheelBrakeTorque@Shape@@UAEXM@Z 10020db0 f i BoxShape.obj
 0001:0001fdc0       ?getWheelBrakeTorque@Shape@@UBEMXZ 10020dc0 f i BoxShape.obj
 0001:0001fdd0       ?setWheelSteerAngle@Shape@@UAEXM@Z 10020dd0 f i BoxShape.obj
 0001:0001fde0       ?getWheelSteerAngle@Shape@@UBEMXZ 10020de0 f i BoxShape.obj
 0001:0001fdf0       ?setWheelSuspension@Shape@@UAEXVNxSpringDesc@@@Z 10020df0 f i BoxShape.obj
 0001:0001fe00       ?setWheelLongitudalTireForceFunction@Shape@@UAEXVNxTireFunctionDesc@@@Z 10020e00 f i BoxShape.obj
 0001:0001fe10       ?setWheelLateralTireForceFunction@Shape@@UAEXVNxTireFunctionDesc@@@Z 10020e10 f i BoxShape.obj
 0001:0001fe20       ?setWheelLngImpulse@Shape@@UAEXM@Z 10020e20 f i BoxShape.obj
 0001:0001fe30       ?getWheelLngImpulse@Shape@@UBEMXZ 10020e30 f i BoxShape.obj
 0001:0001fe40       ?setWheelAxleSpeed@Shape@@UAEXM@Z 10020e40 f i BoxShape.obj
 0001:0001fe50       ?getWheelAxleSpeed@Shape@@UBEMXZ 10020e50 f i BoxShape.obj
 0001:0001fe60       ?getContact@Shape@@UBEPAVNvShape@@AAVNxWheelContactData@@@Z 10020e60 f i BoxShape.obj
 0001:0001fe70       ?getNvConvexMesh@Shape@@UAEPAVNvConvexMesh@@XZ 10020e70 f i BoxShape.obj
 0001:0001fe80       ?getNvConvexMesh@Shape@@UBEPBVNvConvexMesh@@XZ 10020e80 f i BoxShape.obj
 0001:0001fe90       ?setConvexMesh@Shape@@UAEXPAVNvConvexMesh@@@Z 10020e90 f i BoxShape.obj
 0001:0001fea0       ?getConvexMesh@Shape@@UAEPAVNpConvexMesh@@XZ 10020ea0 f i BoxShape.obj
 0001:0001feb0       ?getNvTriangleMesh@Shape@@UAEPAVNvTriangleMesh@@XZ 10020eb0 f i BoxShape.obj
 0001:0001fec0       ?getNvTriangleMesh@Shape@@UBEPBVNvTriangleMesh@@XZ 10020ec0 f i BoxShape.obj
 0001:0001fed0       ?setTriangleMesh@Shape@@UAEXPAVNvTriangleMesh@@@Z 10020ed0 f i BoxShape.obj
 0001:0001fee0       ?getTriangleMesh@Shape@@UAEPAVNpTriangleMesh@@XZ 10020ee0 f i BoxShape.obj
 0001:0001fef0       ?getMeshFlags@Shape@@UBEIXZ 10020ef0 f i BoxShape.obj
 0001:0001ff00       ?setMeshFlags@Shape@@UAEXI@Z 10020f00 f i BoxShape.obj
 0001:0001ff10       ?getMeshPagingMode@Shape@@UBE?AW4NxMeshPagingMode@@XZ 10020f10 f i BoxShape.obj
 0001:0001ff20       ?setMeshPagingMode@Shape@@UAEXW4NxMeshPagingMode@@@Z 10020f20 f i BoxShape.obj
 0001:0001ff30       ?getTriangle@Shape@@UBEIAAVNxTriangle@@PAV2@PAII_N3@Z 10020f30 f i BoxShape.obj
 0001:0001ff40       ?overlapAABBTriangles@Shape@@UBE_NVNxBounds3@@IAAIAAPBI@Z 10020f40 f i BoxShape.obj
 0001:0001ff50       ?overlapAABBTrianglesCount@Shape@@UBEIVNxBounds3@@I@Z 10020f50 f i BoxShape.obj
 0001:0001ff60       ?getScale@Shape@@UBEMXZ    10020f60 f i BoxShape.obj
 0001:0001ff70       ?setScale@Shape@@UAEXM@Z   10020f70 f i BoxShape.obj
 0001:0001ff80       ?getNvHeightField@Shape@@UAEPAVNvHeightField@@XZ 10020f80 f i BoxShape.obj
 0001:0001ff90       ?getNvHeightField@Shape@@UBEPBVNvHeightField@@XZ 10020f90 f i BoxShape.obj
 0001:0001ffa0       ?setHeightField@Shape@@UAEXPAVNvHeightField@@@Z 10020fa0 f i BoxShape.obj
 0001:0001ffb0       ?getHeightField@Shape@@UAEPAVNpHeightField@@XZ 10020fb0 f i BoxShape.obj
 0001:0001ffc0       ?getHeightScaleV@Shape@@UBEMXZ 10020fc0 f i BoxShape.obj
 0001:0001ffd0       ?setHeightScale@Shape@@UAEXM@Z 10020fd0 f i BoxShape.obj
 0001:0001ffe0       ?getRowScaleV@Shape@@UBEMXZ 10020fe0 f i BoxShape.obj
 0001:0001fff0       ?setRowScale@Shape@@UAEXM@Z 10020ff0 f i BoxShape.obj
 0001:00020000       ?getColumnScaleV@Shape@@UBEMXZ 10021000 f i BoxShape.obj
 0001:00020010       ?setColumnScale@Shape@@UAEXM@Z 10021010 f i BoxShape.obj
 0001:00020020       ?getMaterialIndexHighBitsV@Shape@@UBEGXZ 10021020 f i BoxShape.obj
 0001:00020030       ?setMaterialIndexHighBits@Shape@@UAEXG@Z 10021030 f i BoxShape.obj
 0001:00020040       ?getHoleMaterialV@Shape@@UBEGXZ 10021040 f i BoxShape.obj
 0001:00020050       ?setHoleMaterial@Shape@@UAEXG@Z 10021050 f i BoxShape.obj
 0001:00020060       ?isShapePointOnHeightFieldV@Shape@@UBE_NMM@Z 10021060 f i BoxShape.obj
 0001:00020070       ?getHeightAtShapePointV@Shape@@UBEMMM@Z 10021070 f i BoxShape.obj
 0001:00020080       ?getMaterialAtShapePointV@Shape@@UBEGMM@Z 10021080 f i BoxShape.obj
 0001:00020090       ?getNormalAtShapePointV@Shape@@UBE?AVNxVec3@@MM@Z 10021090 f i BoxShape.obj
 0001:000200b0       ?getSmoothNormalAtShapePointV@Shape@@UBE?AVNxVec3@@MM@Z 100210b0 f i BoxShape.obj
 0001:000200d0       ?getNvShapes@Shape@@UBEPAPBVNvShape@@XZ 100210d0 f i BoxShape.obj
 0001:000200e0       ?getNvShapes@Shape@@UAEPAPAVNvShape@@XZ 100210e0 f i BoxShape.obj
 0001:000200f0       ?getNbShapes@Shape@@UBEIXZ 100210f0 f i BoxShape.obj
 0001:00020100       ?moveToCompound@Shape@@UAEXAAVNvShape@@@Z 10021100 f i BoxShape.obj
 0001:00020110       ?setGroup@Shape@@UAEXG@Z   10021110 f i BoxShape.obj
 0001:00020120       ?getNpShape@Shape@@UAEPAVNpShape@@XZ 10021120 f i BoxShape.obj
 0001:00020130       ?getNxShape@Shape@@UAEPAVNxShape@@XZ 10021130 f i BoxShape.obj
 0001:00020140       ?hasSpecialBroadphase@Shape@@UBE_NXZ 10021140 f i BoxShape.obj
 0001:00020150       ?getID@Shape@@UBEIXZ       10021150 f i BoxShape.obj
 0001:00020160       ?getType@Shape@@UBE?AW4NxShapeType@@XZ 10021160 f i BoxShape.obj
 0001:00020170       ?getFlag@Shape@@UBE_NW4NxShapeFlag@@@Z 10021170 f i BoxShape.obj
 0001:00020190       ?getMaterial@Shape@@UBEGXZ 10021190 f i BoxShape.obj
 0001:000201a0       ?getSkinWidth@Shape@@UBEMXZ 100211a0 f i BoxShape.obj
 0001:000201b0       ?getCollisionGroup@Shape@@UBEGXZ 100211b0 f i BoxShape.obj
 0001:000201c0       ?getGroup@Shape@@UBEGXZ    100211c0 f i BoxShape.obj
 0001:000201d0       ?getGroupsMask@Shape@@UBE?AVNxGroupsMask@@XZ 100211d0 f i BoxShape.obj
 0001:00020210       ?getActorPublicFlags@Shape@@UBEIXZ 10021210 f i BoxShape.obj
 0001:00020220       ?getFlags@Shape@@UBEIXZ    10021220 f i BoxShape.obj
 0001:00020230       ?isTrigger@Shape@@UBE_NXZ  10021230 f i BoxShape.obj
 0001:00020250       ?mapPageInstance@Shape@@UAE_NI@Z 10021250 f i BoxShape.obj
 0001:00020260       ?unmapPageInstance@Shape@@UAEXI@Z 10021260 f i BoxShape.obj
 0001:00020270       ?isPageInstanceMapped@Shape@@UBE_NI@Z 10021270 f i BoxShape.obj
 0001:00020280       ?setFlags@Shape@@UAEXI@Z   10021280 f i BoxShape.obj
 0001:00020330       ?getShape@BoxShape@@UAEAAVShape@@XZ 10021330 f i BoxShape.obj
 0001:00020340       ?getShape@BoxShape@@UBEABVShape@@XZ 10021340 f i BoxShape.obj
 0001:00020350       ??BBoxShape@@UAEAAVShape@@XZ 10021350 f i BoxShape.obj
 0001:00020360       ?getBoxDimensions@BoxShape@@UBE?AVNxVec3@@XZ 10021360 f i BoxShape.obj
 0001:00020390       ?computeLocalSphere@BoxShape@@EBEXAAVNxSphere@@@Z 10021390 f   BoxShape.obj
 0001:000203e0       ?computeLocalBounds@BoxShape@@UBEXAAVNxBounds3@@@Z 100213e0 f   BoxShape.obj
 0001:00020440       ?GetNbVerts@BoxShape@@UBEIXZ 10021440 f   BoxShape.obj
 0001:00020450       ?GetVerts@BoxShape@@UBEPBVPoint@IceMaths@@XZ 10021450 f   BoxShape.obj
 0001:00020460       ?GetEdgeNormals@BoxShape@@QBEPBVPoint@IceMaths@@XZ 10021460 f   BoxShape.obj
 0001:00020470       ?SelectClosestPolygon@BoxShape@@UBEIABVPoint@IceMaths@@PBVMatrix4x4@3@@Z 10021470 f   BoxShape.obj
 0001:000206b0       ?SelectClosestEdge@BoxShape@@UBEIABVPoint@IceMaths@@PBVMatrix4x4@3@PAI@Z 100216b0 f   BoxShape.obj
 0001:00020b90       ?GetNbPolygons@BoxShape@@UBEIXZ 10021b90 f   BoxShape.obj
 0001:00020ba0       ?GetPolygon@BoxShape@@UBEABUPxHullPolygonData@@I@Z 10021ba0 f   BoxShape.obj
 0001:00020bc0       ?GetEdgeDirections@BoxShape@@UBEPBVVertices@@XZ 10021bc0 f   BoxShape.obj
 0001:00020bd0       ?GetNbEdges@BoxShape@@UBEIXZ 10021bd0 f   BoxShape.obj
 0001:00020be0       ?GetEdges8@BoxShape@@UBEPBVEdge8@NxPhysics@@XZ 10021be0 f   BoxShape.obj
 0001:00020bf0       ?GetEdgeToTriangles@BoxShape@@UBEPBUPxEdgeDescData@@XZ 10021bf0 f   BoxShape.obj
 0001:00020c00       ?GetFacesByEdges16@BoxShape@@UBEPBGXZ 10021c00 f   BoxShape.obj
 0001:00020c10       ?createHullData@BoxShape@@AAEXXZ 10021c10 f   BoxShape.obj
 0001:00021000       ?BoxSupport@@YAXABVPoint@IceMaths@@0AAV12@@Z 10022000 f i BoxShape.obj
 0001:00021050       ?ProjectHull@BoxShape@@UBEXAAVNPhaseContext@@AAM1ABVPoint@IceMaths@@ABVMatrix4x4@4@@Z 10022050 f   BoxShape.obj
 0001:000211e0       ?GetLocalBoundingSphere@BoxShape@@UBEXAAVNxSphere@@@Z 100221e0 f   BoxShape.obj
 0001:00021230       ?getWheelSuspension@Shape@@UBE?AVNxSpringDesc@@XZ 10022230 f i BoxShape.obj
 0001:00021250       ?getWheelLongitudalTireForceFunction@Shape@@UBE?AVNxTireFunctionDesc@@XZ 10022250 f i BoxShape.obj
 0001:000212a0       ??_ENxTireFunctionDesc@@UAEPAXI@Z 100222a0 f i BoxShape.obj
 0001:000212a0       ??_GNxTireFunctionDesc@@UAEPAXI@Z 100222a0 f i BoxShape.obj
 0001:000212d0       ?setToDefault@NxTireFunctionDesc@@UAEXXZ 100222d0 f i BoxShape.obj
 0001:00021300       ?isValid@NxTireFunctionDesc@@UBE_NXZ 10022300 f i BoxShape.obj
 0001:00021370       ?getWheelLateralTireForceFunction@Shape@@UBE?AVNxTireFunctionDesc@@XZ 10022370 f i BoxShape.obj
 0001:000213c0       ?getAbsPoseFast@Shape@@QBEABVNxMat34@@XZ 100223c0 f i BoxShape.obj
 0001:00021800       ?getWorldOBB@BoxShape@@QBEXAAVNxBox@@@Z 10022800 f i BoxShape.obj
 0001:00021860       ??0BoxShape@@IAE@ABVNvShapeDesc@@PAVScene@@I@Z 10022860 f   BoxShape.obj
 0001:00022460       ??_GBoxShape@@MAEPAXI@Z    10023460 f i BoxShape.obj
 0001:00022460       ??_EBoxShape@@MAEPAXI@Z    10023460 f i BoxShape.obj
 0001:00022490       ?setDimensions@BoxShape@@UAEXABVNxVec3@@@Z 10023490 f   BoxShape.obj
 0001:00022510       ?computeWorldBounds@BoxShape@@EBEXAAVNxBounds3@@@Z 10023510 f   BoxShape.obj
 0001:00022620       ?computeWorldSphere@BoxShape@@EBEXAAVNxSphere@@@Z 10023620 f   BoxShape.obj
 0001:00022690       ?vertex2World@BoxShape@@QBEXHHHAAVNxVec3@@@Z 10023690 f   BoxShape.obj
 0001:00022750       ?visualize@BoxShape@@UBEXAAVDebugRenderable@NxFoundation@@@Z 10023750 f   BoxShape.obj
 0001:00022820       ?raycast@BoxShape@@UBE_NABVNxRay@@MIAAUNxRaycastHit@@_N@Z 10023820 f   BoxShape.obj
 0001:00022ba0       ?checkOverlapSphere@BoxShape@@UBE_NABVNxSphere@@@Z 10023ba0 f   BoxShape.obj
 0001:00022c30       ?checkOverlapOBB@BoxShape@@UBE_NABVNxBox@@@Z 10023c30 f   BoxShape.obj
 0001:00022c70       ?checkOverlapAABB@BoxShape@@UBE_NABVNxBounds3@@@Z 10023c70 f   BoxShape.obj
 0001:00022db0       ?checkOverlapCapsule@BoxShape@@UBE_NABVNxCapsule@@@Z 10023db0 f   BoxShape.obj
 0001:00022e70       ?GetCenter@BoxShape@@UBEABVPoint@IceMaths@@XZ 10023e70 f   BoxShape.obj
 0001:00022ee0       ?getAbsPose@Shape@@UBEABVNxMat34@@XZ 10023ee0 f i BoxShape.obj
 0001:00022ef0       ?getPreviousAbsPose@Shape@@UBEABVNxMat34@@XZ 10023ef0 f i BoxShape.obj
 0001:00022f00       ?getPreviousAbsPoseFast@Shape@@QBEABVNxMat34@@XZ 10023f00 f i BoxShape.obj
 0001:00023730       ?getWorldBounds@Shape@@UBEXAAVNxBounds3@@@Z 10024730 f i BoxShape.obj
 0001:00023780       ?getWorldBoundsFast@Shape@@QBE?AVNxBounds3@@XZ 10024780 f i BoxShape.obj
 0001:00024080       ??1NxBounds3@@QAE@XZ       10025080 f i BoxShape.obj
 0001:00024090       ??DNxMat34@@QBE?AV0@ABV0@@Z 10025090 f i BoxShape.obj
 0001:00024280       ??0NxMat34@@QAE@ABV0@@Z    10025280 f i BoxShape.obj
 0001:000242c0       ??0NxMat34@@QAE@_N@Z       100252c0 f i BoxShape.obj
 0001:00024310       ?max@NxMath@@SAIII@Z       10025310 f i BroadPhase.obj
 0001:00024330       ?max@NxVec3@@QAEXABV1@@Z   10025330 f i BroadPhase.obj
 0001:000243b0       ?min@NxVec3@@QAEXABV1@@Z   100253b0 f i BroadPhase.obj
 0001:00024430       ?Reset@ContainerSizeT@IceCore@@QAEXXZ 10025430 f i BroadPhase.obj
 0001:00024450       ?DeleteIndex@ContainerSizeT@IceCore@@QAEXI@Z 10025450 f i BroadPhase.obj
 0001:00024470       ?GetNbEntries@ContainerSizeT@IceCore@@QBEIXZ 10025470 f i BroadPhase.obj
 0001:00024480       ?GetEntries@ContainerSizeT@IceCore@@QBEPAIXZ 10025480 f i BroadPhase.obj
 0001:00024490       ??BPoint@IceMaths@@QBEPBMXZ 10025490 f i BroadPhase.obj
 0001:000244a0       ?GetCenter@AABB@IceMaths@@QBEMI@Z 100254a0 f i BroadPhase.obj
 0001:000244c0       ?GetExtents@AABB@IceMaths@@QBEMI@Z 100254c0 f i BroadPhase.obj
 0001:000244e0       ?combine@NxBounds3@@QAEXABV1@@Z 100254e0 f i BroadPhase.obj
 0001:000245c0       ?isEmpty@NxBounds3@@QBE_NXZ 100255c0 f i BroadPhase.obj
 0001:00024600       ?getLowLevelBroadPhaseContext@PxScene@@QAEAAIXZ 10025600 f i BroadPhase.obj
 0001:00024610       ?getActor@PxInteractionMarker@@QBEAAVPxActor@@XZ 10025610 f i BroadPhase.obj
 0001:00024620       ?getTwinMarker@PxInteractionMarker@@QBEPAV1@XZ 10025620 f i BroadPhase.obj
 0001:00024630       ?getNext@PxInteractionMarker@@QBEPAV1@XZ 10025630 f i BroadPhase.obj
 0001:00024640       ?isDirty@PxInteractionMarker@@QBE_NXZ 10025640 f i BroadPhase.obj
 0001:00024650       ?getScene@PxActor@@QBEAAVPxScene@@XZ 10025650 f i BroadPhase.obj
 0001:00024660       ?getType@PxActor@@QBEIXZ   10025660 f i BroadPhase.obj
 0001:00024670       ?getLowLevelVolume@PxActor@@QBEIXZ 10025670 f i BroadPhase.obj
 0001:00024680       ?setLowLevelVolume@PxActor@@QAEXI@Z 10025680 f i BroadPhase.obj
 0001:00024690       ?getOverMarkerCount@PxActor@@QBEIXZ 10025690 f i BroadPhase.obj
 0001:000246a0       ?getOverlapMarkerRoot@PxActor@@QBEPAVPxInteractionMarker@@XZ 100256a0 f i BroadPhase.obj
 0001:000246b0       ?detach@PxInteractionMarker@@QAEXXZ 100256b0 f i BroadPhase.obj
 0001:000246e0       ?getActor0@PxInteraction@@QBEAAVPxActor@@XZ 100256e0 f i BroadPhase.obj
 0001:000246f0       ?getActor1@PxInteraction@@QBEAAVPxActor@@XZ 100256f0 f i BroadPhase.obj
 0001:00024700       ?isInCCDPhase@NPhaseCore@@QBEHXZ 10025700 f i BroadPhase.obj
 0001:00024710       ?getUserContactData@Scene@@QAEAAVPairManager@@XZ 10025710 f i BroadPhase.obj
 0001:00024720       ?getContactReportBuffer@Scene@@QAEAAVContainer@IceCore@@XZ 10025720 f i BroadPhase.obj
 0001:00024730       ?getShape@Body@@QBEPAVShape@@XZ 10025730 f i BroadPhase.obj
 0001:00024740       ?getShape@StaticActor@@QBEPAVShape@@XZ 10025740 f i BroadPhase.obj
 0001:00024750       ?getBodyFast@Shape@@QBEPAVBody@@XZ 10025750 f i BroadPhase.obj
 0001:00024760       ?getOwnerSceneFast@Shape@@QBEPAVScene@@XZ 10025760 f i BroadPhase.obj
 0001:00024770       ?getActorGroupFast@Shape@@QBEGXZ 10025770 f i BroadPhase.obj
 0001:00024780       ?getTypeFast@Shape@@QBE?AW4NxShapeType@@XZ 10025780 f i BroadPhase.obj
 0001:00024790       ?is@Shape@@QAEPAV1@W4NxShapeType@@@Z 10025790 f i BroadPhase.obj
 0001:000247b0       ?isTriggerFast@Shape@@QBEHXZ 100257b0 f i BroadPhase.obj
 0001:000247c0       ?getIDFast@Shape@@QBEIXZ   100257c0 f i BroadPhase.obj
 0001:000247d0       ?getPxActor@Shape@@QBEPAVStaticActor@@XZ 100257d0 f i BroadPhase.obj
 0001:000247e0       ?getLowLevelBodyShape@Shape@@QBEIXZ 100257e0 f i BroadPhase.obj
 0001:000247f0       ?getCompoundOwner@Shape@@QBEPAVCompoundShape@@XZ 100257f0 f i BroadPhase.obj
 0001:00024800       ?getNewWorldBoundsFast@Shape@@QBEABVNxBounds3@@XZ 10025800 f i BroadPhase.obj
 0001:00024880       ??0NxBounds3@@QAE@ABV0@@Z  10025880 f i BroadPhase.obj
 0001:000248c0       ?getMeshShape@PageBoundsActor@@QBEAAVTriangleMeshShape@@XZ 100258c0 f i BroadPhase.obj
 0001:000248d0       ?getContactNotifyFlags@ShapeInstancePair@@QBEIXZ 100258d0 f i BroadPhase.obj
 0001:00024940       ?NXToICE@@YAABVAABB@IceMaths@@ABVNxBounds3@@@Z 10025940 f i BroadPhase.obj
 0001:00024950       ??0RawBoundsActor@@QAE@AAVScene@@ABVNxBounds3@@@Z 10025950 f   BroadPhase.obj
 0001:00024b60       ?canActivate@PxActor@@UBE_NXZ 10025b60 f i BroadPhase.obj
 0001:00024b70       ?getAppData@PxActor@@UAEPAXXZ 10025b70 f i BroadPhase.obj
 0001:00024b80       ?isIslandGenerating@PxActor@@UBE_NXZ 10025b80 f i BroadPhase.obj
 0001:00024b90       ?onAllInteractionsInactiveChange@PxActor@@MAEX_N@Z 10025b90 f i BroadPhase.obj
 0001:00024ba0       ?canDeactivate@RawBoundsActor@@UBE_NXZ 10025ba0 f i BroadPhase.obj
 0001:00024bb0       ?isActive@RawBoundsActor@@UBE_NXZ 10025bb0 f i BroadPhase.obj
 0001:00024bc0       ?onActivate@RawBoundsActor@@MAEXXZ 10025bc0 f i BroadPhase.obj
 0001:00024bd0       ?onDeactivate@RawBoundsActor@@MAEXXZ 10025bd0 f i BroadPhase.obj
 0001:00024be0       ??1RawBoundsActor@@EAE@XZ  10025be0 f   BroadPhase.obj
 0001:00024bf0       ??0RawBoundsInteraction@@QAE@AAVRawBoundsActor@@AAVPxActor@@PAVNvUserRawBoundsReport@@@Z 10025bf0 f   BroadPhase.obj
 0001:00024cb0       ?onActorActiveChange@PxInteraction@@MAEXPAVPxActor@@@Z 10025cb0 f i BroadPhase.obj
 0001:00024cc0       ?isActive@RawBoundsInteraction@@UBE_NXZ 10025cc0 f i BroadPhase.obj
 0001:00024cd0       ?onActivate@RawBoundsInteraction@@MAEXXZ 10025cd0 f i BroadPhase.obj
 0001:00024ce0       ?onDeactivate@RawBoundsInteraction@@MAEXXZ 10025ce0 f i BroadPhase.obj
 0001:00024cf0       ??1RawBoundsInteraction@@UAE@XZ 10025cf0 f   BroadPhase.obj
 0001:00024da0       ??0BroadPhase@@IAE@XZ      10025da0 f   BroadPhase.obj
 0001:00024dd0       ??1BroadPhase@@IAE@XZ      10025dd0 f   BroadPhase.obj
 0001:00024e50       ?addRawBounds@BroadPhase@@QAEPAVNvRawBounds@@AAVScene@@ABVNxBounds3@@@Z 10025e50 f   BroadPhase.obj
 0001:00024ee0       ?removeRawBounds@BroadPhase@@QAEXAAVNvRawBounds@@@Z 10025ee0 f   BroadPhase.obj
 0001:00024f00       ?onRawPair@BroadPhase@@QAEXIPAVShape@@@Z 10025f00 f   BroadPhase.obj
 0001:00024f10       ?prepareOverlapBuffer@BroadPhase@@IAEXI_N@Z 10025f10 f   BroadPhase.obj
 0001:00024fa0       ?finishBroadPhase@BroadPhase@@QAEXAAVScene@@@Z 10025fa0 f   BroadPhase.obj
 0001:00025440       ?visualize@BroadPhase@@QAEXAAVDebugRenderable@NxFoundation@@@Z 10026440 f   BroadPhase.obj
 0001:00025450       ?size@?$NxArray@PAVPxInteraction@@VUserAllocatorAccess@NxFoundation@@@@QBEIXZ 10026450 f i BroadPhase.obj
 0001:00025460       ?size@?$NxArray@VPageData@TriangleMeshShape@@VUserAllocatorAccess@NxFoundation@@@@QBEIXZ 10026460 f i BroadPhase.obj
 0001:00025470       ?begin@?$NxArray@PAVShape@@VUserAllocatorAccess@NxFoundation@@@@QAEPAPAVShape@@XZ 10026470 f i BroadPhase.obj
 0001:00025480       ??E?$PxBackwardIterator@QAVPxInteraction@@@@QAEAAV0@XZ 10026480 f i BroadPhase.obj
 0001:00025490       ??D?$PxBackwardIterator@QAVPxInteraction@@@@QAEPBQAVPxInteraction@@XZ 10026490 f i BroadPhase.obj
 0001:000254a0       ?end@?$PxBackwardIterator@QAVPxInteraction@@@@QBEPBQAVPxInteraction@@XZ 100264a0 f i BroadPhase.obj
 0001:000254b0       ?begin@?$PxIterator@QAVPxInteraction@@@@QBEPBQAVPxInteraction@@XZ 100264b0 f i BroadPhase.obj
 0001:000254c0       ?setEmpty@NxBounds3@@QAEXXZ 100264c0 f i BroadPhase.obj
 0001:000254f0       ?getInteractionCount@PxActor@@QBEIXZ 100264f0 f i BroadPhase.obj
 0001:00025500       ?removeOverlapMarker@PxActor@@QAEXPAVPxInteractionMarker@@@Z 10026500 f i BroadPhase.obj
 0001:00025570       ?getPageCount@TriangleMeshShape@@QBEIXZ 10026570 f i BroadPhase.obj
 0001:00025590       ?getShapes@CompoundShape@@QAEPAPAVShape@@XZ 10026590 f i BroadPhase.obj
 0001:000255a0       ??_ERawBoundsActor@@EAEPAXI@Z 100265a0 f i BroadPhase.obj
 0001:000255a0       ??_GRawBoundsActor@@EAEPAXI@Z 100265a0 f i BroadPhase.obj
 0001:000255d0       ??_ERawBoundsInteraction@@UAEPAXI@Z 100265d0 f i BroadPhase.obj
 0001:000255d0       ??_GRawBoundsInteraction@@UAEPAXI@Z 100265d0 f i BroadPhase.obj
 0001:00025600       ?addActor@BroadPhase@@QAEXAAVShape@@_N@Z 10026600 f   BroadPhase.obj
 0001:00025a40       ??0?$PxBackwardIterator@QAVPxInteraction@@@@QAE@ABV?$PxIterator@QAVPxInteraction@@@@@Z 10026a40 f i BroadPhase.obj
 0001:00025a70       ??0NxBounds3@@QAE@XZ       10026a70 f i BroadPhase.obj
 0001:00025aa0       ?destroy@RawBoundsActor@@UAEXXZ 10026aa0 f   BroadPhase.obj
 0001:00025b00       ?removeActor@BroadPhase@@QAEXAAVShape@@@Z 10026b00 f   BroadPhase.obj
 0001:00025d80       ?updateBroadPhase@BroadPhase@@QAEXAAVShape@@_N@Z 10026d80 f   BroadPhase.obj
 0001:00026110       ?updateVolumes@BroadPhase@@QAEXAAVScene@@@Z 10027110 f   BroadPhase.obj
 0001:00026180       ?startBroadPhase@BroadPhase@@QAEXAAVScene@@@Z 10027180 f   BroadPhase.obj
 0001:00026500       ?degToRad@NxMath@@SAMM@Z   10027500 f i CapsuleShape.obj
 0001:00026510       ??0NxSegment@@QAE@XZ       10027510 f i CapsuleShape.obj
 0001:00026520       ??1NxSegment@@QAE@XZ       10027520 f i CapsuleShape.obj
 0001:00026530       ?computePoint@NxSegment@@QBEXAAVNxVec3@@M@Z 10027530 f i CapsuleShape.obj
 0001:000265b0       ??0NxCapsule@@QAE@XZ       100275b0 f i CapsuleShape.obj
 0001:000265c0       ??1NxCapsule@@QAE@XZ       100275c0 f i CapsuleShape.obj
 0001:000265d0       ?fromAngleAxis@NxQuat@@QAEXMABVNxVec3@@@Z 100275d0 f i CapsuleShape.obj
 0001:00026660       ?setColumn@NxMat33@@QAEXHABVNxVec3@@@Z 10027660 f i CapsuleShape.obj
 0001:00026690       ?setCenterExtents@NxBounds3@@QAEXABVNxVec3@@0@Z 10027690 f i CapsuleShape.obj
 0001:00026700       ??0CapsuleShape@@IAE@ABVNvShapeDesc@@PAVScene@@I@Z 10027700 f   CapsuleShape.obj
 0001:00027300       ?setDimensions@Shape@@UAEXABVNxVec3@@@Z 10028300 f i CapsuleShape.obj
 0001:00027310       ?getBoxDimensions@Shape@@UBE?AVNxVec3@@XZ 10028310 f i CapsuleShape.obj
 0001:00027320       ?getShape@CapsuleShape@@UAEAAVShape@@XZ 10028320 f i CapsuleShape.obj
 0001:00027330       ?getShape@CapsuleShape@@UBEABVShape@@XZ 10028330 f i CapsuleShape.obj
 0001:00027340       ??BCapsuleShape@@UAEAAVShape@@XZ 10028340 f i CapsuleShape.obj
 0001:00027350       ?setCapsuleFlags@CapsuleShape@@UAEXI@Z 10028350 f i CapsuleShape.obj
 0001:00027360       ?getRadius@CapsuleShape@@UBEMXZ 10028360 f i CapsuleShape.obj
 0001:00027370       ?getHeight@CapsuleShape@@UBEMXZ 10028370 f i CapsuleShape.obj
 0001:00027380       ?getCapsuleFlags@CapsuleShape@@UBEIXZ 10028380 f i CapsuleShape.obj
 0001:00027390       ??1CapsuleShape@@MAE@XZ    10028390 f   CapsuleShape.obj
 0001:000273a0       ?setDimensions@CapsuleShape@@QAEXMM@Z 100283a0 f   CapsuleShape.obj
 0001:00027450       ?setRadius@CapsuleShape@@UAEXM@Z 10028450 f   CapsuleShape.obj
 0001:00027490       ?setHeight@CapsuleShape@@UAEXM@Z 10028490 f   CapsuleShape.obj
 0001:000274e0       ?computeLocalSphere@CapsuleShape@@UBEXAAVNxSphere@@@Z 100284e0 f   CapsuleShape.obj
 0001:00027510       ?computeLocalBounds@CapsuleShape@@UBEXAAVNxBounds3@@@Z 10028510 f   CapsuleShape.obj
 0001:00027580       ?normalize@NxVec3@@QAEMXZ  10028580 f i CapsuleShape.obj
 0001:000275f0       ?getWorldSegmentFast@CapsuleShape@@QBEXAAVNxSegment@@@Z 100285f0 f i CapsuleShape.obj
 0001:000276b0       ?getWorldCapsuleFast@CapsuleShape@@QBEXAAVNxCapsule@@@Z 100286b0 f i CapsuleShape.obj
 0001:00027780       ?getWorldCapsule@CapsuleShape@@UBEXAAVNxCapsule@@@Z 10028780 f i CapsuleShape.obj
 0001:00027850       ??_GCapsuleShape@@MAEPAXI@Z 10028850 f i CapsuleShape.obj
 0001:00027850       ??_ECapsuleShape@@MAEPAXI@Z 10028850 f i CapsuleShape.obj
 0001:00027880       ?computeWorldSphere@CapsuleShape@@UBEXAAVNxSphere@@@Z 10028880 f   CapsuleShape.obj
 0001:000278c0       ?visualize@CapsuleShape@@UBEXAAVDebugRenderable@NxFoundation@@@Z 100288c0 f   CapsuleShape.obj
 0001:00028200       ?raycast@CapsuleShape@@UBE_NABVNxRay@@MIAAUNxRaycastHit@@_N@Z 10029200 f   CapsuleShape.obj
 0001:00028570       ?checkOverlapSphere@CapsuleShape@@UBE_NABVNxSphere@@@Z 10029570 f   CapsuleShape.obj
 0001:00028670       ?checkOverlapOBB@CapsuleShape@@UBE_NABVNxBox@@@Z 10029670 f   CapsuleShape.obj
 0001:000287a0       ?checkOverlapAABB@CapsuleShape@@UBE_NABVNxBounds3@@@Z 100297a0 f   CapsuleShape.obj
 0001:000289c0       ?checkOverlapCapsule@CapsuleShape@@UBE_NABVNxCapsule@@@Z 100299c0 f   CapsuleShape.obj
 0001:00028af0       ?computeWorldBounds@CapsuleShape@@UBEXAAVNxBounds3@@@Z 10029af0 f   CapsuleShape.obj
 0001:00028d30       ??4NxBounds3@@QAEAAV0@ABV0@@Z 10029d30 f i CapsuleShape.obj
 0001:00028d70       ?multiply@NxMat34@@QBEXABVNxVec3@@AAV2@@Z 10029d70 f i CCDSkeleton.obj
 0001:00028e00       ?NxZeroMemory@@YAXPAXI@Z   10029e00 f i CCDSkeleton.obj
 0001:00028e30       ??0NxPlane@@QAE@XZ         10029e30 f i CCDSkeleton.obj
 0001:00028e40       ??1NxPlane@@QAE@XZ         10029e40 f i CCDSkeleton.obj
 0001:00028e50       ?set@NxPlane@@QAEAAV1@ABVNxVec3@@0@Z 10029e50 f i CCDSkeleton.obj
 0001:00028ea0       ?transform@NxPlane@@QBEXABVNxMat34@@AAV1@@Z 10029ea0 f i CCDSkeleton.obj
 0001:00028f30       ??APlueckerLine@@QAEAAMH@Z 10029f30 f i CCDSkeleton.obj
 0001:00028f40       ?fromLine@PlueckerLine@@QAEXABVNxVec3@@0@Z 10029f40 f i CCDSkeleton.obj
 0001:00028fb0       ?fromRay@PlueckerLine@@QAEXABVNxVec3@@0@Z 10029fb0 f i CCDSkeleton.obj
 0001:00029010       ?addVertex@CCDSkeleton@@QAEIABVNxVec3@@H@Z 1002a010 f i CCDSkeleton.obj
 0001:00029080       ?getNumEdgesIterated@CCDSkeleton@@QBEIXZ 1002a080 f i CCDSkeleton.obj
 0001:000290a0       ?getNumVerticesIterated@CCDSkeleton@@QBEIXZ 1002a0a0 f i CCDSkeleton.obj
 0001:000290b0       ?getEdge@CCDSkeleton@@QAEPAUEdgeInfo@1@I@Z 1002a0b0 f i CCDSkeleton.obj
 0001:000290d0       ?getVertex@CCDSkeleton@@QAEPAUVertexInfo@1@I@Z 1002a0d0 f i CCDSkeleton.obj
 0001:000290f0       ?setVertexIndex0@EdgeInfo@CCDSkeleton2@@QAEXIW4Flags@12@@Z 1002a0f0 f i CCDSkeleton.obj
 0001:00029110       ?setVertexIndex1@EdgeInfo@CCDSkeleton2@@QAEXI@Z 1002a110 f i CCDSkeleton.obj
 0001:00029120       ?addVertex@CCDSkeleton2@@QAEIABVNxVec3@@0@Z 1002a120 f i CCDSkeleton.obj
 0001:000291f0       ?getVertex@CCDSkeleton2@@QAEPAUVertexInfo@1@I@Z 1002a1f0 f i CCDSkeleton.obj
 0001:00029210       ??4NxPlane@@QAEAAV0@ABV0@@Z 1002a210 f i CCDSkeleton.obj
 0001:00029240       ?getVertexIndex@EdgeInfo@SourceCCDSkeleton@@QBEII@Z 1002a240 f i CCDSkeleton.obj
 0001:00029260       ?getVertexIndex0@EdgeInfo@SourceCCDSkeleton@@QBEIXZ 1002a260 f i CCDSkeleton.obj
 0001:00029270       ?getVertexIndex1@EdgeInfo@SourceCCDSkeleton@@QBEIXZ 1002a270 f i CCDSkeleton.obj
 0001:00029280       ?setVertexIndex0@EdgeInfo@SourceCCDSkeleton@@QAEXIW4Flags@12@@Z 1002a280 f i CCDSkeleton.obj
 0001:000292a0       ?setVertexIndex1@EdgeInfo@SourceCCDSkeleton@@QAEXI@Z 1002a2a0 f i CCDSkeleton.obj
 0001:000292b0       ?NxFlexiCopy@@YAXPBXPAXIII@Z 1002a2b0 f i CCDSkeleton.obj
 0001:00029310       ?GetEdge01@PxEdgeTriangleAC@@SAIABUPxEdgeTriangleData@@@Z 1002a310 f i CCDSkeleton.obj
 0001:00029320       ?GetEdge12@PxEdgeTriangleAC@@SAIABUPxEdgeTriangleData@@@Z 1002a320 f i CCDSkeleton.obj
 0001:00029330       ?GetEdge20@PxEdgeTriangleAC@@SAIABUPxEdgeTriangleData@@@Z 1002a330 f i CCDSkeleton.obj
 0001:00029340       ?GetEdge@PxEdgeTriangleAC@@SAIABUPxEdgeTriangleData@@I@Z 1002a340 f i CCDSkeleton.obj
 0001:00029360       ??0EDGELISTCREATE@NxPhysics@@QAE@XZ 1002a360 f i CCDSkeleton.obj
 0001:00029390       ?GetNbEdges@EdgeList@NxPhysics@@QBEIXZ 1002a390 f i CCDSkeleton.obj
 0001:000293a0       ?GetEdges@EdgeList@NxPhysics@@QBEPBUPxEdgeData@@XZ 1002a3a0 f i CCDSkeleton.obj
 0001:000293b0       ?GetEdgeTriangle@EdgeList@NxPhysics@@QBEABUPxEdgeTriangleData@@I@Z 1002a3b0 f i CCDSkeleton.obj
 0001:000293d0       ?GetEdgeToTriangles@EdgeList@NxPhysics@@QBEPBUPxEdgeDescData@@XZ 1002a3d0 f i CCDSkeleton.obj
 0001:000293e0       ?GetFacesByEdges@EdgeList@NxPhysics@@QBEPBIXZ 1002a3e0 f i CCDSkeleton.obj
 0001:000293f0       ?clear@SourceCCDSkeleton@@QAEXXZ 1002a3f0 f   CCDSkeleton.obj
 0001:00029470       ?save@SourceCCDSkeleton@@UAEIPAXI@Z 1002a470 f   CCDSkeleton.obj
 0001:000294e0       ?load@SourceCCDSkeleton@@UAEIPBXI@Z 1002a4e0 f   CCDSkeleton.obj
 0001:00029580       ?getSize@SourceCCDSkeleton@@UAEIXZ 1002a580 f   CCDSkeleton.obj
 0001:00029590       ?visualize@CCDSkeleton@@QAEXAAVDebugRenderable@NxFoundation@@@Z 1002a590 f   CCDSkeleton.obj
 0001:00029650       ?saveToDesc@SourceCCDSkeleton@@UAEIAAVNxSimpleTriangleMesh@@@Z 1002a650 f   CCDSkeleton.obj
 0001:000297f0       ??DNxMat34@@QBE?AVNxVec3@@ABV1@@Z 1002a7f0 f i CCDSkeleton.obj
 0001:00029880       ?set@NxPlane@@QAEAAV1@ABVNxVec3@@00@Z 1002a880 f i CCDSkeleton.obj
 0001:000299a0       ?addTriangle@CCDSkeleton@@QAEXIII@Z 1002a9a0 f i CCDSkeleton.obj
 0001:00029a70       ?addEdge@CCDSkeleton@@QAEIIIABVNxVec3@@H@Z 1002aa70 f i CCDSkeleton.obj
 0001:00029b80       ?addTriangle@CCDSkeleton2@@QAEXIIIABVNxPlane@@@Z 1002ab80 f i CCDSkeleton.obj
 0001:00029bf0       ?addEdge@CCDSkeleton2@@QAEIIIABVNxVec3@@H@Z 1002abf0 f i CCDSkeleton.obj
 0001:00029d50       ??1SourceCCDSkeleton@@QAE@XZ 1002ad50 f i CCDSkeleton.obj
 0001:00029d60       ??_GSourceCCDSkeleton@@QAEPAXI@Z 1002ad60 f i CCDSkeleton.obj
 0001:00029d90       ?loadFromDesc@SourceCCDSkeleton@@QAEHABVNxSimpleTriangleMesh@@@Z 1002ad90 f   CCDSkeleton.obj
 0001:0002a9c0       ?appendToCCDSkeleton2@SourceCCDSkeleton@@QAEXAAVCCDSkeleton2@@ABVNxMat34@@ABVNxVec3@@2@Z 1002b9c0 f   CCDSkeleton.obj
 0001:0002b110       ?appendToCCDSkeleton@SourceCCDSkeleton@@QAEXAAVCCDSkeleton@@ABVNxMat34@@@Z 1002c110 f   CCDSkeleton.obj
 0001:0002b440       ?visualize@SourceCCDSkeleton@@QAEXAAVDebugRenderable@NxFoundation@@ABVNxMat34@@@Z 1002c440 f   CCDSkeleton.obj
 0001:0002bc30       ?release@SourceCCDSkeleton@@UAEXXZ 1002cc30 f   CCDSkeleton.obj
 0001:0002bc60       _atanf                     1002cc60 f i CCDTest.obj
 0001:0002bc70       _tanf                      1002cc70 f i CCDTest.obj
 0001:0002bc80       ?sinCos@NxMath@@SAXMAAM0@Z 1002cc80 f i CCDTest.obj
 0001:0002bcc0       ?tan@NxMath@@SAMM@Z        1002ccc0 f i CCDTest.obj
 0001:0002bcd0       ?atan@NxMath@@SAMM@Z       1002ccd0 f i CCDTest.obj
 0001:0002bce0       ?hash32@NxMath@@SAHH@Z     1002cce0 f i CCDTest.obj
 0001:0002bd20       ?setNegative@NxVec3@@QAEXXZ 1002cd20 f i CCDTest.obj
 0001:0002bd40       ?fromAngleAxisFast@NxQuat@@QAEXMABVNxVec3@@@Z 1002cd40 f i CCDTest.obj
 0001:0002bda0       ?invert@NxQuat@@QAEXXZ     1002cda0 f i CCDTest.obj
 0001:0002bdc0       ?invTransform@NxQuat@@QBE?BVNxVec3@@ABV2@0@Z 1002cdc0 f i CCDTest.obj
 0001:0002bf30       ?getColumnMajor@NxMat33@@QBEXPAM@Z 1002cf30 f i CCDTest.obj
 0001:0002bf80       ?getColumnMajorStride4@NxMat33@@QBEXPAM@Z 1002cf80 f i CCDTest.obj
 0001:0002bfd0       ?setTransposed@NxMat33@@QAEXABV1@@Z 1002cfd0 f i CCDTest.obj
 0001:0002c050       ?multiply@NxMat33@@QAEXABV1@0@Z 1002d050 f i CCDTest.obj
 0001:0002c1c0       ?getInverseRT@NxMat34@@QBE_NAAV1@@Z 1002d1c0 f i CCDTest.obj
 0001:0002c2e0       ?distance@NxPlane@@QBEMABVNxVec3@@@Z 1002d2e0 f i CCDTest.obj
 0001:0002c310       ??0PlueckerLine@@QAE@XZ    1002d310 f i CCDTest.obj
 0001:0002c320       ??1PlueckerLine@@QAE@XZ    1002d320 f i CCDTest.obj
 0001:0002c330       ??APlueckerLine@@QBEMH@Z   1002d330 f i CCDTest.obj
 0001:0002c340       ?getRelation@PlueckerLine@@QBEMABV1@@Z 1002d340 f i CCDTest.obj
 0001:0002c380       ?hits@PlueckerLine@@QBEHABV1@00PBI@Z 1002d380 f i CCDTest.obj
 0001:0002c480       ?solveQuadrEq@@YAIMMMAAM0@Z 1002d480 f i CCDTest.obj
 0001:0002c5b0       ?getDirection@PlueckerLine@@QBEXAAVNxVec3@@@Z 1002d5b0 f i CCDTest.obj
 0001:0002c5d0       ?include@NxBounds3@@QAEXABVNxVec3@@@Z 1002d5d0 f i CCDTest.obj
 0001:0002c6b0       ?contain@NxBounds3@@QBE_NABVNxVec3@@@Z 1002d6b0 f i CCDTest.obj
 0001:0002c720       ?rotate@NxBox@@QBEXABVNxMat34@@AAV1@@Z 1002d720 f i CCDTest.obj
 0001:0002c930       ?getNumEdgesToTest@CCDSkeleton@@QBEIXZ 1002d930 f i CCDTest.obj
 0001:0002c940       ?getNumVerticesToTest@CCDSkeleton@@QBEIXZ 1002d940 f i CCDTest.obj
 0001:0002c950       ?getNumEdges@CCDSkeleton@@QBEIXZ 1002d950 f i CCDTest.obj
 0001:0002c970       ?getNumVertices@CCDSkeleton@@QBEIXZ 1002d970 f i CCDTest.obj
 0001:0002c980       ?getNumTrigs@CCDSkeleton@@QBEIXZ 1002d980 f i CCDTest.obj
 0001:0002c9b0       ?getNumEdgesRemaining@CCDSkeleton@@QBEIXZ 1002d9b0 f i CCDTest.obj
 0001:0002c9d0       ?resetTriangleIterator@CCDSkeleton@@QAEXXZ 1002d9d0 f i CCDTest.obj
 0001:0002c9e0       ?resetEdgeIterator@CCDSkeleton@@QAEXXZ 1002d9e0 f i CCDTest.obj
 0001:0002c9f0       ?resetVertexIterator@CCDSkeleton@@QAEXXZ 1002d9f0 f i CCDTest.obj
 0001:0002ca00       ?getNextVertex@CCDSkeleton@@QAEPAUVertexInfo@1@XZ 1002da00 f i CCDTest.obj
 0001:0002ca20       ?getNextEdge@CCDSkeleton@@QAEPAUEdgeInfo@1@XZ 1002da20 f i CCDTest.obj
 0001:0002ca40       ?getNextTriangle@CCDSkeleton@@QAEPAUTriangleInfo@1@XZ 1002da40 f i CCDTest.obj
 0001:0002ca60       ?skipEdgeTest@EdgeInfo@CCDSkeleton2@@QBEHXZ 1002da60 f i CCDTest.obj
 0001:0002ca70       ?getVertexIndex@EdgeInfo@CCDSkeleton2@@QBEII@Z 1002da70 f i CCDTest.obj
 0001:0002ca90       ?resetTriangleIterator@CCDSkeleton2@@QAEXXZ 1002da90 f i CCDTest.obj
 0001:0002caa0       ?resetEdgeIterator@CCDSkeleton2@@QAEXXZ 1002daa0 f i CCDTest.obj
 0001:0002cab0       ?resetVertexIterator@CCDSkeleton2@@QAEXXZ 1002dab0 f i CCDTest.obj
 0001:0002cac0       ?getNextVertex@CCDSkeleton2@@QAEPAUVertexInfo@1@XZ 1002dac0 f i CCDTest.obj
 0001:0002cae0       ?getNextEdge@CCDSkeleton2@@QAEPAUEdgeInfo@1@XZ 1002dae0 f i CCDTest.obj
 0001:0002cb00       ?getNextTriangle@CCDSkeleton2@@QAEPAUTriangleInfo@1@XZ 1002db00 f i CCDTest.obj
 0001:0002cb20       ?getEdge@CCDSkeleton2@@QAEPAUEdgeInfo@1@I@Z 1002db20 f i CCDTest.obj
 0001:0002cb40       ??0DereferencedTriangle@CCDTest@@QAE@ABUTriangleInfo@CCDSkeleton@@ABVPlueckerLine@@11@Z 1002db40 f i CCDTest.obj
 0001:0002cb70       ??0DereferencedEdge@CCDTest@@QAE@ABUEdgeInfo@CCDSkeleton@@ABVNxVec3@@1@Z 1002db70 f i CCDTest.obj
 0001:0002cb90       ?GetNbEntries@Container@IceCore@@QBEIXZ 1002db90 f i CCDTest.obj
 0001:0002cba0       ?GetEntries@Container@IceCore@@QBEPAIXZ 1002dba0 f i CCDTest.obj
 0001:0002cbb0       ??0Matrix3x3@IceMaths@@QAE@XZ 1002dbb0 f i CCDTest.obj
 0001:0002cbc0       ??0Matrix4x4@IceMaths@@QAE@XZ 1002dbc0 f i CCDTest.obj
 0001:0002cbd0       ??1Matrix4x4@IceMaths@@QAE@XZ 1002dbd0 f i CCDTest.obj
 0001:0002cbe0       ?SetTrans@Matrix4x4@IceMaths@@QAEXMMM@Z 1002dbe0 f i CCDTest.obj
 0001:0002cc00       ??0OBB@IceMaths@@QAE@XZ    1002dc00 f i CCDTest.obj
 0001:0002cc10       ??1OBB@IceMaths@@QAE@XZ    1002dc10 f i CCDTest.obj
 0001:0002cc20       ?GetContactStatus@Collider@Opcode@@QBEHXZ 1002dc20 f i CCDTest.obj
 0001:0002cc30       ?SetFirstContact@Collider@Opcode@@QAEX_N@Z 1002dc30 f i CCDTest.obj
 0001:0002cc60       ?SetTemporalCoherence@Collider@Opcode@@QAEX_N@Z 1002dc60 f i CCDTest.obj
 0001:0002cc90       ?SetPrimitiveTests@Collider@Opcode@@QAEX_N@Z 1002dc90 f i CCDTest.obj
 0001:0002ccc0       ?GetNbTouchedPrimitives@VolumeCollider@Opcode@@QBEIXZ 1002dcc0 f i CCDTest.obj
 0001:0002cce0       ?GetTouchedPrimitives@VolumeCollider@Opcode@@QBEPBIXZ 1002dce0 f i CCDTest.obj
 0001:0002cd00       ??1NxTriangle@@QAE@XZ      1002dd00 f i CCDTest.obj
 0001:0002cd10       ?center@NxTriangle@@QBEXAAVNxVec3@@@Z 1002dd10 f i CCDTest.obj
 0001:0002cd90       ?getVertices@InternalTriangleMesh@@QBEPBVNxVec3@@XZ 1002dd90 f i CCDTest.obj
 0001:0002cda0       ?getTriangles@InternalTriangleMesh@@QBEPBUNxTriangle32@@XZ 1002dda0 f i CCDTest.obj
 0001:0002cdb0       ?getEdgeList@InternalTriangleMesh@@QBEPBVEdgeListBuilder@NxPhysics@@XZ 1002ddb0 f i CCDTest.obj
 0001:0002cdd0       ?getOpcodeModel@InternalTriangleMesh@@QBEPBVHybridModel@Opcode@@XZ 1002ddd0 f i CCDTest.obj
 0001:0002cde0       ?getThreadContext@Scene@@QBEAAVNPhaseContext@@XZ 1002dde0 f i CCDTest.obj
 0001:0002cdf0       ?putThreadContext@Scene@@QBEXAAVNPhaseContext@@@Z 1002ddf0 f i CCDTest.obj
 0001:0002ce00       ?invTransform@NxQP@@QBE?AVNxVec3@@ABV2@@Z 1002de00 f i CCDTest.obj
 0001:0002cf70       ?getImpactTime@Body@@QBEMXZ 1002df70 f i CCDTest.obj
 0001:0002cf80       ?readIntFlag@Body@@QBEHW4InternalFlag@1@@Z 1002df80 f i CCDTest.obj
 0001:0002cf90       ?getRelPose@Shape@@QBEABVNxQP@@XZ 1002df90 f i CCDTest.obj
 0001:0002cfa0       ?getInternalTris@TriangleMesh@@QBEPBUNxTriangle32@@XZ 1002dfa0 f i CCDTest.obj
 0001:0002cfb0       ?getInternalVerts@TriangleMesh@@QBEPBVNxVec3@@XZ 1002dfb0 f i CCDTest.obj
 0001:0002cfc0       ?getEdgeList@TriangleMesh@@QBEPBVEdgeListBuilder@NxPhysics@@XZ 1002dfc0 f i CCDTest.obj
 0001:0002cfe0       ?getOpcodeModel@TriangleMesh@@QBEPBVHybridModel@Opcode@@XZ 1002dfe0 f i CCDTest.obj
 0001:0002cff0       ?getTriangleMeshFast@TriangleMeshShape@@QBEABVTriangleMesh@@XZ 1002dff0 f i CCDTest.obj
 0001:0002d000       ?NXToICE@@YAXAAVMatrix3x3@IceMaths@@ABVNxMat33@@@Z 1002e000 f i CCDTest.obj
 0001:0002d050       ?NXToICE@@YAXAAVMatrix4x4@IceMaths@@ABVNxMat34@@@Z 1002e050 f i CCDTest.obj
 0001:0002d0d0       ?getConvexMeshFast@ConvexShape@@QBEABVConvexMeshRuntime@@XZ 1002e0d0 f i CCDTest.obj
 0001:0002d0e0       ?getEdgeList@ConvexMesh@@QBEPBVEdgeListBuilder@NxPhysics@@XZ 1002e0e0 f i CCDTest.obj
 0001:0002d100       ?getOpcodeModel@ConvexMesh@@QBEPBVHybridModel@Opcode@@XZ 1002e100 f i CCDTest.obj
 0001:0002d110       ??0NPhaseContextGrab@@QAE@PBVScene@@@Z 1002e110 f i CCDTest.obj
 0001:0002d140       ??1NPhaseContextGrab@@QAE@XZ 1002e140 f i CCDTest.obj
 0001:0002d160       ??CNPhaseContextGrab@@QAEPAVNPhaseContext@@XZ 1002e160 f i CCDTest.obj
 0001:0002d170       ??0EdgeCache@@QAE@XZ       1002e170 f i CCDTest.obj
 0001:0002d190       ?hash@EdgeCache@@QAEIII@Z  1002e190 f i CCDTest.obj
 0001:0002d1f0       ?isProcessedAndInCache@EdgeCache@@QAEII_KI@Z 1002e1f0 f i CCDTest.obj
 0001:0002d240       ?cache@EdgeCache@@QAEXI_KII@Z 1002e240 f i CCDTest.obj
 0001:0002d280       ??0VertexCache@@QAE@XZ     1002e280 f i CCDTest.obj
 0001:0002d2a0       ?hash@VertexCache@@QAEII@Z 1002e2a0 f i CCDTest.obj
 0001:0002d2f0       ?isProcessedAndInCache@VertexCache@@QAEIII@Z 1002e2f0 f i CCDTest.obj
 0001:0002d320       ?cache@VertexCache@@QAEXIII@Z 1002e320 f i CCDTest.obj
 0001:0002d340       ??0EdgeCache2@@QAE@XZ      1002e340 f i CCDTest.obj
 0001:0002d360       ?hash@EdgeCache2@@QAEIII@Z 1002e360 f i CCDTest.obj
 0001:0002d3c0       ?hash@VertexCache2@@QAEII@Z 1002e3c0 f i CCDTest.obj
 0001:0002d410       ?getFullKey@CacheLine@VertexCache2@@QAEIXZ 1002e410 f i CCDTest.obj
 0001:0002d420       ?setFullKey@CacheLine@VertexCache2@@QAEXI@Z 1002e420 f i CCDTest.obj
 0001:0002d440       ??0CacheLine@VertexCache2@@QAE@XZ 1002e440 f i CCDTest.obj
 0001:0002d450       ??1CacheLine@VertexCache2@@QAE@XZ 1002e450 f i CCDTest.obj
 0001:0002d980       ?boundsofRotSweptOBB@CCDTest@@CAXABVNxBox@@MABVNxVec3@@1ABVNxMat33@@AAVNxBounds3@@@Z 1002e980 f   CCDTest.obj
 0001:0002da50       ?applyCCDImpulse@CCDTest@@CAXPAVBody@@ABVNxVec3@@1@Z 1002ea50 f   CCDTest.obj
 0001:0002db70       ?stuckageTest@CCDTest@@CAXPAVBody@@MABVNxVec3@@1@Z 1002eb70 f   CCDTest.obj
 0001:0002dbc0       ?toiSoFar@CCDTest@@CAMPAVBody@@HH@Z 1002ebc0 f   CCDTest.obj
 0001:0002dc70       ??1VertexCache2@@QAE@XZ    1002ec70 f i CCDTest.obj
 0001:0002dc90       ?bitCounter@@YAII@Z        1002ec90 f i CCDTest.obj
 0001:0002dcb0       ?begin@?$NxArray@PAVShape@@VUserAllocatorAccess@NxFoundation@@@@QBEPBQAVShape@@XZ 1002ecb0 f i CCDTest.obj
 0001:0002dcc0       ??$NX_Swap@M@@YAXAAM0@Z    1002ecc0 f i CCDTest.obj
 0001:0002dce0       ??$NX_Swap@I@@YAXAAI0@Z    1002ece0 f i CCDTest.obj
 0001:0002dd00       ??$NX_Swap@PBVShape@@@@YAXAAPBVShape@@0@Z 1002ed00 f i CCDTest.obj
 0001:0002dd20       ??$NX_Swap@PAVBody@@@@YAXAAPAVBody@@0@Z 1002ed20 f i CCDTest.obj
 0001:0002dd40       ??$NX_Swap@VNxVec3@@@@YAXAAVNxVec3@@0@Z 1002ed40 f i CCDTest.obj
 0001:0002dd90       ??0PlueckerLine@@QAE@ABVNxVec3@@0@Z 1002ed90 f i CCDTest.obj
 0001:0002de00       ?transform@NxBounds3@@QAEXABVNxMat33@@ABVNxVec3@@@Z 1002ee00 f i CCDTest.obj
 0001:0002dfe0       ?allocMesh@CCDSkeleton@@QAEXIII@Z 1002efe0 f i CCDTest.obj
 0001:0002e0a0       ?allocMesh@CCDSkeleton2@@QAEXIII@Z 1002f0a0 f i CCDTest.obj
 0001:0002e160       ??0NxTriangle@@QAE@XZ      1002f160 f i CCDTest.obj
 0001:0002e170       ?normal@NxTriangle@@QBEXAAVNxVec3@@@Z 1002f170 f i CCDTest.obj
 0001:0002e270       ?getShapes@CompoundShape@@QBEPAPBVShape@@XZ 1002f270 f i CCDTest.obj
 0001:0002e280       ??0VertexCache2@@QAE@XZ    1002f280 f i CCDTest.obj
 0001:0002e2c0       ?transformDynamicSkeleton@CCDTest@@AAEXABVNxQP@@0PBVShape@@@Z 1002f2c0 f   CCDTest.obj
 0001:0002ebc0       ?transformDynamicLinear@CCDTest@@AAEXABVNxQP@@0PBVShape@@ABVNxVec3@@1@Z 1002fbc0 f   CCDTest.obj
 0001:0002f6e0       ?getTouchedTrigs@CCDTest@@CAIAAVScene@@PAVBody@@PBVShape@@ABVNxBox@@PAPBIAAVNPhaseContextGrab@@@Z 100306e0 f   CCDTest.obj
 0001:0002f920       ?buildStaticSkeletonAngular@CCDTest@@AAEXAAVScene@@PBVShape@@ABVNxBounds3@@IPBI@Z 10030920 f   CCDTest.obj
 0001:00030ac0       ?toiVertexTrigAngularFAST@CCDTest@@ABEMABUDereferencedTriangle@1@ABVNxVec3@@AAV3@ABVNxMat34@@3@Z 10031ac0 f   CCDTest.obj
 0001:00031410       ?toiEdgeAngularFAST@CCDTest@@AAEMABUDereferencedEdge@1@ABVNxVec3@@1AAV3@2ABVNxMat34@@3@Z 10032410 f   CCDTest.obj
 0001:000326b0       ?computeLinearTOIFASTDS@CCDTest@@AAEMAAVScene@@PBVShape@@ABVNxBox@@IPBIABVNxVec3@@4AAV5@5@Z 100336b0 f   CCDTest.obj
 0001:00037940       ?computeLinearTOIDD@CCDTest@@AAEMAAVScene@@ABVNxVec3@@1AAV3@2@Z 10038940 f   CCDTest.obj
 0001:00038700       ?getShapeBounds@CCDTest@@CAXABVNxQP@@0PBVShape@@AAVNxBounds3@@@Z 10039700 f   CCDTest.obj
 0001:00039340       ?getShapeOBB@CCDTest@@CAXABVNxQP@@0PBVShape@@AAVNxBox@@@Z 1003a340 f   CCDTest.obj
 0001:0003a250       ?ccdStaticDynamicLinearFAST@CCDTest@@QAEMPBVShape@@0M_N@Z 1003b250 f   CCDTest.obj
 0001:0003c2d0       ?computeAngularTOIDS@CCDTest@@AAEXAAVScene@@AAMAAVNxVec3@@2@Z 1003d2d0 f   CCDTest.obj
 0001:0003dcc0       ?ccdDynamicDynamicLinear@CCDTest@@QAEMPBVShape@@0M_N@Z 1003ecc0 f   CCDTest.obj
 0001:0003ee30       ?computeAngularTOIDD@CCDTest@@AAEXAAVScene@@AAMAAVNxVec3@@2@Z 1003fe30 f   CCDTest.obj
 0001:000414d0       ?ccdStaticDynamicAngular@CCDTest@@QAEMPBVShape@@0M_N@Z 100424d0 f   CCDTest.obj
 0001:00041c60       ?ccdStaticDynamicMesh@CCDTest@@QAEXPBVShape@@0@Z 10042c60 f   CCDTest.obj
 0001:00041de0       ?ccdDynamicDynamicAngular@CCDTest@@QAEMPBVShape@@0M_N@Z 10042de0 f   CCDTest.obj
 0001:00043210       ?ccdDynamicDynamicMesh@CCDTest@@QAEXPBVShape@@0@Z 10044210 f   CCDTest.obj
 0001:00043490       ??2Allocateable@IceCore@@SAPAXIW4MemoryType@1@@Z 10044490 f i CollisionHull.obj
 0001:000434b0       ??3Allocateable@IceCore@@SAXPAX@Z 100444b0 f i CollisionHull.obj
 0001:000434d0       ??3Allocateable@IceCore@@SAXPAXW4MemoryType@1@@Z 100444d0 f i CollisionHull.obj
 0001:000434f0       ?Neg@Point@IceMaths@@QAEAAV12@XZ 100444f0 f i CollisionHull.obj
 0001:00043510       ?GetCol@Matrix4x4@IceMaths@@QBEXIAAVPoint@2@@Z 10044510 f i CollisionHull.obj
 0001:00043540       ?TransformPoint@@YAMIABVPoint@IceMaths@@ABVMatrix4x4@2@@Z 10044540 f i CollisionHull.obj
 0001:00043580       ?GetPXValenciesData@Valencies@@QAEPAUPxValenciesData@@XZ 10044580 f i CollisionHull.obj
 0001:00043590       ?GetVerts@ConvexHull@@QBEPBVPoint@IceMaths@@XZ 10044590 f i CollisionHull.obj
 0001:000435a0       ?ComputeSupportingVertex@CollisionHull@@QBEIABVPoint@IceMaths@@I@Z 100445a0 f i CollisionHull.obj
 0001:000435e0       ??0CollisionHull@@QAE@XZ   100445e0 f   CollisionHull.obj
 0001:00043630       ??_GValencies@@QAEPAXI@Z   10044630 f i CollisionHull.obj
 0001:00043660       ?Load@CollisionHull@@UAE_NABVStream@IceCore@@@Z 10044660 f   CollisionHull.obj
 0001:000437b0       ?ComputeAABB@CollisionHull@@QBEXAAVAABB@IceMaths@@PBVMatrix4x4@3@@Z 100447b0 f   CollisionHull.obj
 0001:000438e0       ?GetUsedRam@CollisionHull@@UBEIXZ 100448e0 f   CollisionHull.obj
 0001:00043910       ??1CollisionHull@@UAE@XZ   10044910 f   CollisionHull.obj
 0001:000439a0       ??_ECollisionHull@@UAEPAXI@Z 100449a0 f i CollisionHull.obj
 0001:000439a0       ??_GCollisionHull@@UAEPAXI@Z 100449a0 f i CollisionHull.obj
 0001:000439d0       ?NxNextPowerOfTwo@@YAII@Z  100449d0 f i CollisionMap.obj
 0001:00043a10       ??0ShapePair@@QAE@PBVShape@@0@Z 10044a10 f i CollisionMap.obj
 0001:00043a30       ??0ShapePairWTriggerFlag@@QAE@PBVShape@@0W4NxShapeFlag@@@Z 10044a30 f i CollisionMap.obj
 0001:00043a50       ??4ShapePairWTriggerFlag@@QAEAAU0@ABU0@@Z 10044a50 f i CollisionMap.obj
 0001:00043a70       ?getTriggerPairs@NPhaseContext@@QAEAAV?$NxArraySDK@UShapePair@@@NxFoundation@@XZ 10044a70 f i CollisionMap.obj
 0001:00043a80       ?storeDwords@NxFoundation@@YAXPAIII@Z 10044a80 f i CollisionMap.obj
 0001:00043aa0       ?isSleeping@Body@@QBEHXZ   10044aa0 f i CollisionMap.obj
 0001:00043ab0       ?isSleeping@Shape@@QBEHXZ  10044ab0 f i CollisionMap.obj
 0001:00043ae0       ?getInstance@PhysicsSDK@@SAAAV1@XZ 10044ae0 f i CollisionMap.obj
 0001:00043af0       ?getHeightFieldAxis@TriangleMesh@@QBE?AW4NxHeightFieldAxis@@XZ 10044af0 f i CollisionMap.obj
 0001:00043b00       ?getTriangleMeshFast@TriangleMeshShape@@QAEAAVTriangleMesh@@XZ 10044b00 f i CollisionMap.obj
 0001:00043b10       ?addManager@ShapeInstancePair@@QAEXABVShape@@0@Z 10044b10 f i CollisionMap.obj
 0001:00043bb0       ?addTriggerCache@ShapeInstancePair@@QAEXABVShape@@0@Z 10044bb0 f i CollisionMap.obj
 0001:00043c30       ?getTriggerCache@ShapeInstancePair@@QAEPAUTriggerCache@@PBVShape@@0@Z 10044c30 f i CollisionMap.obj
 0001:00043ca0       ??0CollisionMap@@AAE@XZ    10044ca0 f   CollisionMap.obj
 0001:00043f80       ??1CollisionMap@@EAE@XZ    10044f80 f   CollisionMap.obj
 0001:00043f90       ?Hash@@YAIII@Z             10044f90 f i CollisionMap.obj
 0001:00043fe0       ?DifferentPair@@YA_NABUShapePair@@0@Z 10044fe0 f i CollisionMap.obj
 0001:00044010       ??0?$NxArray@UShapePair@@VUserAllocatorAccess@NxFoundation@@@@QAE@XZ 10045010 f i CollisionMap.obj
 0001:00044020       ?size@?$NxArray@UShapePair@@VUserAllocatorAccess@NxFoundation@@@@QBEIXZ 10045020 f i CollisionMap.obj
 0001:00044030       ??A?$NxArray@UShapePair@@VUserAllocatorAccess@NxFoundation@@@@QAEAAUShapePair@@I@Z 10045030 f i CollisionMap.obj
 0001:00044040       ?begin@?$NxArray@UShapePair@@VUserAllocatorAccess@NxFoundation@@@@QAEPAUShapePair@@XZ 10045040 f i CollisionMap.obj
 0001:00044050       ?size@?$NxArray@PAVShape@@VUserAllocatorAccess@NxFoundation@@@@QBEIXZ 10045050 f i CollisionMap.obj
 0001:00044060       ??A?$NxArray@PAVShape@@VUserAllocatorAccess@NxFoundation@@@@QAEAAPAVShape@@I@Z 10045060 f i CollisionMap.obj
 0001:00044070       ?popBack@?$NxArray@UShapePair@@VUserAllocatorAccess@NxFoundation@@@@QAEXXZ 10045070 f i CollisionMap.obj
 0001:00044080       ?end@?$NxArray@UShapePair@@VUserAllocatorAccess@NxFoundation@@@@QAEPAUShapePair@@XZ 10045080 f i CollisionMap.obj
 0001:00044090       ?back@?$NxArray@UShapePair@@VUserAllocatorAccess@NxFoundation@@@@QAEAAUShapePair@@XZ 10045090 f i CollisionMap.obj
 0001:000440a0       ?deallocate@?$NxArray@UShapePair@@VUserAllocatorAccess@NxFoundation@@@@AAEXPAUShapePair@@@Z 100450a0 f i CollisionMap.obj
 0001:000440c0       ?destroy@?$NxArray@UShapePair@@VUserAllocatorAccess@NxFoundation@@@@AAEXPAUShapePair@@0@Z 100450c0 f i CollisionMap.obj
 0001:000440d0       ?size@?$NxArray@UShapePairWTriggerFlag@@VUserAllocatorAccess@NxFoundation@@@@QBEIXZ 100450d0 f i CollisionMap.obj
 0001:000440f0       ?capacity@?$NxArray@UShapePair@@VUserAllocatorAccess@NxFoundation@@@@QBEIXZ 100450f0 f i CollisionMap.obj
 0001:00044110       ?copy@?$NxArray@UShapePair@@VUserAllocatorAccess@NxFoundation@@@@AAEPAUShapePair@@PBU2@0PAU2@@Z 10045110 f i CollisionMap.obj
 0001:00044150       ?allocate@?$NxArray@UShapePair@@VUserAllocatorAccess@NxFoundation@@@@AAEPAUShapePair@@I@Z 10045150 f i CollisionMap.obj
 0001:00044180       ?capacity@?$NxArray@UShapePairWTriggerFlag@@VUserAllocatorAccess@NxFoundation@@@@QBEIXZ 10045180 f i CollisionMap.obj
 0001:000441b0       ?copy@?$NxArray@UShapePairWTriggerFlag@@VUserAllocatorAccess@NxFoundation@@@@AAEPAUShapePairWTriggerFlag@@PBU2@0PAU2@@Z 100451b0 f i CollisionMap.obj
 0001:000441f0       ?allocate@?$NxArray@UShapePairWTriggerFlag@@VUserAllocatorAccess@NxFoundation@@@@AAEPAUShapePairWTriggerFlag@@I@Z 100451f0 f i CollisionMap.obj
 0001:00044220       ?deallocate@?$NxArray@UShapePairWTriggerFlag@@VUserAllocatorAccess@NxFoundation@@@@AAEXPAUShapePairWTriggerFlag@@@Z 10045220 f i CollisionMap.obj
 0001:00044240       ?destroy@?$NxArray@UShapePairWTriggerFlag@@VUserAllocatorAccess@NxFoundation@@@@AAEXPAUShapePairWTriggerFlag@@0@Z 10045240 f i CollisionMap.obj
 0001:00044250       ??$NX_Swap@PAV?$NxArraySDK@UShapePair@@@NxFoundation@@@@YAXAAPAV?$NxArraySDK@UShapePair@@@NxFoundation@@0@Z 10045250 f i CollisionMap.obj
 0001:00044270       ?getShape@CompoundShape@@QAEPAVShape@@I@Z 10045270 f i CollisionMap.obj
 0001:000442b0       ??_GCollisionMap@@EAEPAXI@Z 100452b0 f i CollisionMap.obj
 0001:000442b0       ??_ECollisionMap@@EAEPAXI@Z 100452b0 f i CollisionMap.obj
 0001:000442e0       ?doCCDMotion@CollisionMap@@QBEXPBVShape@@0AAVScene@@@Z 100452e0 f   CollisionMap.obj
 0001:00044560       ?addTriggerCaches@CollisionMap@@QBEXPBVShape@@0AAVShapeInstancePair@@@Z 10045560 f   CollisionMap.obj
 0001:000446b0       ?addManagers@CollisionMap@@QBEXPBVShape@@0AAVShapeInstancePair@@@Z 100456b0 f   CollisionMap.obj
 0001:00044980       ??1?$NxArray@UShapePair@@VUserAllocatorAccess@NxFoundation@@@@QAE@XZ 10045980 f i CollisionMap.obj
 0001:000449c0       ?clear@?$NxArray@UShapePair@@VUserAllocatorAccess@NxFoundation@@@@QAEXXZ 100459c0 f i CollisionMap.obj
 0001:000449d0       ?replaceWithLast@?$NxArray@UShapePair@@VUserAllocatorAccess@NxFoundation@@@@QAEXI@Z 100459d0 f i CollisionMap.obj
 0001:00044a10       ?reserve@?$NxArray@UShapePair@@VUserAllocatorAccess@NxFoundation@@@@QAEXI@Z 10045a10 f i CollisionMap.obj
 0001:00044ac0       ?reserve@?$NxArray@UShapePairWTriggerFlag@@VUserAllocatorAccess@NxFoundation@@@@QAEXI@Z 10045ac0 f i CollisionMap.obj
 0001:00044ba0       ??0?$NxArraySDK@UShapePair@@@NxFoundation@@QAE@XZ 10045ba0 f i CollisionMap.obj
 0001:00044bb0       ??1?$NxArraySDK@UShapePair@@@NxFoundation@@QAE@XZ 10045bb0 f i CollisionMap.obj
 0001:00044bf0       ??1TriggerPairs@@QAE@XZ    10045bf0 f   CollisionMap.obj
 0001:00044c90       ?purge@TriggerPairs@@QAEXPAVShape@@@Z 10045c90 f   CollisionMap.obj
 0001:00044d20       ?pushBack@?$NxArray@UShapePair@@VUserAllocatorAccess@NxFoundation@@@@QAEXABUShapePair@@@Z 10045d20 f i CollisionMap.obj
 0001:00044e00       ?pushBack@?$NxArray@UShapePairWTriggerFlag@@VUserAllocatorAccess@NxFoundation@@@@QAEXABUShapePairWTriggerFlag@@@Z 10045e00 f i CollisionMap.obj
 0001:00044f30       ??0TriggerPairs@@QAE@XZ    10045f30 f   CollisionMap.obj
 0001:00044f60       ?findContacts@CollisionMap@@QBEXPBVShape@@0AAVShapeInstancePair@@AAVNPhaseContext@@@Z 10045f60 f   CollisionMap.obj
 0001:00045540       ?updateTriggerCallbackBuffer@CollisionMap@@QAEXAAVTriggerPairs@@AAV?$NxArraySDK@UShapePairWTriggerFlag@@@NxFoundation@@AAVNPhaseContext@@@Z 10046540 f   CollisionMap.obj
 0001:00045e20       ?max@NxMath@@SAHHH@Z       10046e20 f i CompoundShape.obj
 0001:00045e40       ?removeSip@Scene@@QAEXPAVShapeInstancePair@@@Z 10046e40 f i CompoundShape.obj
 0001:00045e50       ?addSip@Scene@@QAEXAAVShape@@0@Z 10046e50 f i CompoundShape.obj
 0001:00045e60       ??4NxSphere@@QAEAAV0@ABV0@@Z 10046e60 f i CompoundShape.obj
 0001:00045e90       ?computeLocalBounds@CompoundShape@@UBEXAAVNxBounds3@@@Z 10046e90 f   CompoundShape.obj
 0001:00045ea0       ??0NxRaycastHit@@QAE@XZ    10046ea0 f i CompoundShape.obj
 0001:00045eb0       ??4NxRaycastHit@@QAEAAU0@ABU0@@Z 10046eb0 f i CompoundShape.obj
 0001:00045f30       ?checkOverlapSphere@CompoundShape@@UBE_NABVNxSphere@@@Z 10046f30 f   CompoundShape.obj
 0001:00045f40       ?checkOverlapOBB@CompoundShape@@UBE_NABVNxBox@@@Z 10046f40 f   CompoundShape.obj
 0001:00045f50       ?checkOverlapAABB@CompoundShape@@UBE_NABVNxBounds3@@@Z 10046f50 f   CompoundShape.obj
 0001:00045f60       ?checkOverlapCapsule@CompoundShape@@UBE_NABVNxCapsule@@@Z 10046f60 f   CompoundShape.obj
 0001:00045f70       ??A?$NxArray@UNxSceneStatistic@@VNxAllocatorDefault@@@@QAEAAUNxSceneStatistic@@I@Z 10046f70 f i CompoundShape.obj
 0001:00045f90       ??0?$NxArray@PAVNxShape@@VUserAllocatorAccess@NxFoundation@@@@QAE@XZ 10046f90 f i CompoundShape.obj
 0001:00045fa0       ?size@?$NxArray@PAVNxShape@@VUserAllocatorAccess@NxFoundation@@@@QBEIXZ 10046fa0 f i CompoundShape.obj
 0001:00045fb0       ?popBack@?$NxArray@PAVNxShape@@VUserAllocatorAccess@NxFoundation@@@@QAEXXZ 10046fb0 f i CompoundShape.obj
 0001:00045fc0       ??A?$NxArray@PAVNxShape@@VUserAllocatorAccess@NxFoundation@@@@QAEAAPAVNxShape@@I@Z 10046fc0 f i CompoundShape.obj
 0001:00045fd0       ?back@?$NxArray@PAVNxShape@@VUserAllocatorAccess@NxFoundation@@@@QAEAAPAVNxShape@@XZ 10046fd0 f i CompoundShape.obj
 0001:00045fe0       ??0?$NxArray@PAVShape@@VUserAllocatorAccess@NxFoundation@@@@QAE@XZ 10046fe0 f i CompoundShape.obj
 0001:00045ff0       ?popBack@?$NxArray@PAVShape@@VUserAllocatorAccess@NxFoundation@@@@QAEXXZ 10046ff0 f i CompoundShape.obj
 0001:00046000       ?back@?$NxArray@PAVShape@@VUserAllocatorAccess@NxFoundation@@@@QAEAAPAVShape@@XZ 10047000 f i CompoundShape.obj
 0001:00046010       ?size@?$PxBackwardIterator@QAVPxInteraction@@@@QBEIXZ 10047010 f i CompoundShape.obj
 0001:00046020       ?capacity@?$NxArray@PAVNxShape@@VUserAllocatorAccess@NxFoundation@@@@QBEIXZ 10047020 f i CompoundShape.obj
 0001:00046040       ?copy@?$NxArray@PAVNxShape@@VUserAllocatorAccess@NxFoundation@@@@AAEPAPAVNxShape@@PBQAV2@0PAPAV2@@Z 10047040 f i CompoundShape.obj
 0001:00046070       ?allocate@?$NxArray@PAVNxShape@@VUserAllocatorAccess@NxFoundation@@@@AAEPAPAVNxShape@@I@Z 10047070 f i CompoundShape.obj
 0001:000460a0       ?deallocate@?$NxArray@PAVNxShape@@VUserAllocatorAccess@NxFoundation@@@@AAEXPAPAVNxShape@@@Z 100470a0 f i CompoundShape.obj
 0001:000460c0       ?destroy@?$NxArray@PAVNxShape@@VUserAllocatorAccess@NxFoundation@@@@AAEXPAPAVNxShape@@0@Z 100470c0 f i CompoundShape.obj
 0001:000460d0       ?capacity@?$NxArray@PAVShape@@VUserAllocatorAccess@NxFoundation@@@@QBEIXZ 100470d0 f i CompoundShape.obj
 0001:000460f0       ?copy@?$NxArray@PAVShape@@VUserAllocatorAccess@NxFoundation@@@@AAEPAPAVShape@@PBQAV2@0PAPAV2@@Z 100470f0 f i CompoundShape.obj
 0001:00046120       ?allocate@?$NxArray@PAVShape@@VUserAllocatorAccess@NxFoundation@@@@AAEPAPAVShape@@I@Z 10047120 f i CompoundShape.obj
 0001:00046150       ?deallocate@?$NxArray@PAVShape@@VUserAllocatorAccess@NxFoundation@@@@AAEXPAPAVShape@@@Z 10047150 f i CompoundShape.obj
 0001:00046170       ?destroy@?$NxArray@PAVShape@@VUserAllocatorAccess@NxFoundation@@@@AAEXPAPAVShape@@0@Z 10047170 f i CompoundShape.obj
 0001:00046180       ?incStat@SceneStats2@@QAEXW4SceneStatisticEnum@@@Z 10047180 f i CompoundShape.obj
 0001:000461c0       ?decStat@SceneStats2@@QAEXW4SceneStatisticEnum@@@Z 100471c0 f i CompoundShape.obj
 0001:000461e0       ?setActorPublicFlags@CompoundShape@@UAEXI@Z 100471e0 f   CompoundShape.obj
 0001:00046230       ?setActorGroup@CompoundShape@@UAEXG@Z 10047230 f   CompoundShape.obj
 0001:00046280       ?existsShapeWithCCDSkeleton@CompoundShape@@QAEHXZ 10047280 f   CompoundShape.obj
 0001:000462d0       ?computeWorldBounds@CompoundShape@@EBEXAAVNxBounds3@@@Z 100472d0 f   CompoundShape.obj
 0001:000464a0       ?computeWorldSphere@CompoundShape@@EBEXAAVNxSphere@@@Z 100474a0 f   CompoundShape.obj
 0001:00046560       ?computeLocalSphere@CompoundShape@@EBEXAAVNxSphere@@@Z 10047560 f   CompoundShape.obj
 0001:00046780       ?isValid@CompoundShape@@EBE_NXZ 10047780 f   CompoundShape.obj
 0001:000467d0       ?updateLowLevelShapeTransform@CompoundShape@@UAEXXZ 100477d0 f   CompoundShape.obj
 0001:00046810       ?updateBroadPhase@CompoundShape@@UAEXXZ 10047810 f   CompoundShape.obj
 0001:00046860       ?visualize@CompoundShape@@UBEXAAVDebugRenderable@NxFoundation@@@Z 10047860 f   CompoundShape.obj
 0001:000468b0       ?raycast@CompoundShape@@UBE_NABVNxRay@@MIAAUNxRaycastHit@@_N@Z 100478b0 f   CompoundShape.obj
 0001:00046a30       ?removeShape@CompoundShape@@QAE_NAAVShape@@@Z 10047a30 f   CompoundShape.obj
 0001:00046bb0       ??1?$NxArray@PAVNxShape@@VUserAllocatorAccess@NxFoundation@@@@QAE@XZ 10047bb0 f i CompoundShape.obj
 0001:00046bf0       ?reserve@?$NxArray@PAVNxShape@@VUserAllocatorAccess@NxFoundation@@@@QAEXI@Z 10047bf0 f i CompoundShape.obj
 0001:00046ca0       ??1?$NxArray@PAVShape@@VUserAllocatorAccess@NxFoundation@@@@QAE@XZ 10047ca0 f i CompoundShape.obj
 0001:00046ce0       ?reserve@?$NxArray@PAVShape@@VUserAllocatorAccess@NxFoundation@@@@QAEXI@Z 10047ce0 f i CompoundShape.obj
 0001:00046d90       ?pushBack@?$NxArray@PAVNxShape@@VUserAllocatorAccess@NxFoundation@@@@QAEXABQAVNxShape@@@Z 10047d90 f i CompoundShape.obj
 0001:00046e60       ?pushBack@?$NxArray@PAVShape@@VUserAllocatorAccess@NxFoundation@@@@QAEXABQAVShape@@@Z 10047e60 f i CompoundShape.obj
 0001:00046f30       ??0?$NxArraySDK@PAVShape@@@NxFoundation@@QAE@XZ 10047f30 f i CompoundShape.obj
 0001:00046f40       ??1?$NxArraySDK@PAVShape@@@NxFoundation@@QAE@XZ 10047f40 f i CompoundShape.obj
 0001:00046f80       ??0?$NxArraySDK@PAVNxShape@@@NxFoundation@@QAE@XZ 10047f80 f i CompoundShape.obj
 0001:00046f90       ??1?$NxArraySDK@PAVNxShape@@@NxFoundation@@QAE@XZ 10047f90 f i CompoundShape.obj
 0001:00046fd0       ??1CompoundShape@@MAE@XZ   10047fd0 f   CompoundShape.obj
 0001:000470a0       ?getShape@CompoundShape@@UAEAAVShape@@XZ 100480a0 f i CompoundShape.obj
 0001:000470b0       ?getShape@CompoundShape@@UBEABVShape@@XZ 100480b0 f i CompoundShape.obj
 0001:000470c0       ??BCompoundShape@@UAEAAVShape@@XZ 100480c0 f i CompoundShape.obj
 0001:000470d0       ?hasSpecialBroadphase@CompoundShape@@UBE_NXZ 100480d0 f i CompoundShape.obj
 0001:000470e0       ?getNbShapes@CompoundShape@@UBEIXZ 100480e0 f i CompoundShape.obj
 0001:00047100       ?getNvShapes@CompoundShape@@UBEPAPBVNvShape@@XZ 10048100 f i CompoundShape.obj
 0001:00047110       ?getNvShapes@CompoundShape@@UAEPAPAVNvShape@@XZ 10048110 f i CompoundShape.obj
 0001:00047120       ?getNxShapes@CompoundShape@@UAEPAPAVNxShape@@XZ 10048120 f i CompoundShape.obj
 0001:00047130       ?push_back@?$NxArray@PAVNxShape@@VUserAllocatorAccess@NxFoundation@@@@QAEXABQAVNxShape@@@Z 10048130 f i CompoundShape.obj
 0001:00047200       ?push_back@?$NxArray@PAVShape@@VUserAllocatorAccess@NxFoundation@@@@QAEXABQAVShape@@@Z 10048200 f i CompoundShape.obj
 0001:000472d0       ??0CompoundShape@@IAE@ABVNvShapeDesc@@PAVScene@@I@Z 100482d0 f   CompoundShape.obj
 0001:00047510       ??_GCompoundShape@@MAEPAXI@Z 10048510 f i CompoundShape.obj
 0001:00047510       ??_ECompoundShape@@MAEPAXI@Z 10048510 f i CompoundShape.obj
 0001:00047540       ?addShape@CompoundShape@@QAEXAAVShape@@@Z 10048540 f   CompoundShape.obj
 0001:000479b0       ?moveToCompound@CompoundShape@@UAEXAAVNvShape@@@Z 100489b0 f   CompoundShape.obj
 0001:00047a30       ?triggerBoxBox@@YA_NPBVShape@@0AAUTriggerCache@@AAVNPhaseContext@@@Z 10048a30 f   ContactBoxBoxICE.obj
 0001:00047b40       ??0NxSphere@@QAE@ABVNxVec3@@M@Z 10048b40 f i ContactBoxCapsule.obj
 0001:00047b70       ??0NxBox@@QAE@ABVNxVec3@@0ABVNxMat33@@@Z 10048b70 f i ContactBoxCapsule.obj
 0001:00047bc0       ?getRadiusFast@CapsuleShape@@QBEMXZ 10048bc0 f i ContactBoxCapsule.obj
 0001:00047bd0       ?triggerBoxCapsule@@YA_NPBVShape@@0AAUTriggerCache@@AAVNPhaseContext@@@Z 10048bd0 f   ContactBoxCapsule.obj
 0001:00047dc0       ?get@NxVec3@@QBEXPAM@Z     10048dc0 f i ContactBoxConvex.obj
 0001:00047de0       ?distanceSquared@NxVec3@@QBEMABV1@@Z 10048de0 f i ContactBoxConvex.obj
 0001:00047e20       ?multiplyByInverseRT@NxMat34@@QBEXABVNxVec3@@AAV2@@Z 10048e20 f i ContactBoxConvex.obj
 0001:00047ec0       ?ZeroMemory@@YAXPAXI@Z     10048ec0 f i ContactBoxConvex.obj
 0001:00047ef0       ?Zero@Point@IceMaths@@QAEAAV12@XZ 10048ef0 f i ContactBoxConvex.obj
 0001:00047f00       ?Normalize@Point@IceMaths@@QAEAAV12@XZ 10048f00 f i ContactBoxConvex.obj
 0001:00047f70       ??ZPoint@IceMaths@@QAEAAV01@ABV01@@Z 10048f70 f i ContactBoxConvex.obj
 0001:00047fa0       ??DPoint@IceMaths@@QBE?AV01@ABVMatrix4x4@1@@Z 10048fa0 f i ContactBoxConvex.obj
 0001:00048010       ?Zero@Matrix3x3@IceMaths@@QAEXXZ 10049010 f i ContactBoxConvex.obj
 0001:00048040       ?Identity@Matrix3x3@IceMaths@@QAEXXZ 10049040 f i ContactBoxConvex.obj
 0001:00048080       ??AMatrix3x3@IceMaths@@QAEAAVPoint@1@H@Z 10049080 f i ContactBoxConvex.obj
 0001:00048090       ?Distance@Plane@IceMaths@@QBEMABVPoint@2@@Z 10049090 f i ContactBoxConvex.obj
 0001:000480c0       ?Contains@NxSphere@@QBE_NABVNxVec3@@@Z 100490c0 f i ContactBoxConvex.obj
 0001:00048120       ?GetFaces@ConvexHull@@QBEPBUPxHullTriangleData@@XZ 10049120 f i ContactBoxConvex.obj
 0001:00048130       ?GetCenter@ConvexHull@@QBEABVPoint@IceMaths@@XZ 10049130 f i ContactBoxConvex.obj
 0001:00048140       ?GetNbPolygons@ConvexHull@@QBEIXZ 10049140 f i ContactBoxConvex.obj
 0001:00048150       ?GetPolygon@ConvexHull@@QBEABUPxHullPolygonData@@I@Z 10049150 f i ContactBoxConvex.obj
 0001:00048170       ?getTriangle@ConvexMesh@@QBEABUPxHullTriangleData@@I@Z 10049170 f i ContactBoxConvex.obj
 0001:00048190       ?getVertex@ConvexMesh@@QBEABVNxVec3@@I@Z 10049190 f i ContactBoxConvex.obj
 0001:000481b0       ?getHull@ConvexMesh@@QBEPAVCollisionHull@@XZ 100491b0 f i ContactBoxConvex.obj
 0001:000481c0       ?NXToICE@@YAXAAVOBB@IceMaths@@ABVNxVec3@@PBV3@PBVNxMat33@@@Z 100491c0 f i ContactBoxConvex.obj
 0001:00048d70       ?triggerBoxConvex@@YA_NPBVShape@@0AAUTriggerCache@@AAVNPhaseContext@@@Z 10049d70 f   ContactBoxConvex.obj
 0001:000499d0       _ceilf                     1004a9d0 f i ContactBoxHeightField2.obj
 0001:000499f0       _floorf                    1004a9f0 f i ContactBoxHeightField2.obj
 0001:00049a10       ?floor@NxMath@@SAMM@Z      1004aa10 f i ContactBoxHeightField2.obj
 0001:00049a30       ?ceil@NxMath@@SAMM@Z       1004aa30 f i ContactBoxHeightField2.obj
 0001:00049a50       ?clamp@NxMath@@SAHHHH@Z    1004aa50 f i ContactBoxHeightField2.obj
 0001:00049a70       ?multiply@NxMat34@@QAEXABV1@0@Z 1004aa70 f i ContactBoxHeightField2.obj
 0001:00049c60       ?GetExtents@NxBox@@QBEABVNxVec3@@XZ 1004ac60 f i ContactBoxHeightField2.obj
 0001:00049c70       ?getNbRows@HeightField@@QBEIXZ 1004ac70 f i ContactBoxHeightField2.obj
 0001:00049c80       ?getNbColumns@HeightField@@QBEIXZ 1004ac80 f i ContactBoxHeightField2.obj
 0001:00049c90       ?getVerticalExtent@HeightField@@QBEMXZ 1004ac90 f i ContactBoxHeightField2.obj
 0001:00049ca0       ?byteOffset@HeightField@@IBEPBXI@Z 1004aca0 f i ContactBoxHeightField2.obj
 0001:00049cb0       ?getSample@HeightField@@IBEABUNxHeightFieldSample@@I@Z 1004acb0 f i ContactBoxHeightField2.obj
 0001:00049cd0       ?isZerothVertexShared@HeightField@@QBE_NI@Z 1004acd0 f i ContactBoxHeightField2.obj
 0001:00049cf0       ?getHeight@HeightField@@QBEMI@Z 1004acf0 f i ContactBoxHeightField2.obj
 0001:00049d10       ?computeCellCoordinates@HeightField@@QBEXMMAAI0AAM1@Z 1004ad10 f i ContactBoxHeightField2.obj
 0001:00049e00       ?getMinRow@HeightField@@QBEIM@Z 1004ae00 f i ContactBoxHeightField2.obj
 0001:00049e50       ?getMaxRow@HeightField@@QBEIM@Z 1004ae50 f i ContactBoxHeightField2.obj
 0001:00049ea0       ?getMinColumn@HeightField@@QBEIM@Z 1004aea0 f i ContactBoxHeightField2.obj
 0001:00049ef0       ?getMaxColumn@HeightField@@QBEIM@Z 1004aef0 f i ContactBoxHeightField2.obj
 0001:00049f40       ?getHeight@HeightField@@QBEMMM@Z 1004af40 f i ContactBoxHeightField2.obj
 0001:0004a200       ?getHeightFieldFast@HeightFieldShape@@QBEABVHeightField@@XZ 1004b200 f i ContactBoxHeightField2.obj
 0001:0004a210       ?getHeightScale@HeightFieldShape@@QBEMXZ 1004b210 f i ContactBoxHeightField2.obj
 0001:0004a220       ?getRowScale@HeightFieldShape@@QBEMXZ 1004b220 f i ContactBoxHeightField2.obj
 0001:0004a230       ?getColumnScale@HeightFieldShape@@QBEMXZ 1004b230 f i ContactBoxHeightField2.obj
 0001:0004a240       ?isShapePointOnHeightField@HeightFieldShape@@QBE_NMM@Z 1004b240 f i ContactBoxHeightField2.obj
 0001:0004a2f0       ?getHeightAtShapePoint@HeightFieldShape@@QBEMMM@Z 1004b2f0 f i ContactBoxHeightField2.obj
 0001:0004a5c0       ??0TriggerTraceLineCallback@@QAE@ABVNxVec3@@@Z 1004b5c0 f i ContactBoxHeightField2.obj
 0001:0004a5f0       ?contact@TriggerTraceLineCallback@@QAE_NABVHeightFieldShape@@HIIMMMM@Z 1004b5f0 f i ContactBoxHeightField2.obj
 0001:0004a6a0       ??$uintercept@UTriggerTraceLineCallback@@@HeightFieldShape@@ABE_NHHMMPAUTriggerTraceLineCallback@@@Z 1004b6a0 f i ContactBoxHeightField2.obj
 0001:0004a7d0       ??$vintercept@UTriggerTraceLineCallback@@@HeightFieldShape@@ABE_NHHMMPAUTriggerTraceLineCallback@@@Z 1004b7d0 f i ContactBoxHeightField2.obj
 0001:0004a910       ??$dintercept0@UTriggerTraceLineCallback@@@HeightFieldShape@@ABE_NHHMMMPAUTriggerTraceLineCallback@@@Z 1004b910 f i ContactBoxHeightField2.obj
 0001:0004aa60       ??$dintercept1@UTriggerTraceLineCallback@@@HeightFieldShape@@ABE_NHHMMMPAUTriggerTraceLineCallback@@@Z 1004ba60 f i ContactBoxHeightField2.obj
 0001:0004abb0       ??$traceLine@UTriggerTraceLineCallback@@@HeightFieldShape@@QBEXABVNxVec3@@0PAUTriggerTraceLineCallback@@@Z 1004bbb0 f i ContactBoxHeightField2.obj
 0001:0004bc10       ?intersectHeightFieldBox@@YA_NABVHeightFieldShape@@ABVNxBox@@@Z 1004cc10 f   ContactBoxHeightField2.obj
 0001:0004d6c0       ?triggerBoxHeightField@@YA_NPBVShape@@0AAUTriggerCache@@AAVNPhaseContext@@@Z 1004e6c0 f   ContactBoxHeightField2.obj
 0001:0004d870       ?sameDirection@NxVec3@@QBE_NABV1@@Z 1004e870 f i ContactBoxMeshICE.obj
 0001:0004d8b0       ?getVertex@InternalTriangleMesh@@QBEABVNxVec3@@I@Z 1004e8b0 f i ContactBoxMeshICE.obj
 0001:0004d8d0       ?getTriangle@InternalTriangleMesh@@QBEABUNxTriangle32@@I@Z 1004e8d0 f i ContactBoxMeshICE.obj
 0001:0004d8f0       ?getMaterials@InternalTriangleMesh@@QBEPBGXZ 1004e8f0 f i ContactBoxMeshICE.obj
 0001:0004d900       ?getFaceRemap@InternalTriangleMesh@@QBEPBIXZ 1004e900 f i ContactBoxMeshICE.obj
 0001:0004d910       ?getLocalVertexNormals@InternalTriangleMesh@@QBEPBVNxVec3@@XZ 1004e910 f i ContactBoxMeshICE.obj
 0001:0004d930       ?getVertexTimeStamp@NPhaseContext@@QAEIXZ 1004e930 f i ContactBoxMeshICE.obj
 0001:0004d970       ?mustProcess@NPhaseContext@@QBEHII@Z 1004e970 f i ContactBoxMeshICE.obj
 0001:0004d990       ?setTagged@NPhaseContext@@QBEXII@Z 1004e990 f i ContactBoxMeshICE.obj
 0001:0004d9b0       ?getMaterialFast@Shape@@QBEGXZ 1004e9b0 f i ContactBoxMeshICE.obj
 0001:0004d9c0       ?getFaceRemap@TriangleMesh@@QBEPBIXZ 1004e9c0 f i ContactBoxMeshICE.obj
 0001:0004d9d0       ?getLocalVertexNormals@TriangleMesh@@QBEPBVNxVec3@@XZ 1004e9d0 f i ContactBoxMeshICE.obj
 0001:0004d9f0       ?getTriangleFast@TriangleMesh@@QBEABUNxTriangle32@@I@Z 1004e9f0 f i ContactBoxMeshICE.obj
 0001:0004da10       ?getVertexFast@TriangleMesh@@QBEABVNxVec3@@I@Z 1004ea10 f i ContactBoxMeshICE.obj
 0001:0004da30       ?getHeightFieldUpVector@TriangleMesh@@QBEXAAVNxVec3@@@Z 1004ea30 f i ContactBoxMeshICE.obj
 0001:0004da80       ?computeWorldTriangle@TriangleMesh@@QBEXAAVNxTriangle@@IABVNxMat34@@@Z 1004ea80 f i ContactBoxMeshICE.obj
 0001:0004dc60       ?getTriangleMaterial@TriangleMesh@@QBEGIG@Z 1004ec60 f i ContactBoxMeshICE.obj
 0001:0004dc80       ?NxPointTriangleIntersect2D@@YAHMMMMMMMM@Z 1004ec80 f i ContactBoxMeshICE.obj
 0001:0004dd70       ?intersectBoxMesh@@YA_NABVNxBox@@ABVHybridModel@Opcode@@ABVNxMat34@@AAVNPhaseContext@@@Z 1004ed70 f   ContactBoxMeshICE.obj
 0001:0004dfb0       ?setMagnitude@NxVec3@@QAEXM@Z 1004efb0 f i ContactBoxMeshICE.obj
 0001:0004e020       ?NxMakeFatEdge@@YAXAAVNxVec3@@0M@Z 1004f020 f i ContactBoxMeshICE.obj
 0001:0004e2d0       ?triggerBoxMesh@@YA_NPBVShape@@0AAUTriggerCache@@AAVNPhaseContext@@@Z 1004f2d0 f   ContactBoxMeshICE.obj
 0001:0004e370       ??0NxPlane@@QAE@ABVNxVec3@@00@Z 1004f370 f i ContactBoxMeshICE.obj
 0001:0004f600       ?testBoxPlaneFallback@@YA_NABVBoxShape@@ABVTriangleMeshShape@@PBIAAVShapeInstancePair@@@Z 10050600 f   ContactBoxMeshICE.obj
 0001:0004fae0       ?contactBoxMeshHF@@YAXPBVShape@@0AAVShapeInstancePair@@AAVNPhaseContext@@@Z 10050ae0 f   ContactBoxMeshICE.obj
 0001:0004ff30       ?triggerCapsuleCapsule@@YA_NPBVShape@@0AAUTriggerCache@@AAVNPhaseContext@@@Z 10050f30 f   ContactCapsuleCapsule.obj
 0001:00050130       ??0Segment@IceMaths@@QAE@XZ 10051130 f i ContactCapsuleConvex.obj
 0001:00050140       ??1Segment@IceMaths@@QAE@XZ 10051140 f i ContactCapsuleConvex.obj
 0001:00050150       ??0LSS@IceMaths@@QAE@XZ    10051150 f i ContactCapsuleConvex.obj
 0001:00050160       ??1LSS@IceMaths@@QAE@XZ    10051160 f i ContactCapsuleConvex.obj
 0001:00050170       ??$TSwap@M@IceCore@@YAXAAM0@Z 10051170 f i ContactCapsuleConvex.obj
 0001:00050190       ?triggerCapsuleConvex@@YA_NPBVShape@@0AAUTriggerCache@@AAVNPhaseContext@@@Z 10051190 f   ContactCapsuleConvex.obj
 0001:00050980       ??0NxSegment@@QAE@ABVNxVec3@@0@Z 10051980 f i ContactCapsuleHeightField.obj
 0001:000509c0       ?getHalfHeightFast@CapsuleShape@@QBEMXZ 100519c0 f i ContactCapsuleHeightField.obj
 0001:000509d0       ?getOneOverRowScale@HeightFieldShape@@QBEMXZ 100519d0 f i ContactCapsuleHeightField.obj
 0001:000509e0       ?getOneOverColumnScale@HeightFieldShape@@QBEMXZ 100519e0 f i ContactCapsuleHeightField.obj
 0001:000509f0       ?shape2hfp@HeightFieldShape@@QBE?AVNxVec3@@ABV2@@Z 100519f0 f i ContactCapsuleHeightField.obj
 0001:00050a30       ?intersectHeightFieldCapsule@@YA_NABVHeightFieldShape@@ABVNxCapsule@@@Z 10051a30 f   ContactCapsuleHeightField.obj
 0001:00051460       ?triggerCapsuleHeightField@@YA_NPBVShape@@0AAUTriggerCache@@AAVNPhaseContext@@@Z 10052460 f   ContactCapsuleHeightField.obj
 0001:000517a0       ?getOrigin@NxSegment@@QBEABVNxVec3@@XZ 100527a0 f i ContactCapsuleMesh.obj
 0001:000517b0       ?computeDirection@NxSegment@@QBEXAAVNxVec3@@@Z 100527b0 f i ContactCapsuleMesh.obj
 0001:000517e0       ?SameDirection@Point@IceMaths@@QBE_NABV12@@Z 100527e0 f i ContactCapsuleMesh.obj
 0001:00051820       ??DPoint@IceMaths@@QBE?AV01@M@Z 10052820 f i ContactCapsuleMesh.obj
 0001:00051850       ??DIceMaths@@YA?AVPoint@0@MABV10@@Z 10052850 f i ContactCapsuleMesh.obj
 0001:00051880       ??TPoint@IceMaths@@QBE?AV01@ABV01@@Z 10052880 f i ContactCapsuleMesh.obj
 0001:000518d0       ??0Plane@IceMaths@@QAE@ABVPoint@1@00@Z 100528d0 f i ContactCapsuleMesh.obj
 0001:00051900       ??1Plane@IceMaths@@QAE@XZ  10052900 f i ContactCapsuleMesh.obj
 0001:00051910       ??0Triangle@IceMaths@@QAE@XZ 10052910 f i ContactCapsuleMesh.obj
 0001:00051940       ??1Triangle@IceMaths@@QAE@XZ 10052940 f i ContactCapsuleMesh.obj
 0001:00051960       ?Normal@Triangle@IceMaths@@QBEXAAVPoint@2@@Z 10052960 f i ContactCapsuleMesh.obj
 0001:00051a30       ?Center@Triangle@IceMaths@@QBEXAAVPoint@2@@Z 10052a30 f i ContactCapsuleMesh.obj
 0001:00051aa0       ?IsAlmostZero@@YAHABVPoint@IceMaths@@@Z 10052aa0 f i ContactCapsuleMesh.obj
 0001:00051b00       ?getNumTriangles@InternalTriangleMesh@@QBEIXZ 10052b00 f i ContactCapsuleMesh.obj
 0001:00051b10       ??0NxRay@@QAE@ABVNxVec3@@0@Z 10052b10 f i ContactCapsuleMesh.obj
 0001:00051b50       ??1NxRay@@QAE@XZ           10052b50 f i ContactCapsuleMesh.obj
 0001:00051b60       ?NxComputeBarycentricPoint@@YAXAAVNxVec3@@ABV1@11MM@Z 10052b60 f i ContactCapsuleMesh.obj
 0001:00051bf0       ?getCapsuleFlagsFast@CapsuleShape@@QBEIXZ 10052bf0 f i ContactCapsuleMesh.obj
 0001:00051c00       ?getNumTrianglesFast@TriangleMesh@@QBEIXZ 10052c00 f i ContactCapsuleMesh.obj
 0001:00051c10       ?intersectCapsuleMesh@@YA_NABVNxCapsule@@ABVHybridModel@Opcode@@ABVNxMat34@@AAVNPhaseContext@@@Z 10052c10 f   ContactCapsuleMesh.obj
 0001:00051d70       ?triggerCapsuleMesh@@YA_NPBVShape@@0AAUTriggerCache@@AAVNPhaseContext@@@Z 10052d70 f   ContactCapsuleMesh.obj
 0001:00052c50       ?contactCapsuleTriangle@@YAXABVCapsuleShape@@ABVTriangleMeshShape@@ABVTriangle@IceMaths@@ABVNxSegment@@MAAVShapeInstancePair@@AAVNPhaseContext@@ABVTriangleMesh@@I@Z 10053c50 f   ContactCapsuleMesh.obj
 0001:00053570       ?contactCapsuleMesh@@YAXPBVShape@@0AAVShapeInstancePair@@AAVNPhaseContext@@@Z 10054570 f   ContactCapsuleMesh.obj
 0001:00055f90       ?intersects@NxBounds3@@QBE_NABV1@@Z 10056f90 f i ContactCompound.obj
 0001:00056000       ?getRadiusFast@SphereShape@@QBEMXZ 10057000 f i ContactCompound.obj
 0001:00056010       ?triggerPlaneCompound@@YA_NPBVShape@@0AAUTriggerCache@@AAVNPhaseContext@@@Z 10057010 f   ContactCompound.obj
 0001:00056090       ?triggerMeshCompound@@YA_NPBVShape@@0AAUTriggerCache@@AAVNPhaseContext@@@Z 10057090 f   ContactCompound.obj
 0001:00056110       ?triggerHeightFieldCompound@@YA_NPBVShape@@0AAUTriggerCache@@AAVNPhaseContext@@@Z 10057110 f   ContactCompound.obj
 0001:00056380       ?contactPlaneCompound@@YAXPBVShape@@0AAVShapeInstancePair@@AAVNPhaseContext@@@Z 10057380 f   ContactCompound.obj
 0001:000563b0       ?contactSphereCompound@@YAXPBVShape@@0AAVShapeInstancePair@@AAVNPhaseContext@@@Z 100573b0 f   ContactCompound.obj
 0001:000563e0       ?contactBoxCompound@@YAXPBVShape@@0AAVShapeInstancePair@@AAVNPhaseContext@@@Z 100573e0 f   ContactCompound.obj
 0001:00056410       ?contactCapsuleCompound@@YAXPBVShape@@0AAVShapeInstancePair@@AAVNPhaseContext@@@Z 10057410 f   ContactCompound.obj
 0001:00056440       ?contactWheelCompound@@YAXPBVShape@@0AAVShapeInstancePair@@AAVNPhaseContext@@@Z 10057440 f   ContactCompound.obj
 0001:00056470       ?contactConvexCompound@@YAXPBVShape@@0AAVShapeInstancePair@@AAVNPhaseContext@@@Z 10057470 f   ContactCompound.obj
 0001:000564a0       ?contactMeshCompound@@YAXPBVShape@@0AAVShapeInstancePair@@AAVNPhaseContext@@@Z 100574a0 f   ContactCompound.obj
 0001:000564d0       ?contactHeightFieldCompound@@YAXPBVShape@@0AAVShapeInstancePair@@AAVNPhaseContext@@@Z 100574d0 f   ContactCompound.obj
 0001:00056500       ?contactCompoundCompound@@YAXPBVShape@@0AAVShapeInstancePair@@AAVNPhaseContext@@@Z 10057500 f   ContactCompound.obj
 0001:00056990       ?triggerCapsuleCompound@@YA_NPBVShape@@0AAUTriggerCache@@AAVNPhaseContext@@@Z 10057990 f   ContactCompound.obj
 0001:00056c50       ?triggerSphereCompound@@YA_NPBVShape@@0AAUTriggerCache@@AAVNPhaseContext@@@Z 10057c50 f   ContactCompound.obj
 0001:00056e40       ?triggerBoxCompound@@YA_NPBVShape@@0AAUTriggerCache@@AAVNPhaseContext@@@Z 10057e40 f   ContactCompound.obj
 0001:00057090       ?Swap@IceCore@@YAXAAI0@Z   10058090 f i ContactConvexConvex.obj
 0001:000570c0       ?Reset@Container@IceCore@@QAEXXZ 100580c0 f i ContactConvexConvex.obj
 0001:000570e0       ??DPoint@IceMaths@@QBE?AV01@ABVMatrix3x3@1@@Z 100580e0 f i ContactConvexConvex.obj
 0001:00057150       ??0Plane@IceMaths@@QAE@XZ  10058150 f i ContactConvexConvex.obj
 0001:00057160       ?TransformPlane@IceMaths@@YAXAAVPlane@1@ABV21@ABVMatrix4x4@1@@Z 10058160 f i ContactConvexConvex.obj
 0001:00057200       ?Multiply3x3@@YAXAAVPoint@IceMaths@@ABV12@ABVMatrix4x4@2@@Z 10058200 f i ContactConvexConvex.obj
 0001:00057270       ??0Vertices@@QAE@XZ        10058270 f i ContactConvexConvex.obj
 0001:00057280       ??1Vertices@@QAE@XZ        10058280 f i ContactConvexConvex.obj
 0001:00057290       ?GetNbVertices@Vertices@@QBEIXZ 10058290 f i ContactConvexConvex.obj
 0001:000572a0       ?GetVertices@Vertices@@QBEPBVPoint@IceMaths@@XZ 100582a0 f i ContactConvexConvex.obj
 0001:000572b0       ??0SeparatingAxes@@QAE@XZ  100582b0 f i ContactConvexConvex.obj
 0001:00057310       ??1SeparatingAxes@@QAE@XZ  10058310 f i ContactConvexConvex.obj
 0001:00057370       ?GetAxes@SeparatingAxes@@QBEABVVertices@@XZ 10058370 f i ContactConvexConvex.obj
 0001:00057380       ?Reset@SeparatingAxes@@QAEXXZ 10058380 f i ContactConvexConvex.obj
 0001:000573a0       ?TestSepAxis@@YA_NAAVNPhaseContext@@ABVPoint@IceMaths@@ABVConvexMeshInterface@@2ABVMatrix4x4@3@3PAM@Z 100583a0 f   ContactConvexConvex.obj
 0001:00057500       ?TestFacesSepAxes@@YA_NAAVNPhaseContext@@ABVConvexMeshInterface@@ABVMatrix4x4@IceMaths@@12AAMAAVPoint@4@PAI@Z 10058500 f   ContactConvexConvex.obj
 0001:00057850       ?MultiplyAdd4x4@@YAMIABVPoint@IceMaths@@0ABVMatrix4x4@2@@Z 10058850 f i ContactConvexConvex.obj
 0001:000578a0       ?MultiplySub4x4@@YAMIABVPoint@IceMaths@@0ABVMatrix4x4@2@@Z 100588a0 f i ContactConvexConvex.obj
 0001:00057ba0       ?BitsToBytes@@YAII@Z       10058ba0 f i ContactConvexConvex.obj
 0001:000584a0       ?contactHullHull@@YA_NPBVShape@@0PBVConvexMeshInterface@@1PBVClosestPolygonMap@@2ABVMatrix4x4@IceMaths@@3AAVNPhaseContext@@@Z 100594a0 f   ContactConvexConvex.obj
 0001:00058ae0       ?triggerConvexConvex@@YA_NPBVShape@@0AAUTriggerCache@@AAVNPhaseContext@@@Z 10059ae0 f   ContactConvexConvex.obj
 0001:00058cb0       ??0NxVec3@@QAE@QBM@Z       10059cb0 f i ContactConvexHeightfield.obj
 0001:00058cd0       ??XPoint@IceMaths@@QAEAAV01@ABVMatrix3x3@1@@Z 10059cd0 f i ContactConvexHeightfield.obj
 0001:00058d40       ??XPoint@IceMaths@@QAEAAV01@ABVMatrix4x4@1@@Z 10059d40 f i ContactConvexHeightfield.obj
 0001:00058db0       ??BPoint@IceMaths@@QAEPAMXZ 10059db0 f i ContactConvexHeightfield.obj
 0001:00058dc0       ??0Matrix4x4@IceMaths@@QAE@ABV01@@Z 10059dc0 f i ContactConvexHeightfield.obj
 0001:00058de0       ??0Ray@IceMaths@@QAE@XZ    10059de0 f i ContactConvexHeightfield.obj
 0001:00058df0       ??1Ray@IceMaths@@QAE@XZ    10059df0 f i ContactConvexHeightfield.obj
 0001:00058e00       ?GetCenter@AABB@IceMaths@@QBEXAAVPoint@2@@Z 10059e00 f i ContactConvexHeightfield.obj
 0001:00058e50       ?GetExtents@AABB@IceMaths@@QBEXAAVPoint@2@@Z 10059e50 f i ContactConvexHeightfield.obj
 0001:00058ea0       ?GetNbVerts@ConvexHull@@QBEIXZ 10059ea0 f i ContactConvexHeightfield.obj
 0001:00058eb0       ?GetNbEdges@ConvexHull@@QBEIXZ 10059eb0 f i ContactConvexHeightfield.obj
 0001:00058ec0       ?GetEdges8@ConvexHull@@QBEPBUPxEdge8Data@@XZ 10059ec0 f i ContactConvexHeightfield.obj
 0001:00058ed0       ?GetVertexNormals@ConvexHull@@QBEPBVPoint@IceMaths@@XZ 10059ed0 f i ContactConvexHeightfield.obj
 0001:00059e80       ?contactConvexHeightfield@@YAXPBVShape@@0AAVShapeInstancePair@@AAVNPhaseContext@@@Z 1005ae80 f   ContactConvexHeightfield.obj
 0001:0005a270       ?triggerConvexHeightField@@YA_NPBVShape@@0AAUTriggerCache@@AAVNPhaseContext@@@Z 1005b270 f   ContactConvexHeightField2.obj
 0001:0005bef0       ?contactConvexMesh2@@YAXPBVShape@@0AAVShapeInstancePair@@AAVNPhaseContext@@@Z 1005cef0 f   ContactConvexMesh.obj
 0001:0005bf20       ?ClosestAxis@Point@IceMaths@@QBE?AW4PointComponent@2@XZ 1005cf20 f i ContactEdgeEdge.obj
 0001:0005bf70       ?EdgeEdgeContact@@YAHABVPoint@IceMaths@@0000AAMAAV12@@Z 1005cf70 f   ContactEdgeEdge.obj
 0001:0005c330       ?edge_collision@@YAHABVNxVec3@@0000AAMAAV1@@Z 1005d330 f   ContactEdgeEdge.obj
 0001:0005c750       ?CloseEdgeCollision@@YAHABVNxVec3@@000PAM@Z 1005d750 f   ContactEdgeEdge.obj
 0001:0005cc40       ?computeEdgeNormal@@YAXAAVNxVec3@@ABVTriangleMesh@@ABVNxMat34@@ABV1@ABVAdjacencies@@II@Z 1005dc40 f   ContactEdgeEdge.obj
 0001:0005cfe0       ?getPMap@TriangleMesh@@QBEPBVPenetrationMap@@XZ 1005dfe0 f i ContactMeshMesh.obj
 0001:0005cff0       ?triggerMeshMesh@@YA_NPBVShape@@0AAUTriggerCache@@AAVNPhaseContext@@@Z 1005dff0 f   ContactMeshMesh.obj
 0001:0005d000       ?contactMeshMesh@@YAXPBVShape@@0AAVShapeInstancePair@@AAVNPhaseContext@@@Z 1005e000 f   ContactMeshMesh.obj
 0001:0005d090       ?isZero@NxVec3@@QBEHXZ     1005e090 f i ContactMeshMeshPMap.obj
 0001:0005d0c0       ?getInverse@NxMat33@@QBE_NAAV1@@Z 1005e0c0 f i ContactMeshMeshPMap.obj
 0001:0005d260       ?getInverse@NxMat34@@QBE_NAAV1@@Z 1005e260 f i ContactMeshMeshPMap.obj
 0001:0005d490       ??DMatrix3x3@IceMaths@@QBE?AV01@ABV01@@Z 1005e490 f i ContactMeshMeshPMap.obj
 0001:0005d5d0       ?Rotate@OBB@IceMaths@@QBEXABVMatrix4x4@2@AAV12@@Z 1005e5d0 f i ContactMeshMeshPMap.obj
 0001:0005d680       ?Collide@HybridPlanesCollider@Opcode@@QAE_NAAUPlanesCache@2@ABVOBB@IceMaths@@ABVHybridModel@2@PBVMatrix4x4@5@3@Z 1005e680 f i ContactMeshMeshPMap.obj
 0001:0005d840       ?IsEmptyCell@PMapSample@@QBEHXZ 1005e840 f i ContactMeshMeshPMap.obj
 0001:0005d850       ?GetLocalBox@PenetrationMap@@QBEABVNxBounds3@@XZ 1005e850 f i ContactMeshMeshPMap.obj
 0001:0005d860       ?ComputeTaggedFilteredSample@PenetrationMap@@QBEHAAIAAVNxVec3@@ABV2@PBV2@PBVNxMat33@@@Z 1005e860 f i ContactMeshMeshPMap.obj
 0001:0005d970       ?tagVertex@NPhaseContext@@QBEHII@Z 1005e970 f i ContactMeshMeshPMap.obj
 0001:0005e740       ?contactMeshMeshPMap@@YAXPBVShape@@0AAVShapeInstancePair@@AAVNPhaseContext@@@Z 1005f740 f   ContactMeshMeshPMap.obj
 0001:0005e7a0       ?getPlaneFast@PlaneShape@@QBEABVNxPlane@@XZ 1005f7a0 f i ContactPlaneBox.obj
 0001:0005e7b0       ?intersectPlaneBox@@YA_NABVNxPlane@@ABVNxBox@@@Z 1005f7b0 f   ContactPlaneBox.obj
 0001:0005e830       ?triggerPlaneBox@@YA_NPBVShape@@0AAUTriggerCache@@AAVNPhaseContext@@@Z 1005f830 f   ContactPlaneBox.obj
 0001:0005e8e0       ?intersectPlaneCapsule@@YA_NABVNxCapsule@@ABVNxPlane@@@Z 1005f8e0 f   ContactPlaneCapsule.obj
 0001:0005e950       ?triggerPlaneCapsule@@YA_NPBVShape@@0AAUTriggerCache@@AAVNPhaseContext@@@Z 1005f950 f   ContactPlaneCapsule.obj
 0001:0005ea90       ?NXToICE@@YAABVPlane@IceMaths@@ABVNxPlane@@@Z 1005fa90 f i ContactPlaneConvex.obj
 0001:0005eaa0       ?triggerPlaneConvex@@YA_NPBVShape@@0AAUTriggerCache@@AAVNPhaseContext@@@Z 1005faa0 f   ContactPlaneConvex.obj
 0001:0005ebd0       ?vertex2World@TriangleMeshShape@@QBEXABVNxVec3@@AAV2@@Z 1005fbd0 f i ContactPlaneMesh.obj
 0001:0005ec70       ?triggerPlaneMesh@@YA_NPBVShape@@0AAUTriggerCache@@AAVNPhaseContext@@@Z 1005fc70 f   ContactPlaneMesh.obj
 0001:0005eda0       ?contactPlaneMesh@@YAXPBVShape@@0AAVShapeInstancePair@@AAVNPhaseContext@@@Z 1005fda0 f   ContactPlaneMesh.obj
 0001:0005f130       ?triggerPlaneSphere@@YA_NPBVShape@@0AAUTriggerCache@@AAVNPhaseContext@@@Z 10060130 f   ContactPlaneSphere.obj
 0001:0005f1a0       ??0Ray@IceMaths@@QAE@ABVPoint@1@0@Z 100601a0 f i ContactPolygonPolygon.obj
 0001:0005f1e0       ?RayPlane@@YA_NABVRay@IceMaths@@ABVPlane@2@AAM@Z 100601e0 f i ContactPolygonPolygon.obj
 0001:0005f270       ?MultiplyT@@YAXAAVMatrix4x4@IceMaths@@ABV12@ABVMatrix3x3@2@@Z 10060270 f i ContactPolygonPolygon.obj
 0001:0005f410       ?Transform2D@@YAXAAVPoint@IceMaths@@ABVMatrix4x4@2@ABV12@@Z 10060410 f i ContactPolygonPolygon.obj
 0001:0005f470       ?TransformZ@@YAMABVMatrix4x4@IceMaths@@ABVPoint@2@@Z 10060470 f i ContactPolygonPolygon.obj
 0001:0005f4a0       ?Transform2DT@@YAXAAVPoint@IceMaths@@ABVMatrix3x3@2@ABV12@@Z 100604a0 f i ContactPolygonPolygon.obj
 0001:0005f4f0       ?TransformZT@@YAMABVMatrix3x3@IceMaths@@ABVPoint@2@@Z 100604f0 f i ContactPolygonPolygon.obj
 0001:0005f8c0       ?PolygonPolygonContact@@YA_NIPBVPoint@IceMaths@@PBEABVMatrix4x4@2@ABVPlane@2@I0123ABV12@22@Z 100608c0 f   ContactPolygonPolygon.obj
 0001:000604c0       ?setx@NxVec3@@QAEXABM@Z    100614c0 f i ContactSphereBox.obj
 0001:000604d0       ?sety@NxVec3@@QAEXABM@Z    100614d0 f i ContactSphereBox.obj
 0001:000604e0       ?setz@NxVec3@@QAEXABM@Z    100614e0 f i ContactSphereBox.obj
 0001:000604f0       ?contactSphereBox@@YA_NABVNxSphere@@ABVNxBox@@@Z 100614f0 f   ContactSphereBox.obj
 0001:00060730       ?triggerSphereBox@@YA_NPBVShape@@0AAUTriggerCache@@AAVNPhaseContext@@@Z 10061730 f   ContactSphereBox.obj
 0001:000607c0       ?intersectSphereCapsule@@YA_NABVNxSphere@@ABVNxCapsule@@@Z 100617c0 f   ContactSphereCapsule.obj
 0001:00060810       ?triggerSphereCapsule@@YA_NPBVShape@@0AAUTriggerCache@@AAVNPhaseContext@@@Z 10061810 f   ContactSphereCapsule.obj
 0001:00060940       ??0Sphere@IceMaths@@QAE@ABVPoint@1@M@Z 10061940 f i ContactSphereConvex.obj
 0001:00060970       ??1Sphere@IceMaths@@QAE@XZ 10061970 f i ContactSphereConvex.obj
 0001:00060980       ?triggerSphereConvex@@YA_NPBVShape@@0AAUTriggerCache@@AAVNPhaseContext@@@Z 10061980 f   ContactSphereConvex.obj
 0001:00060f50       ?intersectHeightFieldSphere@@YA_NABVHeightFieldShape@@ABVNxSphere@@@Z 10061f50 f   ContactSphereHeightField.obj
 0001:00061630       ?triggerSphereHeightField@@YA_NPBVShape@@0AAUTriggerCache@@AAVNPhaseContext@@@Z 10062630 f   ContactSphereHeightField.obj
 0001:00061830       ??_0NxVec3@@QAEAAV0@M@Z    10062830 f i ContactSphereMesh.obj
 0001:00061860       ?intersectSphereMesh@@YA_NABVNxSphere@@ABVHybridModel@Opcode@@ABVNxMat34@@AAVNPhaseContext@@@Z 10062860 f   ContactSphereMesh.obj
 0001:000619b0       ??0NxTriangle@@QAE@ABVNxVec3@@00@Z 100629b0 f i ContactSphereMesh.obj
 0001:00061a10       ?getWorldSphereFast@SphereShape@@QBEXAAVNxSphere@@@Z 10062a10 f i ContactSphereMesh.obj
 0001:00061a50       ?triggerSphereMesh@@YA_NPBVShape@@0AAUTriggerCache@@AAVNPhaseContext@@@Z 10062a50 f   ContactSphereMesh.obj
 0001:00062e60       ?contactSphereMesh@@YAXPBVShape@@0AAVShapeInstancePair@@AAVNPhaseContext@@@Z 10063e60 f   ContactSphereMesh.obj
 0001:00063780       ?intersectSphereSphere@@YA_NABVNxSphere@@0@Z 10064780 f   ContactSphereSphere.obj
 0001:000637e0       ?triggerSphereSphere@@YA_NPBVShape@@0AAUTriggerCache@@AAVNPhaseContext@@@Z 100647e0 f   ContactSphereSphere.obj
 0001:00063870       ?Add@Container@IceCore@@QAEAAV12@I@Z 10064870 f i ContactStream.obj
 0001:000638b0       ?reserveSlot@ContactStream@@AAEII@Z 100648b0 f i ContactStream.obj
 0001:000638f0       ??0ContactStream@@QAE@XZ   100648f0 f   ContactStream.obj
 0001:00063910       ??1ContactStream@@QAE@XZ   10064910 f   ContactStream.obj
 0001:00063920       ?reset@ContactStream@@QAEXXZ 10064920 f   ContactStream.obj
 0001:00063990       ?getWheelFlagsFast@WheelShape@@QBEIXZ 10064990 f i ContactWheel.obj
 0001:000639a0       ?getWorldSegmentFast@WheelShape@@QBEXAAVNxSegment@@@Z 100649a0 f i ContactWheel.obj
 0001:00063b40       ?contactPlaneWheel@@YAXPBVShape@@0AAVShapeInstancePair@@AAVNPhaseContext@@@Z 10064b40 f   ContactWheel.obj
 0001:00063e50       ?contactSphereWheel@@YAXPBVShape@@0AAVShapeInstancePair@@AAVNPhaseContext@@@Z 10064e50 f   ContactWheel.obj
 0001:00064160       ?contactBoxWheel@@YAXPBVShape@@0AAVShapeInstancePair@@AAVNPhaseContext@@@Z 10065160 f   ContactWheel.obj
 0001:00064470       ?contactCapsuleWheel@@YAXPBVShape@@0AAVShapeInstancePair@@AAVNPhaseContext@@@Z 10065470 f   ContactWheel.obj
 0001:00066250       ?contactWheelConvex@@YAXPBVShape@@0AAVShapeInstancePair@@AAVNPhaseContext@@@Z 10067250 f   ContactWheel.obj
 0001:00066560       ?contactWheelMesh@@YAXPBVShape@@0AAVShapeInstancePair@@AAVNPhaseContext@@@Z 10067560 f   ContactWheel.obj
 0001:000668a0       ?contactWheelHeightField@@YAXPBVShape@@0AAVShapeInstancePair@@AAVNPhaseContext@@@Z 100678a0 f   ContactWheel.obj
 0001:00066be0       ?Add@Container@IceCore@@QAEAAV12@PBMI@Z 10067be0 f i ConvexHull.obj
 0001:00066c30       ?Flip@IceCore@@YAXAAG@Z    10067c30 f i ConvexHull.obj
 0001:00066c50       ?Flip@IceCore@@YAXAAI@Z    10067c50 f i ConvexHull.obj
 0001:00066c80       ?Flip@IceCore@@YAXAAM@Z    10067c80 f i ConvexHull.obj
 0001:00066cb0       ??$FlipBytes@$03@IceCore@@YAXPAE@Z 10067cb0 f i ConvexHull.obj
 0001:00066ce0       ??YPoint@IceMaths@@QAEAAV01@ABV01@@Z 10067ce0 f i ConvexHull.obj
 0001:00066d10       ??_0Point@IceMaths@@QAEAAV01@M@Z 10067d10 f i ConvexHull.obj
 0001:00066d40       ??0IndexedTriangle@IceMaths@@QAE@III@Z 10067d40 f i ConvexHull.obj
 0001:00066d60       ??1IndexedTriangle@IceMaths@@QAE@XZ 10067d60 f i ConvexHull.obj
 0001:00066d70       ?Center@IndexedTriangle@IceMaths@@QBEXPBVPoint@2@AAV32@@Z 10067d70 f i ConvexHull.obj
 0001:00066e00       ??0Vertices@@QAE@IPBVPoint@IceMaths@@@Z 10067e00 f i ConvexHull.obj
 0001:00066ea0       ?GetEdgeToTriangles@ConvexHull@@QBEPBUPxEdgeDescData@@XZ 10067ea0 f i ConvexHull.obj
 0001:00066eb0       ?GetFacesByEdges8@ConvexHull@@QBEPBEXZ 10067eb0 f i ConvexHull.obj
 0001:00066ec0       ?GetEdgeNormals@ConvexHull@@QBEPBVPoint@IceMaths@@XZ 10067ec0 f i ConvexHull.obj
 0001:00066ed0       ??0ConvexHull@@QAE@XZ      10067ed0 f   ConvexHull.obj
 0001:00066f30       ??_GVertices@@QAEPAXI@Z    10067f30 f i ConvexHull.obj
 0001:00067140       ?DecodeNormal@@YAXAAUPxdVector_@@G@Z 10068140 f i ConvexHull.obj
 0001:00067190       ?GetUsedRam@ConvexHull@@UBEIXZ 10068190 f   ConvexHull.obj
 0001:000671c0       ?Contains@ConvexHull@@QBE_NABVPoint@IceMaths@@@Z 100681c0 f   ConvexHull.obj
 0001:000672f0       ?Contains@ConvexHull@@QBE_NABVSphere@IceMaths@@@Z 100682f0 f   ConvexHull.obj
 0001:000673c0       ?ComputeGeomCenter@ConvexHull@@QBE_NAAVPoint@IceMaths@@@Z 100683c0 f   ConvexHull.obj
 0001:00067500       ?SelectClosestPolygon@ConvexHull@@QBEIABVPoint@IceMaths@@PBVMatrix4x4@3@@Z 10068500 f   ConvexHull.obj
 0001:00067740       ?SelectClosestEdge@ConvexHull@@QBEIABVPoint@IceMaths@@PBVMatrix4x4@3@PAI@Z 10068740 f   ConvexHull.obj
 0001:00067b60       ?DumpPolyNeighbors@ConvexHull@@QBEIIPAI@Z 10068b60 f   ConvexHull.obj
 0001:00067bf0       ?CreateEdgeDirections@ConvexHull@@QAE_NXZ 10068bf0 f   ConvexHull.obj
 0001:00067e60       ??$Flip@X@IceCore@@YAXAAPAX@Z 10068e60 f i ConvexHull.obj
 0001:00067e90       ??1ConvexHull@@UAE@XZ      10068e90 f   ConvexHull.obj
 0001:00068000       ?Load@ConvexHull@@UAE_NABVStream@IceCore@@@Z 10069000 f   ConvexHull.obj
 0001:000688f0       ??_GConvexHull@@UAEPAXI@Z  100698f0 f i ConvexHull.obj
 0001:000688f0       ??_EConvexHull@@UAEPAXI@Z  100698f0 f i ConvexHull.obj
 0001:00068920       ??RNxMat33@@QAEAAMHH@Z     10069920 f i ConvexMesh.obj
 0001:00068940       ?GetAddress@CustomArray@IceCore@@QBEPAXXZ 10069940 f i ConvexMesh.obj
 0001:00068950       ??0Stream@IceCore@@QAE@XZ  10069950 f i ConvexMesh.obj
 0001:00068960       ??1Stream@IceCore@@UAE@XZ  10069960 f i ConvexMesh.obj
 0001:00068970       ??_EStream@IceCore@@UAEPAXI@Z 10069970 f i ConvexMesh.obj
 0001:00068970       ??_GStream@IceCore@@UAEPAXI@Z 10069970 f i ConvexMesh.obj
 0001:000689a0       ?SetNbTriangles@MeshInterface@Opcode@@QAEXI@Z 100699a0 f i ConvexMesh.obj
 0001:000689b0       ?SetNbVertices@MeshInterface@Opcode@@QAEXI@Z 100699b0 f i ConvexMesh.obj
 0001:000689c0       ?GetEdgeListData@EdgeList@NxPhysics@@QAEPAUPxEdgeListData@@XZ 100699c0 f i ConvexMesh.obj
 0001:000689d0       ??1NvConvexMesh@@IAE@XZ    100699d0 f i ConvexMesh.obj
 0001:000689e0       ?GetNbFaces@ConvexHull@@QBEIXZ 100699e0 f i ConvexMesh.obj
 0001:000689f0       ??0MeshMassInfo@@QAE@XZ    100699f0 f i ConvexMesh.obj
 0001:00068a00       ?GetValencies@CollisionHull@@QBEPBVValencies@@XZ 10069a00 f i ConvexMesh.obj
 0001:00068a10       ?getLocalVertexNormals@ConvexMesh@@QBEPBVNxVec3@@XZ 10069a10 f i ConvexMesh.obj
 0001:00068a20       ?getInternalTrisFast@ConvexMesh@@QBEPBUPxHullTriangleData@@XZ 10069a20 f i ConvexMesh.obj
 0001:00068a30       ?getInternalVertsFast@ConvexMesh@@QBEPBVNxVec3@@XZ 10069a30 f i ConvexMesh.obj
 0001:00068a40       ?getNumVerticesFast@ConvexMesh@@QBEIXZ 10069a40 f i ConvexMesh.obj
 0001:00068a50       ?getNumTrianglesFast@ConvexMesh@@QBEIXZ 10069a50 f i ConvexMesh.obj
 0001:00068a60       ?getVertexTagStamps@NPhaseContext@@QAEPAIXZ 10069a60 f i ConvexMesh.obj
 0001:00068a70       ??0NvConvexMesh@@QAE@XZ    10069a70 f i ConvexMesh.obj
 0001:00068a80       ??1MeshMassInfo@@QAE@XZ    10069a80 f i ConvexMesh.obj
 0001:00068a90       ??_GEdgeListBuilder@NxPhysics@@QAEPAXI@Z 10069a90 f i ConvexMesh.obj
 0001:00068ac0       ??0StreamLoad@@QAE@ABVNxStream@@@Z 10069ac0 f i ConvexMesh.obj
 0001:00068ae0       ?ReadByte@StreamLoad@@UBEEXZ 10069ae0 f i ConvexMesh.obj
 0001:00068af0       ?ReadWord@StreamLoad@@UBEGXZ 10069af0 f i ConvexMesh.obj
 0001:00068b00       ?ReadDword@StreamLoad@@UBEIXZ 10069b00 f i ConvexMesh.obj
 0001:00068b10       ?ReadFloat@StreamLoad@@UBEMXZ 10069b10 f i ConvexMesh.obj
 0001:00068b20       ?ReadDouble@StreamLoad@@UBENXZ 10069b20 f i ConvexMesh.obj
 0001:00068b30       ?ReadBuffer@StreamLoad@@UBEXPAXI@Z 10069b30 f i ConvexMesh.obj
 0001:00068b40       ?StoreByte@StreamLoad@@UAEAAVStream@IceCore@@E@Z 10069b40 f i ConvexMesh.obj
 0001:00068b50       ?StoreWord@StreamLoad@@UAEAAVStream@IceCore@@G@Z 10069b50 f i ConvexMesh.obj
 0001:00068b60       ?StoreDword@StreamLoad@@UAEAAVStream@IceCore@@I@Z 10069b60 f i ConvexMesh.obj
 0001:00068b70       ?StoreFloat@StreamLoad@@UAEAAVStream@IceCore@@M@Z 10069b70 f i ConvexMesh.obj
 0001:00068b80       ?StoreDouble@StreamLoad@@UAEAAVStream@IceCore@@N@Z 10069b80 f i ConvexMesh.obj
 0001:00068b90       ?StoreBuffer@StreamLoad@@UAEAAVStream@IceCore@@PBXI@Z 10069b90 f i ConvexMesh.obj
 0001:00068ba0       ??1StreamLoad@@UAE@XZ      10069ba0 f i ConvexMesh.obj
 0001:00068bb0       ?loadOpcodeModel@ConvexMesh@@IAE_NABVCustomArray@IceCore@@@Z 10069bb0 f   ConvexMesh.obj
 0001:00068cd0       ?computeNonPersistentData@ConvexMesh@@IAE_NXZ 10069cd0 f   ConvexMesh.obj
 0001:00068ce0       ?saveToDesc@ConvexMesh@@UBE_NAAVNxConvexMeshDesc@@@Z 10069ce0 f   ConvexMesh.obj
 0001:00068d40       ??0MeshMassInfo@@QAE@ABV0@@Z 10069d40 f i ConvexMesh.obj
 0001:00068d80       ?getMassInfo@ConvexMesh@@QBEPBVMeshMassInfo@@XZ 10069d80 f   ConvexMesh.obj
 0001:00068db0       ?getSubmeshCount@ConvexMesh@@UBEIXZ 10069db0 f   ConvexMesh.obj
 0001:00068dc0       ?getCount@ConvexMesh@@UBEIIW4NxInternalArray@@@Z 10069dc0 f   ConvexMesh.obj
 0001:00068e50       ?getFormat@ConvexMesh@@UBE?AW4NxInternalFormat@@IW4NxInternalArray@@@Z 10069e50 f   ConvexMesh.obj
 0001:00068ed0       ?getBase@ConvexMesh@@UBEPBXIW4NxInternalArray@@@Z 10069ed0 f   ConvexMesh.obj
 0001:00068f60       ?getStride@ConvexMesh@@UBEIIW4NxInternalArray@@@Z 10069f60 f   ConvexMesh.obj
 0001:00068fc0       ?createEdgeList@ConvexMesh@@IAEXXZ 10069fc0 f   ConvexMesh.obj
 0001:00069100       ?releaseEdgeList@ConvexMesh@@QAEXXZ 1006a100 f   ConvexMesh.obj
 0001:00069140       ?GetCenter@ConvexMeshRuntime@@UBEABVPoint@IceMaths@@XZ 1006a140 f   ConvexMesh.obj
 0001:00069150       ?GetNbVerts@ConvexMeshRuntime@@UBEIXZ 1006a150 f   ConvexMesh.obj
 0001:00069160       ?GetVerts@ConvexMeshRuntime@@UBEPBVPoint@IceMaths@@XZ 1006a160 f   ConvexMesh.obj
 0001:00069170       ?SelectClosestPolygon@ConvexMeshRuntime@@UBEIABVPoint@IceMaths@@PBVMatrix4x4@3@@Z 1006a170 f   ConvexMesh.obj
 0001:00069180       ?SelectClosestEdge@ConvexMeshRuntime@@UBEIABVPoint@IceMaths@@PBVMatrix4x4@3@PAI@Z 1006a180 f   ConvexMesh.obj
 0001:00069190       ?GetNbPolygons@ConvexMeshRuntime@@UBEIXZ 1006a190 f   ConvexMesh.obj
 0001:000691a0       ?GetPolygon@ConvexMeshRuntime@@UBEABUPxHullPolygonData@@I@Z 1006a1a0 f   ConvexMesh.obj
 0001:000691c0       ?GetNbEdges@ConvexMeshRuntime@@UBEIXZ 1006a1c0 f   ConvexMesh.obj
 0001:000691d0       ?releaseMemory@ConvexMesh@@IAEXXZ 1006a1d0 f   ConvexMesh.obj
 0001:00069250       ??_EStreamLoad@@UAEPAXI@Z  1006a250 f i ConvexMesh.obj
 0001:00069250       ??_GStreamLoad@@UAEPAXI@Z  1006a250 f i ConvexMesh.obj
 0001:00069280       ?load@ConvexMesh@@UAE_NABVNxStream@@@Z 1006a280 f   ConvexMesh.obj
 0001:00069640       ?getMassInformation@ConvexMesh@@UBE?AVMeshMassInfo@@XZ 1006a640 f   ConvexMesh.obj
 0001:00069680       ?ProjectHull@ConvexMeshRuntime@@UBEXAAVNPhaseContext@@AAM1ABVPoint@IceMaths@@ABVMatrix4x4@4@@Z 1006a680 f   ConvexMesh.obj
 0001:00069a40       ?GetLocalBoundingSphere@ConvexMeshRuntime@@UBEXAAVNxSphere@@@Z 1006aa40 f   ConvexMesh.obj
 0001:00069a70       ??0ConvexMesh@@QAE@XZ      1006aa70 f   ConvexMesh.obj
 0001:00069b20       ?canRunOnHW@ConvexMesh@@UBE_NXZ 1006ab20 f i ConvexMesh.obj
 0001:00069b50       ?getNpConvexMesh@ConvexMesh@@UAEPAVNpConvexMesh@@XZ 1006ab50 f i ConvexMesh.obj
 0001:00069b60       ?setNpConvexMesh@ConvexMesh@@UAEXPAVNpConvexMesh@@@Z 1006ab60 f i ConvexMesh.obj
 0001:00069b70       ?getNumVertices@ConvexMesh@@UBEIXZ 1006ab70 f i ConvexMesh.obj
 0001:00069b80       ?getNumTriangles@ConvexMesh@@UBEIXZ 1006ab80 f i ConvexMesh.obj
 0001:00069b90       ?getInternalTris@ConvexMesh@@UBEPBUNxTriangle32@@XZ 1006ab90 f i ConvexMesh.obj
 0001:00069ba0       ?getInternalVerts@ConvexMesh@@UBEPBVNxVec3@@XZ 1006aba0 f i ConvexMesh.obj
 0001:00069bb0       ??1ConvexMesh@@QAE@XZ      1006abb0 f   ConvexMesh.obj
 0001:00069c20       ??_GConvexMesh@@QAEPAXI@Z  1006ac20 f i ConvexMesh.obj
 0001:00069c50       ??0ConvexMeshRuntime@@QAE@XZ 1006ac50 f   ConvexMesh.obj
 0001:00069c80       ??1ConvexMeshRuntime@@QAE@XZ 1006ac80 f   ConvexMesh.obj
 0001:00069ca0       ?release@ConvexMesh@@UAEXXZ 1006aca0 f   ConvexMesh.obj
 0001:00069cc0       ?getRow@NxMat33@@QBEXHAAVNxVec3@@@Z 1006acc0 f i ConvexShape.obj
 0001:00069cf0       ??0CollisionFace@Opcode@@QAE@XZ 1006acf0 f i ConvexShape.obj
 0001:00069d00       ??1CollisionFace@Opcode@@QAE@XZ 1006ad00 f i ConvexShape.obj
 0001:00069d10       ??0CollisionFaces@Opcode@@QAE@XZ 1006ad10 f i ConvexShape.obj
 0001:00069d20       ??1CollisionFaces@Opcode@@QAE@XZ 1006ad20 f i ConvexShape.obj
 0001:00069d30       ?GetNbFaces@CollisionFaces@Opcode@@QBEIXZ 1006ad30 f i ConvexShape.obj
 0001:00069d40       ?GetFaces@CollisionFaces@Opcode@@QBEPBVCollisionFace@2@XZ 1006ad40 f i ConvexShape.obj
 0001:00069d50       ?SetClosestHit@RayCollider@Opcode@@QAEX_N@Z 1006ad50 f i ConvexShape.obj
 0001:00069d60       ?SetCulling@RayCollider@Opcode@@QAEX_N@Z 1006ad60 f i ConvexShape.obj
 0001:00069d70       ?SetMaxDist@RayCollider@Opcode@@QAEXM@Z 1006ad70 f i ConvexShape.obj
 0001:00069d80       ?SetGeomEpsilon@RayCollider@Opcode@@QAEXM@Z 1006ad80 f i ConvexShape.obj
 0001:00069d90       ?SetDestination@RayCollider@Opcode@@QAEXPAVCollisionFaces@2@@Z 1006ad90 f i ConvexShape.obj
 0001:00069da0       ?getConvexMeshFast@ConvexShape@@QAEAAVConvexMeshRuntime@@XZ 1006ada0 f i ConvexShape.obj
 0001:00069db0       ?getGeomEpsilon@ConvexMesh@@QBEMXZ 1006adb0 f i ConvexShape.obj
 0001:00069dc0       ?getLocalBounds@ConvexMesh@@QBEABVNxBounds3@@XZ 1006adc0 f i ConvexShape.obj
 0001:00069dd0       ?getLocalSphere@ConvexMesh@@QBEABVNxSphere@@XZ 1006add0 f i ConvexShape.obj
 0001:00069de0       ?getNpConvexMeshFast@ConvexMesh@@QAEPAVNpConvexMesh@@XZ 1006ade0 f i ConvexShape.obj
 0001:00069df0       ?getConvexMeshData@ConvexMesh@@QAEPAUPxConvexMeshData_@@XZ 1006adf0 f i ConvexShape.obj
 0001:00069e00       ?NXToICE@@YAABVRay@IceMaths@@ABVNxRay@@@Z 1006ae00 f i ConvexShape.obj
 0001:00069e10       ??DNPhaseContextGrab@@QAEAAVNPhaseContext@@XZ 1006ae10 f i ConvexShape.obj
 0001:00069e20       ??1ConvexShape@@MAE@XZ     1006ae20 f   ConvexShape.obj
 0001:00069e30       ?getShape@ConvexShape@@UAEAAVShape@@XZ 1006ae30 f i ConvexShape.obj
 0001:00069e40       ?getShape@ConvexShape@@UBEABVShape@@XZ 1006ae40 f i ConvexShape.obj
 0001:00069e50       ??BConvexShape@@UAEAAVShape@@XZ 1006ae50 f i ConvexShape.obj
 0001:00069e60       ?getMeshFlags@ConvexShape@@UBEIXZ 1006ae60 f i ConvexShape.obj
 0001:00069e70       ?setMeshFlags@ConvexShape@@UAEXI@Z 1006ae70 f i ConvexShape.obj
 0001:00069e80       ?transformPoint@@YAMIABVPoint@IceMaths@@ABVNxMat34@@@Z 1006ae80 f i ConvexShape.obj
 0001:00069ec0       ?computeHullAABB@@YAXAAVNPhaseContext@@AAVNxBounds3@@ABVNxMat34@@AAVCollisionHull@@@Z 1006aec0 f i ConvexShape.obj
 0001:0006a030       ?computeLocalSphere@ConvexShape@@EBEXAAVNxSphere@@@Z 1006b030 f   ConvexShape.obj
 0001:0006a060       ?computeLocalBounds@ConvexShape@@UBEXAAVNxBounds3@@@Z 1006b060 f   ConvexShape.obj
 0001:0006a0a0       ?getConvexMesh@ConvexShape@@UAEPAVNpConvexMesh@@XZ 1006b0a0 f   ConvexShape.obj
 0001:0006a0b0       ?getNvConvexMesh@ConvexShape@@UAEPAVNvConvexMesh@@XZ 1006b0b0 f   ConvexShape.obj
 0001:0006a0c0       ?getNvConvexMesh@ConvexShape@@UBEPBVNvConvexMesh@@XZ 1006b0c0 f   ConvexShape.obj
 0001:0006a0d0       ?setConvexMesh@ConvexShape@@UAEXPAVNvConvexMesh@@@Z 1006b0d0 f   ConvexShape.obj
 0001:0006a120       ?vertex2World@ConvexShape@@QBEXABVNxVec3@@AAV2@@Z 1006b120 f i ConvexShape.obj
 0001:0006a1c0       ??0ConvexShape@@IAE@ABVNvShapeDesc@@PAVScene@@I@Z 1006b1c0 f   ConvexShape.obj
 0001:0006adc0       ??_EConvexShape@@MAEPAXI@Z 1006bdc0 f i ConvexShape.obj
 0001:0006adc0       ??_GConvexShape@@MAEPAXI@Z 1006bdc0 f i ConvexShape.obj
 0001:0006adf0       ?computeWorldBounds@ConvexShape@@EBEXAAVNxBounds3@@@Z 1006bdf0 f   ConvexShape.obj
 0001:0006b3b0       ?computeWorldSphere@ConvexShape@@EBEXAAVNxSphere@@@Z 1006c3b0 f   ConvexShape.obj
 0001:0006b480       ?visualize@ConvexShape@@UBEXAAVDebugRenderable@NxFoundation@@@Z 1006c480 f   ConvexShape.obj
 0001:0006bd60       ?raycast@ConvexShape@@UBE_NABVNxRay@@MIAAUNxRaycastHit@@_N@Z 1006cd60 f   ConvexShape.obj
 0001:0006cc90       ?checkOverlapSphere@ConvexShape@@UBE_NABVNxSphere@@@Z 1006dc90 f   ConvexShape.obj
 0001:0006d570       ?checkOverlapOBB@ConvexShape@@UBE_NABVNxBox@@@Z 1006e570 f   ConvexShape.obj
 0001:0006de50       ?checkOverlapAABB@ConvexShape@@UBE_NABVNxBounds3@@@Z 1006ee50 f   ConvexShape.obj
 0001:0006e870       ?checkOverlapCapsule@ConvexShape@@UBE_NABVNxCapsule@@@Z 1006f870 f   ConvexShape.obj
 0001:0006f1c0       ?getComShiftCounter@Body@@QBEIXZ 100701c0 f i CylindricalJoint.obj
 0001:0006f1d0       ?localToGlobalSpace@Body@@QBEXABVNxVec3@@AAV2@@Z 100701d0 f i CylindricalJoint.obj
 0001:0006f340       ?globalToLocalSpace@Body@@QBEXABVNxVec3@@AAV2@@Z 10070340 f i CylindricalJoint.obj
 0001:0006f4d0       ?localToGlobalSpaceDirection@Body@@QBEXABVNxVec3@@AAV2@@Z 100704d0 f i CylindricalJoint.obj
 0001:0006f620       ?globalToLocalSpaceDirection@Body@@QBEXABVNxVec3@@AAV2@@Z 10070620 f i CylindricalJoint.obj
 0001:0006f770       ?checkBodySpaceFrames@Joint@@QBE_NXZ 10070770 f i CylindricalJoint.obj
 0001:0006f7e0       ?getLocalAxisFast@Joint@@QBEABVNxVec3@@I@Z 100707e0 f i CylindricalJoint.obj
 0001:0006f800       ?getLocalAnchorFast@Joint@@QBEABVNxVec3@@I@Z 10070800 f i CylindricalJoint.obj
 0001:0006f820       ?getFlag@Joint@@QAE_NI@Z   10070820 f i CylindricalJoint.obj
 0001:0006f840       ?projectOnLine@@YAXABVNxVec3@@00AAV1@@Z 10070840 f i CylindricalJoint.obj
 0001:0006f8c0       ?getRotatedPointsDistance@Joint@@QBEXABVNxVec3@@0AAV2@@Z 100708c0 f i CylindricalJoint.obj
 0001:0006f980       ??0CylindricalJoint@@QAE@ABVNvJointDesc@@ABVNvJointCylindricalDesc@@@Z 10070980 f   CylindricalJoint.obj
 0001:0006f9d0       ?loadFromDesc@NvJoint@@UAEXABVNvJointDesc@@ABVNvJointPrismaticDesc@@@Z 100709d0 f i CylindricalJoint.obj
 0001:0006f9e0       ?loadFromDesc@NvJoint@@UAEXABVNvJointDesc@@ABVNvJointPointOnLineDesc@@@Z 100709e0 f i CylindricalJoint.obj
 0001:0006f9f0       ?loadFromDesc@NvJoint@@UAEXABVNvJointDesc@@ABVNvJointPointOnPlaneDesc@@@Z 100709f0 f i CylindricalJoint.obj
 0001:0006fa00       ?loadFromDesc@NvJoint@@UAEXABVNvJointDesc@@ABVNvJointFixedDesc@@@Z 10070a00 f i CylindricalJoint.obj
 0001:0006fa10       ?loadFromDesc@NvJoint@@UAEXABVNvJointDesc@@ABVNvJointRevoluteDesc@@@Z 10070a10 f i CylindricalJoint.obj
 0001:0006fa20       ?loadFromDesc@NvJoint@@UAEXABVNvJointDesc@@ABVNvJointSphereicalDesc@@@Z 10070a20 f i CylindricalJoint.obj
 0001:0006fa30       ?loadFromDesc@NvJoint@@UAEXABVNvJointDesc@@ABVNvJointDistanceDesc@@@Z 10070a30 f i CylindricalJoint.obj
 0001:0006fa40       ?loadFromDesc@NvJoint@@UAEXABVNvJointDesc@@ABVNvJointPulleyDesc@@@Z 10070a40 f i CylindricalJoint.obj
 0001:0006fa50       ?loadFromDesc@NvJoint@@UAEXABVNvJointDesc@@ABVNvJointD6Desc@@@Z 10070a50 f i CylindricalJoint.obj
 0001:0006fa60       ?setMaxDistance@Joint@@UAEXM@Z 10070a60 f i CylindricalJoint.obj
 0001:0006fa70       ?setMinDistance@Joint@@UAEXM@Z 10070a70 f i CylindricalJoint.obj
 0001:0006fa80       ?setDistanceFlags@Joint@@UAEXI@Z 10070a80 f i CylindricalJoint.obj
 0001:0006fa90       ?getMaxDistance@Joint@@UBEMXZ 10070a90 f i CylindricalJoint.obj
 0001:0006faa0       ?getMinDistance@Joint@@UBEMXZ 10070aa0 f i CylindricalJoint.obj
 0001:0006fab0       ?getDistanceFlags@Joint@@UBEIXZ 10070ab0 f i CylindricalJoint.obj
 0001:0006fac0       ?setPulley@Joint@@UAEXIABVNxVec3@@@Z 10070ac0 f i CylindricalJoint.obj
 0001:0006fad0       ?setTargetDistance@Joint@@UAEXM@Z 10070ad0 f i CylindricalJoint.obj
 0001:0006fae0       ?setStiffness@Joint@@UAEXM@Z 10070ae0 f i CylindricalJoint.obj
 0001:0006faf0       ?setRatio@Joint@@UAEXM@Z   10070af0 f i CylindricalJoint.obj
 0001:0006fb00       ?getPulley@Joint@@UBE?AVNxVec3@@I@Z 10070b00 f i CylindricalJoint.obj
 0001:0006fb10       ?getTargetDistance@Joint@@UBEMXZ 10070b10 f i CylindricalJoint.obj
 0001:0006fb20       ?getStiffness@Joint@@UBEMXZ 10070b20 f i CylindricalJoint.obj
 0001:0006fb30       ?getRatio@Joint@@UBEMXZ    10070b30 f i CylindricalJoint.obj
 0001:0006fb40       ?setLimits@Joint@@UAEXABVNxJointLimitPairDesc@@@Z 10070b40 f i CylindricalJoint.obj
 0001:0006fb50       ?getLimits@Joint@@UAE_NAAVNxJointLimitPairDesc@@@Z 10070b50 f i CylindricalJoint.obj
 0001:0006fb60       ?setMotor@Joint@@UAEXABVNxMotorDesc@@@Z 10070b60 f i CylindricalJoint.obj
 0001:0006fb70       ?getMotor@Joint@@UBE_NAAVNxMotorDesc@@@Z 10070b70 f i CylindricalJoint.obj
 0001:0006fb80       ?setSpring@Joint@@UAEXABVNxSpringDesc@@@Z 10070b80 f i CylindricalJoint.obj
 0001:0006fb90       ?getSpring@Joint@@UBE_NAAVNxSpringDesc@@@Z 10070b90 f i CylindricalJoint.obj
 0001:0006fba0       ?setProjection@Joint@@UAEXMM@Z 10070ba0 f i CylindricalJoint.obj
 0001:0006fbb0       ?getProjection@Joint@@UBEXAAM0@Z 10070bb0 f i CylindricalJoint.obj
 0001:0006fbc0       ?getAngleExternal@Joint@@UBEMXZ 10070bc0 f i CylindricalJoint.obj
 0001:0006fbd0       ?setSphereTwistLimit@Joint@@UAEXABVNxJointLimitPairDesc@@@Z 10070bd0 f i CylindricalJoint.obj
 0001:0006fbe0       ?setSwingLimit@Joint@@UAEXABVNxJointLimitDesc@@@Z 10070be0 f i CylindricalJoint.obj
 0001:0006fbf0       ?setTwistSpring@Joint@@UAEXABVNxSpringDesc@@@Z 10070bf0 f i CylindricalJoint.obj
 0001:0006fc00       ?setSwingSpring@Joint@@UAEXABVNxSpringDesc@@@Z 10070c00 f i CylindricalJoint.obj
 0001:0006fc10       ?setJointSpring@Joint@@UAEXABVNxSpringDesc@@@Z 10070c10 f i CylindricalJoint.obj
 0001:0006fc20       ?setSwingAxis@Joint@@UAEXABVNxVec3@@@Z 10070c20 f i CylindricalJoint.obj
 0001:0006fc30       ?getSwingAxis@Joint@@UBE?AVNxVec3@@XZ 10070c30 f i CylindricalJoint.obj
 0001:0006fc40       ?setProjectionDistance@Joint@@UAEXM@Z 10070c40 f i CylindricalJoint.obj
 0001:0006fc50       ?getProjectionDistance@Joint@@UBEMXZ 10070c50 f i CylindricalJoint.obj
 0001:0006fc60       ?setLinMotion@Joint@@UAEXIABW4NxD6JointMotion@@@Z 10070c60 f i CylindricalJoint.obj
 0001:0006fc70       ?getLinMotion@Joint@@UBE?AW4NxD6JointMotion@@I@Z 10070c70 f i CylindricalJoint.obj
 0001:0006fc80       ?setAngMotion@Joint@@UAEXIABW4NxD6JointMotion@@@Z 10070c80 f i CylindricalJoint.obj
 0001:0006fc90       ?getAngMotion@Joint@@UBE?AW4NxD6JointMotion@@I@Z 10070c90 f i CylindricalJoint.obj
 0001:0006fca0       ?setLinearLimit@Joint@@UAEXABVNxJointLimitSoftDesc@@@Z 10070ca0 f i CylindricalJoint.obj
 0001:0006fcb0       ?setSwing1Limit@Joint@@UAEXABVNxJointLimitSoftDesc@@@Z 10070cb0 f i CylindricalJoint.obj
 0001:0006fcc0       ?setSwing2Limit@Joint@@UAEXABVNxJointLimitSoftDesc@@@Z 10070cc0 f i CylindricalJoint.obj
 0001:0006fcd0       ?setTwistLimit@Joint@@UAEXABVNxJointLimitSoftPairDesc@@@Z 10070cd0 f i CylindricalJoint.obj
 0001:0006fce0       ?setLinDrive@Joint@@UAEXIABVNxJointDriveDesc@@@Z 10070ce0 f i CylindricalJoint.obj
 0001:0006fcf0       ?getLinDrive@Joint@@UBE?AVNxJointDriveDesc@@I@Z 10070cf0 f i CylindricalJoint.obj
 0001:0006fd10       ?setSwingDrive@Joint@@UAEXABVNxJointDriveDesc@@@Z 10070d10 f i CylindricalJoint.obj
 0001:0006fd20       ?getSwingDrive@Joint@@UBE?AVNxJointDriveDesc@@XZ 10070d20 f i CylindricalJoint.obj
 0001:0006fd40       ?setTwistDrive@Joint@@UAEXABVNxJointDriveDesc@@@Z 10070d40 f i CylindricalJoint.obj
 0001:0006fd50       ?getTwistDrive@Joint@@UBE?AVNxJointDriveDesc@@XZ 10070d50 f i CylindricalJoint.obj
 0001:0006fd70       ?setSlerpDrive@Joint@@UAEXABVNxJointDriveDesc@@@Z 10070d70 f i CylindricalJoint.obj
 0001:0006fd80       ?getSlerpDrive@Joint@@UBE?AVNxJointDriveDesc@@XZ 10070d80 f i CylindricalJoint.obj
 0001:0006fda0       ?setFlags@Joint@@UAEXI@Z   10070da0 f i CylindricalJoint.obj
 0001:0006fdb0       ?getFlags@Joint@@UBEIXZ    10070db0 f i CylindricalJoint.obj
 0001:0006fdc0       ?setDrivePQ@Joint@@UAEXABVNxVec3@@ABVNxQuat@@@Z 10070dc0 f i CylindricalJoint.obj
 0001:0006fdd0       ?getDrivePQ@Joint@@UBEXAAVNxVec3@@AAVNxQuat@@@Z 10070dd0 f i CylindricalJoint.obj
 0001:0006fde0       ?setDriveVel@Joint@@UAEXABVNxVec3@@0@Z 10070de0 f i CylindricalJoint.obj
 0001:0006fdf0       ?getDriveVel@Joint@@UBEXAAVNxVec3@@0@Z 10070df0 f i CylindricalJoint.obj
 0001:0006fe00       ?setProjectionParams@Joint@@UAEXMM@Z 10070e00 f i CylindricalJoint.obj
 0001:0006fe10       ?getProjectionParams@Joint@@UBEXAAM0@Z 10070e10 f i CylindricalJoint.obj
 0001:0006fe20       ?setDriveP@Joint@@UAEXABVNxVec3@@@Z 10070e20 f i CylindricalJoint.obj
 0001:0006fe30       ?setDriveQ@Joint@@UAEXABVNxQuat@@@Z 10070e30 f i CylindricalJoint.obj
 0001:0006fe40       ?setDriveLinearVelocity@Joint@@UAEXABVNxVec3@@@Z 10070e40 f i CylindricalJoint.obj
 0001:0006fe50       ?setDriveAngularVelocity@Joint@@UAEXABVNxVec3@@@Z 10070e50 f i CylindricalJoint.obj
 0001:0006fe60       ?setGearRatio@Joint@@UAEXM@Z 10070e60 f i CylindricalJoint.obj
 0001:0006fe70       ?getGearRatio@Joint@@UBEMXZ 10070e70 f i CylindricalJoint.obj
 0001:0006fe80       ?getNextInScene@Joint@@UAEPAVNvJoint@@XZ 10070e80 f i CylindricalJoint.obj
 0001:0006fe90       ?comShiftUpdate@Joint@@UAEXXZ 10070e90 f i CylindricalJoint.obj
 0001:0006fea0       ?getPublicFlags@Joint@@UBEIXZ 10070ea0 f i CylindricalJoint.obj
 0001:0006fed0       ?setNpJoint@Joint@@UAEXPAVNpJoint@@@Z 10070ed0 f i CylindricalJoint.obj
 0001:0006fee0       ?getNpJoint@Joint@@UAEPAVNpJoint@@XZ 10070ee0 f i CylindricalJoint.obj
 0001:0006fef0       ?setProjectionMode@Joint@@UAEXW4NxJointProjectionMode@@@Z 10070ef0 f i CylindricalJoint.obj
 0001:0006ff00       ?getProjectionMode@Joint@@UBE?AW4NxJointProjectionMode@@XZ 10070f00 f i CylindricalJoint.obj
 0001:0006ff10       ?loadFromDesc@CylindricalJoint@@UAEXABVNvJointDesc@@ABVNvJointCylindricalDesc@@@Z 10070f10 f   CylindricalJoint.obj
 0001:0006ff40       ??BCylindricalJoint@@UAEAAVJoint@@XZ 10070f40 f   CylindricalJoint.obj
 0001:0006ff50       ?getJoint@CylindricalJoint@@UAEAAVJoint@@XZ 10070f50 f   CylindricalJoint.obj
 0001:0006ff60       ?isCylindricalJoint@CylindricalJoint@@UAEPAV1@XZ 10070f60 f   CylindricalJoint.obj
 0001:0006ff70       ?disableAxCons@CylindricalJoint@@UAEXXZ 10070f70 f   CylindricalJoint.obj
 0001:0006ffb0       ?visualize@CylindricalJoint@@UAEXAAVDebugRenderable@NxFoundation@@@Z 10070fb0 f   CylindricalJoint.obj
 0001:00070800       ?release@CylindricalJoint@@UAEXXZ 10071800 f   CylindricalJoint.obj
 0001:00070820       ?getSphereTwistLimit@Joint@@UBE?AVNxJointLimitPairDesc@@XZ 10071820 f i CylindricalJoint.obj
 0001:00070850       ?getSwingLimit@Joint@@UBE?AVNxJointLimitDesc@@XZ 10071850 f i CylindricalJoint.obj
 0001:00070880       ?getTwistSpring@Joint@@UBE?AVNxSpringDesc@@XZ 10071880 f i CylindricalJoint.obj
 0001:000708a0       ?getSwingSpring@Joint@@UBE?AVNxSpringDesc@@XZ 100718a0 f i CylindricalJoint.obj
 0001:000708c0       ?getJointSpring@Joint@@UBE?AVNxSpringDesc@@XZ 100718c0 f i CylindricalJoint.obj
 0001:000708e0       ?getLinearLimit@Joint@@UBE?AVNxJointLimitSoftDesc@@XZ 100718e0 f i CylindricalJoint.obj
 0001:00070900       ?getSwing1Limit@Joint@@UBE?AVNxJointLimitSoftDesc@@XZ 10071900 f i CylindricalJoint.obj
 0001:00070920       ?getSwing2Limit@Joint@@UBE?AVNxJointLimitSoftDesc@@XZ 10071920 f i CylindricalJoint.obj
 0001:00070940       ?getTwistLimit@Joint@@UBE?AVNxJointLimitSoftPairDesc@@XZ 10071940 f i CylindricalJoint.obj
 0001:00070970       ?setPublicFlags@Joint@@UAEXI@Z 10071970 f i CylindricalJoint.obj
 0001:000709c0       ??1CylindricalJoint@@UAE@XZ 100719c0 f   CylindricalJoint.obj
 0001:00070a30       ?processToAxisConstraints@CylindricalJoint@@UAEXM@Z 10071a30 f   CylindricalJoint.obj
 0001:00073b90       ??_ECylindricalJoint@@UAEPAXI@Z 10074b90 f i CylindricalJoint.obj
 0001:00073b90       ??_GCylindricalJoint@@UAEPAXI@Z 10074b90 f i CylindricalJoint.obj
 0001:00073bc0       ??KNxVec3@@QBE?AV0@M@Z     10074bc0 f i D6Joint.obj
 0001:00073c00       ?id@NxQuat@@QAEXXZ         10074c00 f i D6Joint.obj
 0001:00073c20       ?setWXYZ@NxQuat@@QAEXMMMM@Z 10074c20 f i D6Joint.obj
 0001:00073c50       ??XNxQuat@@QAEAAV0@M@Z     10074c50 f i D6Joint.obj
 0001:00073c90       ??0NxMat33@@QAE@ABVNxVec3@@00@Z 10074c90 f i D6Joint.obj
 0001:00073cf0       ?getRow@NxMat33@@QBE?AVNxVec3@@H@Z 10074cf0 f i D6Joint.obj
 0001:00073d20       ?getColumn@NxMat33@@QBE?AVNxVec3@@H@Z 10074d20 f i D6Joint.obj
 0001:00073d50       ?star@NxMat33@@QAEXABVNxVec3@@@Z 10074d50 f i D6Joint.obj
 0001:00073da0       ?setToDefault@NxJointLimitSoftDesc@@QAEXXZ 10074da0 f i D6Joint.obj
 0001:00073dc0       ?setToDefault@NxJointLimitSoftPairDesc@@QAEXXZ 10074dc0 f i D6Joint.obj
 0001:00073dd0       ??0NxBitField@@QAE@XZ      10074dd0 f i D6Joint.obj
 0001:00073de0       ??BNxBitField@@QAEIXZ      10074de0 f i D6Joint.obj
 0001:00073df0       ??4NxBitField@@QAEABV0@ABV0@@Z 10074df0 f i D6Joint.obj
 0001:00073e00       ??4NxBitField@@QAEABV0@I@Z 10074e00 f i D6Joint.obj
 0001:00073e10       ??0NxJointDriveDesc@@QAE@XZ 10074e10 f i D6Joint.obj
 0001:00073e30       ?getLocalNormalFast@Joint@@QBEABVNxVec3@@I@Z 10074e30 f i D6Joint.obj
 0001:00073e50       ?getLocalD6Quat@Joint@@QAE?AVNxQuat@@H@Z 10074e50 f i D6Joint.obj
 0001:00074180       ?RotationArc@@YA?AVNxQuat@@ABVNxVec3@@0@Z 10075180 f   D6Joint.obj
 0001:00074270       ??4NxJointDriveDesc@@QAEAAV0@ABV0@@Z 10075270 f i D6Joint.obj
 0001:000742a0       ?loadFromDesc@D6Joint@@UAEXABVNvJointDesc@@ABVNvJointD6Desc@@@Z 100752a0 f   D6Joint.obj
 0001:00074600       ?getJoint@D6Joint@@UAEAAVJoint@@XZ 10075600 f   D6Joint.obj
 0001:00074610       ??BD6Joint@@UAEAAVJoint@@XZ 10075610 f   D6Joint.obj
 0001:00074620       ?isD6Joint@D6Joint@@UAEPAV1@XZ 10075620 f   D6Joint.obj
 0001:00074630       ?release@D6Joint@@UAEXXZ   10075630 f   D6Joint.obj
 0001:00074650       ?setDriveAngularVelocity@D6Joint@@UAEXABVNxVec3@@@Z 10075650 f   D6Joint.obj
 0001:000746f0       ?setDriveLinearVelocity@D6Joint@@UAEXABVNxVec3@@@Z 100756f0 f   D6Joint.obj
 0001:00074790       ?setDriveP@D6Joint@@UAEXABVNxVec3@@@Z 10075790 f   D6Joint.obj
 0001:00074850       ?setDriveQ@D6Joint@@UAEXABVNxQuat@@@Z 10075850 f   D6Joint.obj
 0001:00074900       ?comShiftUpdate@D6Joint@@UAEXXZ 10075900 f   D6Joint.obj
 0001:00074f00       ?setLinAC@D6Joint@@AAEXW4EqType@1@ABVNxVec3@@11MMPAVNxJointLimitSoftDesc@@M@Z 10075f00 f   D6Joint.obj
 0001:00074f10       ?setAngAC@D6Joint@@AAEXW4EqType@1@ABVNxVec3@@MMPAVNxJointLimitSoftDesc@@M@Z 10075f10 f   D6Joint.obj
 0001:00074f20       ?computeJwQ@@YAXQAVNxVec3@@ABVNxQuat@@1@Z 10075f20 f   D6Joint.obj
 0001:000754c0       ?separateSwingTwist@@YAXABVNxQuat@@AAV1@1@Z 100764c0 f   D6Joint.obj
 0001:00075690       ?disableAxCons@D6Joint@@UAEXXZ 10076690 f   D6Joint.obj
 0001:000756d0       ?visualizeSlice@@YAXAAVDebugRenderable@NxFoundation@@ABVNxVec3@@11MMMIH@Z 100766d0 f   D6Joint.obj
 0001:00075940       ?visualizeCone@@YAXAAVDebugRenderable@NxFoundation@@ABVNxVec3@@111MMMIH@Z 10076940 f   D6Joint.obj
 0001:00075ba0       ??0NxJointLimitSoftDesc@@QAE@XZ 10076ba0 f i D6Joint.obj
 0001:00075bc0       ??0NxJointLimitSoftPairDesc@@QAE@XZ 10076bc0 f i D6Joint.obj
 0001:00075bf0       ??0D6Joint@@QAE@ABVNvJointDesc@@ABVNvJointD6Desc@@@Z 10076bf0 f   D6Joint.obj
 0001:000760e0       ?loadFromDesc@NvJoint@@UAEXABVNvJointDesc@@ABVNvJointCylindricalDesc@@@Z 100770e0 f i D6Joint.obj
 0001:000760f0       ?getLinMotion@D6Joint@@UBE?AW4NxD6JointMotion@@I@Z 100770f0 f i D6Joint.obj
 0001:00076110       ?getAngMotion@D6Joint@@UBE?AW4NxD6JointMotion@@I@Z 10077110 f i D6Joint.obj
 0001:00076130       ?getLinearLimit@D6Joint@@UBE?AVNxJointLimitSoftDesc@@XZ 10077130 f i D6Joint.obj
 0001:00076160       ?getSwing1Limit@D6Joint@@UBE?AVNxJointLimitSoftDesc@@XZ 10077160 f i D6Joint.obj
 0001:00076190       ?getSwing2Limit@D6Joint@@UBE?AVNxJointLimitSoftDesc@@XZ 10077190 f i D6Joint.obj
 0001:000761c0       ?getTwistLimit@D6Joint@@UBE?AVNxJointLimitSoftPairDesc@@XZ 100771c0 f i D6Joint.obj
 0001:000761e0       ?getFlags@D6Joint@@UBEIXZ  100771e0 f i D6Joint.obj
 0001:000761f0       ?getDrivePQ@D6Joint@@UBEXAAVNxVec3@@AAVNxQuat@@@Z 100771f0 f i D6Joint.obj
 0001:00076250       ?getDriveVel@D6Joint@@UBEXAAVNxVec3@@0@Z 10077250 f i D6Joint.obj
 0001:000762a0       ?setProjectionParams@D6Joint@@UAEXMM@Z 100772a0 f i D6Joint.obj
 0001:000762c0       ?getProjectionParams@D6Joint@@UBEXAAM0@Z 100772c0 f i D6Joint.obj
 0001:000762f0       ?getGearRatio@D6Joint@@UBEMXZ 100772f0 f i D6Joint.obj
 0001:00076300       ?setLinMotion@D6Joint@@UAEXIABW4NxD6JointMotion@@@Z 10077300 f i D6Joint.obj
 0001:00076330       ?setAngMotion@D6Joint@@UAEXIABW4NxD6JointMotion@@@Z 10077330 f i D6Joint.obj
 0001:00076360       ?setLinearLimit@D6Joint@@UAEXABVNxJointLimitSoftDesc@@@Z 10077360 f i D6Joint.obj
 0001:000763a0       ?setSwing1Limit@D6Joint@@UAEXABVNxJointLimitSoftDesc@@@Z 100773a0 f i D6Joint.obj
 0001:000763e0       ?setSwing2Limit@D6Joint@@UAEXABVNxJointLimitSoftDesc@@@Z 100773e0 f i D6Joint.obj
 0001:00076420       ?setTwistLimit@D6Joint@@UAEXABVNxJointLimitSoftPairDesc@@@Z 10077420 f i D6Joint.obj
 0001:00076450       ?setLinDrive@D6Joint@@UAEXIABVNxJointDriveDesc@@@Z 10077450 f i D6Joint.obj
 0001:00076490       ?setSwingDrive@D6Joint@@UAEXABVNxJointDriveDesc@@@Z 10077490 f i D6Joint.obj
 0001:000764d0       ?setTwistDrive@D6Joint@@UAEXABVNxJointDriveDesc@@@Z 100774d0 f i D6Joint.obj
 0001:00076510       ?setSlerpDrive@D6Joint@@UAEXABVNxJointDriveDesc@@@Z 10077510 f i D6Joint.obj
 0001:00076550       ?setFlags@D6Joint@@UAEXI@Z 10077550 f i D6Joint.obj
 0001:00076570       ?setDrivePQ@D6Joint@@UAEXABVNxVec3@@ABVNxQuat@@@Z 10077570 f i D6Joint.obj
 0001:00076640       ?setDriveVel@D6Joint@@UAEXABVNxVec3@@0@Z 10077640 f i D6Joint.obj
 0001:00076710       ?setGearRatio@D6Joint@@UAEXM@Z 10077710 f i D6Joint.obj
 0001:00076740       ?getLinDrive@D6Joint@@UBE?AVNxJointDriveDesc@@I@Z 10077740 f i D6Joint.obj
 0001:00076780       ?getSwingDrive@D6Joint@@UBE?AVNxJointDriveDesc@@XZ 10077780 f i D6Joint.obj
 0001:000767c0       ?getTwistDrive@D6Joint@@UBE?AVNxJointDriveDesc@@XZ 100777c0 f i D6Joint.obj
 0001:00076800       ?getSlerpDrive@D6Joint@@UBE?AVNxJointDriveDesc@@XZ 10077800 f i D6Joint.obj
 0001:00076840       ??1D6Joint@@UAE@XZ         10077840 f   D6Joint.obj
 0001:000768d0       ?processToAxisConstraints@D6Joint@@UAEXM@Z 100778d0 f   D6Joint.obj
 0001:00076fc0       ?projectPose@D6Joint@@UAEXPAVBody@@@Z 10077fc0 f   D6Joint.obj
 0001:0007bd60       ?visualize@D6Joint@@UAEXAAVDebugRenderable@NxFoundation@@@Z 1007cd60 f   D6Joint.obj
 0001:0007ebb0       ??_GD6Joint@@UAEPAXI@Z     1007fbb0 f i D6Joint.obj
 0001:0007ebb0       ??_ED6Joint@@UAEPAXI@Z     1007fbb0 f i D6Joint.obj
 0001:0007ebe0       ?setToDefault@NxSpringDesc@@QAEXXZ 1007fbe0 f i DistanceJoint.obj
 0001:0007ebf0       ?loadFromDesc@DistanceJoint@@UAEXABVNvJointDesc@@ABVNvJointDistanceDesc@@@Z 1007fbf0 f   DistanceJoint.obj
 0001:0007ec60       ?release@DistanceJoint@@UAEXXZ 1007fc60 f   DistanceJoint.obj
 0001:0007ec80       ?disableAxCons@DistanceJoint@@UAEXXZ 1007fc80 f   DistanceJoint.obj
 0001:0007ecc0       ?visualize@DistanceJoint@@UAEXAAVDebugRenderable@NxFoundation@@@Z 1007fcc0 f   DistanceJoint.obj
 0001:0007ed40       ??0NxSpringDesc@@QAE@XZ    1007fd40 f i DistanceJoint.obj
 0001:0007ed50       ??0DistanceJoint@@QAE@ABVNvJointDesc@@ABVNvJointDistanceDesc@@@Z 1007fd50 f   DistanceJoint.obj
 0001:0007edf0       ?setMaxDistance@DistanceJoint@@UAEXM@Z 1007fdf0 f i DistanceJoint.obj
 0001:0007ee00       ?setMinDistance@DistanceJoint@@UAEXM@Z 1007fe00 f i DistanceJoint.obj
 0001:0007ee10       ?setSpring@DistanceJoint@@UAEXABVNxSpringDesc@@@Z 1007fe10 f i DistanceJoint.obj
 0001:0007ee40       ?setDistanceFlags@DistanceJoint@@UAEXI@Z 1007fe40 f i DistanceJoint.obj
 0001:0007ee50       ?getMaxDistance@DistanceJoint@@UBEMXZ 1007fe50 f i DistanceJoint.obj
 0001:0007ee60       ?getMinDistance@DistanceJoint@@UBEMXZ 1007fe60 f i DistanceJoint.obj
 0001:0007ee70       ?getSpring@DistanceJoint@@UBE_NAAVNxSpringDesc@@@Z 1007fe70 f i DistanceJoint.obj
 0001:0007eea0       ?getDistanceFlags@DistanceJoint@@UBEIXZ 1007fea0 f i DistanceJoint.obj
 0001:0007eeb0       ??1DistanceJoint@@UAE@XZ   1007feb0 f   DistanceJoint.obj
 0001:0007ef40       ?processToAxisConstraints@DistanceJoint@@UAEXM@Z 1007ff40 f   DistanceJoint.obj
 0001:0007fd10       ??_EDistanceJoint@@UAEPAXI@Z 10080d10 f i DistanceJoint.obj
 0001:0007fd10       ??_GDistanceJoint@@UAEPAXI@Z 10080d10 f i DistanceJoint.obj
 0001:0007fd40       ?pointBoxSqrDist@@YAMABVNxVec3@@00ABVNxMat33@@PAV1@@Z 10080d40 f   DistancePointBox.obj
 0001:0007ff40       ?pointTriangleSqrDist@@YAMABVNxVec3@@000PAM1@Z 10080f40 f   DistancePointTriangle.obj
 0001:000805c0       ?computeDirection@NxSegment@@QBE?AVNxVec3@@XZ 100815c0 f i DistanceSegmentBox.obj
 0001:000813e0       ?sqrDistance@@YAMABVNxRay@@ABVNxBox@@PAM222@Z 100823e0 f   DistanceSegmentBox.obj
 0001:00081740       ?segmentBoxSqrDist@@YAMABVNxSegment@@ABVNxVec3@@1ABVNxMat33@@PAMPAV2@@Z 10082740 f   DistanceSegmentBox.obj
 0001:000818f0       ?segmentSegmentSqrDist@@YAMABVNxSegment@@0PAM1@Z 100828f0 f   DistanceSegmentSegment.obj
 0001:000821f0       ?edgeEdgeDist@@YAXAAVNxVec3@@0ABV1@111@Z 100831f0 f   DistanceSegmentSegment.obj
 0001:00082550       ??0NxRay@@QAE@XZ           10083550 f i DistanceSegmentTriangle.obj
 0001:00082560       ?segmentRaySqrDist@@YAMABVNxSegment@@ABVNxRay@@PAM2@Z 10083560 f i DistanceSegmentTriangle.obj
 0001:000825e0       ?segmentTriangleSqrDist@@YAMABVNxSegment@@ABVNxVec3@@11PAM22@Z 100835e0 f   DistanceSegmentTriangle.obj
 0001:00083eb0       _atan2f                    10084eb0 f i EdgeList.obj
 0001:00083ec0       ?GetRanks@RadixSort@IceCore@@QBEPBIXZ 10084ec0 f i EdgeList.obj
 0001:00083ed0       ?Magnitude@Point@IceMaths@@QBEMXZ 10084ed0 f i EdgeList.obj
 0001:00083f00       ??0Triangle@IceMaths@@QAE@ABVPoint@1@00@Z 10084f00 f i EdgeList.obj
 0001:00083f80       ??0EdgeList@NxPhysics@@QAE@XZ 10084f80 f   EdgeList.obj
 0001:00083fa0       ??1EdgeList@NxPhysics@@QAE@XZ 10084fa0 f   EdgeList.obj
 0001:00084030       ?Load@EdgeList@NxPhysics@@QAE_NABVStream@IceCore@@@Z 10085030 f   EdgeList.obj
 0001:00084190       ?CreateFacesToEdges@EdgeListBuilder@NxPhysics@@AAE_NIPBIPBG@Z 10085190 f   EdgeList.obj
 0001:000845f0       ?CreateEdgesToFaces@EdgeListBuilder@NxPhysics@@AAE_NIPBIPBG@Z 100855f0 f   EdgeList.obj
 0001:00084830       ?OppositeVertex@@YAIIIIII@Z 10085830 f i EdgeList.obj
 0001:00084900       ?ComputeActiveEdges@EdgeListBuilder@NxPhysics@@AAE_NIPBIPBGPBVPoint@IceMaths@@M@Z 10085900 f   EdgeList.obj
 0001:000854d0       ??0EdgeListBuilder@NxPhysics@@QAE@XZ 100864d0 f   EdgeList.obj
 0001:000854f0       ??1EdgeListBuilder@NxPhysics@@QAE@XZ 100864f0 f   EdgeList.obj
 0001:00085500       ?Init@EdgeListBuilder@NxPhysics@@QAE_NABUEDGELISTCREATE@2@@Z 10086500 f   EdgeList.obj
 0001:00085630       ??1NvSpringAndDamperEffector@@IAE@XZ 10086630 f i Effector.obj
 0001:00085640       ??0NvSpringAndDamperEffector@@QAE@XZ 10086640 f i Effector.obj
 0001:00085650       ?getNvScene@Effector@@UAEAAVNvScene@@XZ 10086650 f   Effector.obj
 0001:00085660       ?getScene@Effector@@QBEAAVScene@@XZ 10086660 f   Effector.obj
 0001:00085670       ??1Effector@@UAE@XZ        10086670 f   Effector.obj
 0001:000856f0       ??0Effector@@QAE@AAVScene@@@Z 100866f0 f   Effector.obj
 0001:00085730       ??_GEffector@@UAEPAXI@Z    10086730 f i Effector.obj
 0001:00085730       ??_EEffector@@UAEPAXI@Z    10086730 f i Effector.obj
 0001:00085760       ??0NxGroupsMask@@QAE@XZ    10086760 f i Filtering.obj
 0001:00085770       ??1NxGroupsMask@@QAE@XZ    10086770 f i Filtering.obj
 0001:00085780       ?getU32CollisionFlag@Scene@@QBEIII@Z 10086780 f i Filtering.obj
 0001:000857d0       ?filterFunction@Scene@@QBEHABVNxGroupsMask@@0@Z 100867d0 f i Filtering.obj
 0001:000858a0       ?getActorPublicFlagsFast@Shape@@QBEIXZ 100868a0 f i Filtering.obj
 0001:000858b0       ?getGroupsMaskFast@Shape@@QBEABVNxGroupsMask@@XZ 100868b0 f i Filtering.obj
 0001:000858c0       ?getCollisionGroupFast@Shape@@QBEGXZ 100868c0 f i Filtering.obj
 0001:000858d0       ?needContacts@Scene@@QBE_NABVShape@@0@Z 100868d0 f   Filtering.obj
 0001:00085a30       ?needPairContacts@Scene@@QAE_NPBVShape@@0@Z 10086a30 f   Filtering.obj
 0001:00085e10       ?zero@NxQuat@@QAEXXZ       10086e10 f i FixedJoint.obj
 0001:00085e30       ??XNxQuat@@QAEAAV0@ABV0@@Z 10086e30 f i FixedJoint.obj
 0001:00085ef0       ?hasConstraints@FixedJoint@@AAE_NXZ 10086ef0 f i FixedJoint.obj
 0001:00085f10       ?loadFromDesc@FixedJoint@@UAEXABVNvJointDesc@@ABVNvJointFixedDesc@@@Z 10086f10 f   FixedJoint.obj
 0001:00085f80       ?disableAxCons@FixedJoint@@UAEXXZ 10086f80 f   FixedJoint.obj
 0001:00085fc0       ?release@FixedJoint@@UAEXXZ 10086fc0 f   FixedJoint.obj
 0001:00085fe0       ?comShiftUpdate@FixedJoint@@UAEXXZ 10086fe0 f   FixedJoint.obj
 0001:00086450       ?visualize@FixedJoint@@UAEXAAVDebugRenderable@NxFoundation@@@Z 10087450 f   FixedJoint.obj
 0001:000864d0       ??0FixedJoint@@QAE@ABVNvJointDesc@@ABVNvJointFixedDesc@@@Z 100874d0 f   FixedJoint.obj
 0001:000865b0       ??1FixedJoint@@UAE@XZ      100875b0 f   FixedJoint.obj
 0001:00086620       ?processToAxisConstraints@FixedJoint@@UAEXM@Z 10087620 f   FixedJoint.obj
 0001:00087cd0       ??_EFixedJoint@@UAEPAXI@Z  10088cd0 f i FixedJoint.obj
 0001:00087cd0       ??_GFixedJoint@@UAEPAXI@Z  10088cd0 f i FixedJoint.obj
 0001:00087d00       ??0NxFPUGuard@@QAE@XZ      10088d00 f   FPUGuard.obj
 0001:00087d20       ??1NxFPUGuard@@QAE@XZ      10088d20 f   FPUGuard.obj
 0001:00087d40       ?ResetFPU@NxFPUGuard@@QAEXXZ 10088d40 f   FPUGuard.obj
 0001:00087d70       ??1NvHeightField@@IAE@XZ   10088d70 f i HeightField.obj
 0001:00087d80       ?isValid@NxHeightFieldDesc@@QBE_NXZ 10088d80 f i HeightField.obj
 0001:00087dd0       ??0NvHeightField@@QAE@XZ   10088dd0 f i HeightField.obj
 0001:00087de0       ?saveToDesc@HeightField@@UBE_NAAVNxHeightFieldDesc@@@Z 10088de0 f   HeightField.obj
 0001:00087e30       ?saveCells@HeightField@@UBEIPAXI@Z 10088e30 f   HeightField.obj
 0001:00087e80       ?releaseMemory@HeightField@@IAEXXZ 10088e80 f   HeightField.obj
 0001:00087eb0       ??0HeightField@@QAE@XZ     10088eb0 f   HeightField.obj
 0001:00087ee0       ?getNpHeightField@HeightField@@UAEPAVNpHeightField@@XZ 10088ee0 f i HeightField.obj
 0001:00087ef0       ?setNpHeightField@HeightField@@UAEXPAVNpHeightField@@@Z 10088ef0 f i HeightField.obj
 0001:00087f00       ?getCellsV@HeightField@@UBEPBXXZ 10088f00 f i HeightField.obj
 0001:00087f10       ?getNbRowsV@HeightField@@UBEIXZ 10088f10 f i HeightField.obj
 0001:00087f20       ?getNbColumnsV@HeightField@@UBEIXZ 10088f20 f i HeightField.obj
 0001:00087f30       ?getFormatV@HeightField@@UBE?AW4NxHeightFieldFormat@@XZ 10088f30 f i HeightField.obj
 0001:00087f40       ?getSampleStrideV@HeightField@@UBEIXZ 10088f40 f i HeightField.obj
 0001:00087f50       ?getVerticalExtentV@HeightField@@UBEMXZ 10088f50 f i HeightField.obj
 0001:00087f60       ?getConvexEdgeThresholdV@HeightField@@UBEMXZ 10088f60 f i HeightField.obj
 0001:00087f70       ?getFlagsV@HeightField@@UBEIXZ 10088f70 f i HeightField.obj
 0001:00087f80       ?getHeightV@HeightField@@UBEMMM@Z 10088f80 f i HeightField.obj
 0001:000882e0       ??1HeightField@@QAE@XZ     100892e0 f   HeightField.obj
 0001:00088360       ??_GHeightField@@QAEPAXI@Z 10089360 f i HeightField.obj
 0001:00088390       ?loadFromDesc@HeightField@@UAE_NABVNxHeightFieldDesc@@@Z 10089390 f   HeightField.obj
 0001:00088550       ?release@HeightField@@UAEXXZ 10089550 f   HeightField.obj
 0001:00088570       ??DNxMat33@@QBE?AV0@ABV0@@Z 10089570 f i HeightFieldShape.obj
 0001:000886c0       ?GetRot@NxBox@@QBEABVNxMat33@@XZ 100896c0 f i HeightFieldShape.obj
 0001:000886d0       ?getFormat@HeightField@@QBE?AW4NxHeightFieldFormat@@XZ 100896d0 f i HeightFieldShape.obj
 0001:000886e0       ?getSampleStride@HeightField@@QBEIXZ 100896e0 f i HeightFieldShape.obj
 0001:000886f0       ?getConvexEdgeThreshold@HeightField@@QBEMXZ 100896f0 f i HeightFieldShape.obj
 0001:00088700       ?getFlags@HeightField@@QBEIXZ 10089700 f i HeightFieldShape.obj
 0001:00088710       ?getMinHeight@HeightField@@QBEMXZ 10089710 f i HeightFieldShape.obj
 0001:00088720       ?getMaxHeight@HeightField@@QBEMXZ 10089720 f i HeightFieldShape.obj
 0001:00088730       ?isValidVertex@HeightField@@QBE_NI@Z 10089730 f i HeightFieldShape.obj
 0001:00088750       ?getMaterialIndex0@HeightField@@QBEGI@Z 10089750 f i HeightFieldShape.obj
 0001:00088770       ?getMaterialIndex1@HeightField@@QBEGI@Z 10089770 f i HeightFieldShape.obj
 0001:00088790       ?getVertex@HeightField@@QBE?AVNxVec3@@I@Z 10089790 f i HeightFieldShape.obj
 0001:00088800       ?getVertexEdgeIndices@HeightField@@QBEXIQAIAAI@Z 10089800 f i HeightFieldShape.obj
 0001:00088970       ?isConvexVertex@HeightField@@QBE_NI@Z 10089970 f i HeightFieldShape.obj
 0001:00088b70       ?isValidEdge@HeightField@@QBE_NI@Z 10089b70 f i HeightFieldShape.obj
 0001:00088bf0       ?getEdgeTriangleIndices@HeightField@@QBEXIQAIAAI@Z 10089bf0 f i HeightFieldShape.obj
 0001:00088d40       ?getEdgeVertexIndices@HeightField@@QBEXIAAI0@Z 10089d40 f i HeightFieldShape.obj
 0001:00088df0       ?isConvexEdge@HeightField@@QBE_NI@Z 10089df0 f i HeightFieldShape.obj
 0001:00089170       ?isValidTriangle@HeightField@@QBE_NI@Z 1008a170 f i HeightFieldShape.obj
 0001:000891b0       ?isFirstTriangle@HeightField@@QBE_NI@Z 1008a1b0 f i HeightFieldShape.obj
 0001:000891c0       ?getTriangleMaterial@HeightField@@QBEGI@Z 1008a1c0 f i HeightFieldShape.obj
 0001:00089200       ?getTriangleVertexIndices@HeightField@@QBEXIAAI00@Z 1008a200 f i HeightFieldShape.obj
 0001:000892e0       ?getTriangleEdgeIndices@HeightField@@QBEXIAAI00@Z 1008a2e0 f i HeightFieldShape.obj
 0001:000893c0       ?getTriangleNormal@HeightField@@QBE?AVNxVec3@@I@Z 1008a3c0 f i HeightFieldShape.obj
 0001:00089540       ?getNormal@HeightField@@QBE?AVNxVec3@@MM@Z 1008a540 f i HeightFieldShape.obj
 0001:00089840       ?getTriangleIndex@HeightField@@QBEIMM@Z 1008a840 f i HeightFieldShape.obj
 0001:00089960       ?getMaterialIndexHighBits@HeightFieldShape@@QBEGXZ 1008a960 f i HeightFieldShape.obj
 0001:00089970       ?hf2shapep@HeightFieldShape@@QBE?AVNxVec3@@ABV2@@Z 1008a970 f i HeightFieldShape.obj
 0001:000899b0       ?hf2shapen@HeightFieldShape@@QBE?AVNxVec3@@ABV2@@Z 1008a9b0 f i HeightFieldShape.obj
 0001:000899f0       ??0RayCastCallback@@QAE@XZ 1008a9f0 f i HeightFieldShape.obj
 0001:00089a00       ??1HeightFieldShape@@MAE@XZ 1008aa00 f   HeightFieldShape.obj
 0001:00089a10       ?getShape@HeightFieldShape@@UAEAAVShape@@XZ 1008aa10 f i HeightFieldShape.obj
 0001:00089a20       ?getShape@HeightFieldShape@@UBEABVShape@@XZ 1008aa20 f i HeightFieldShape.obj
 0001:00089a30       ??BHeightFieldShape@@UAEAAVShape@@XZ 1008aa30 f i HeightFieldShape.obj
 0001:00089a40       ?getMeshFlagsV@HeightFieldShape@@UBEIXZ 1008aa40 f i HeightFieldShape.obj
 0001:00089a50       ?getMeshFlags@HeightFieldShape@@UBEIXZ 1008aa50 f i HeightFieldShape.obj
 0001:00089a60       ?computeLocalBounds@HeightFieldShape@@UBEXAAVNxBounds3@@@Z 1008aa60 f   HeightFieldShape.obj
 0001:00089c10       ?setMeshFlags@HeightFieldShape@@UAEXI@Z 1008ac10 f   HeightFieldShape.obj
 0001:00089c90       ?setHeightScale@HeightFieldShape@@UAEXM@Z 1008ac90 f   HeightFieldShape.obj
 0001:00089d70       ?setRowScale@HeightFieldShape@@UAEXM@Z 1008ad70 f   HeightFieldShape.obj
 0001:00089e50       ?setColumnScale@HeightFieldShape@@UAEXM@Z 1008ae50 f   HeightFieldShape.obj
 0001:00089f30       ?setMaterialIndexHighBits@HeightFieldShape@@UAEXG@Z 1008af30 f   HeightFieldShape.obj
 0001:00089f80       ?setHoleMaterial@HeightFieldShape@@UAEXG@Z 1008af80 f   HeightFieldShape.obj
 0001:0008a000       ?getHeightField@HeightFieldShape@@UAEPAVNpHeightField@@XZ 1008b000 f   HeightFieldShape.obj
 0001:0008a010       ?getNvHeightField@HeightFieldShape@@UAEPAVNvHeightField@@XZ 1008b010 f   HeightFieldShape.obj
 0001:0008a020       ?getNvHeightField@HeightFieldShape@@UBEPBVNvHeightField@@XZ 1008b020 f   HeightFieldShape.obj
 0001:0008a030       ?setHeightField@HeightFieldShape@@UAEXPAVNvHeightField@@@Z 1008b030 f   HeightFieldShape.obj
 0001:0008a060       ?clipShapeNormalToEdgeVoronoi@HeightFieldShape@@QBE_NAAVNxVec3@@I@Z 1008b060 f   HeightFieldShape.obj
 0001:0008b660       ?clipShapeNormalToVertexVoronoi@HeightFieldShape@@QBE_NAAVNxVec3@@I@Z 1008c660 f   HeightFieldShape.obj
 0001:0008bad0       ?isBoundaryEdge@HeightFieldShape@@QBE_NI@Z 1008cad0 f   HeightFieldShape.obj
 0001:0008bd50       ?isCollisionEdge@HeightFieldShape@@QBE_NI@Z 1008cd50 f   HeightFieldShape.obj
 0001:0008c330       ?isCollisionVertex@HeightFieldShape@@QBE_NI@Z 1008d330 f   HeightFieldShape.obj
 0001:0008c9f0       ?getFeatureIndexAtShapePoint@HeightFieldShape@@QBEIMM@Z 1008d9f0 f   HeightFieldShape.obj
 0001:0008cc30       ?getEdgeFeatureIndex@HeightFieldShape@@QBEII@Z 1008dc30 f   HeightFieldShape.obj
 0001:0008ceb0       ?getVertexFeatureIndex@HeightFieldShape@@QBEII@Z 1008deb0 f   HeightFieldShape.obj
 0001:0008d020       ?getEdge@HeightFieldShape@@QBEXIAAVNxVec3@@0@Z 1008e020 f   HeightFieldShape.obj
 0001:0008d3d0       ?getEdgeDirection@HeightFieldShape@@QBE?AVNxVec3@@I@Z 1008e3d0 f   HeightFieldShape.obj
 0001:0008d5f0       ?findClosestPointOnEdge@HeightFieldShape@@QBEMIABVNxVec3@@AAV2@@Z 1008e5f0 f   HeightFieldShape.obj
 0001:0008db40       ?findProjectionOnTriangle@HeightFieldShape@@QBE_NIABVNxVec3@@AAV2@@Z 1008eb40 f   HeightFieldShape.obj
 0001:0008df70       ?getHeightScaleV@HeightFieldShape@@UBEMXZ 1008ef70 f i HeightFieldShape.obj
 0001:0008df80       ?getRowScaleV@HeightFieldShape@@UBEMXZ 1008ef80 f i HeightFieldShape.obj
 0001:0008df90       ?getColumnScaleV@HeightFieldShape@@UBEMXZ 1008ef90 f i HeightFieldShape.obj
 0001:0008dfa0       ?getMaterialIndexHighBitsV@HeightFieldShape@@UBEGXZ 1008efa0 f i HeightFieldShape.obj
 0001:0008dfb0       ?getHoleMaterialV@HeightFieldShape@@UBEGXZ 1008efb0 f i HeightFieldShape.obj
 0001:0008dfc0       ?isShapePointOnHeightFieldV@HeightFieldShape@@UBE_NMM@Z 1008efc0 f i HeightFieldShape.obj
 0001:0008e070       ?getHeightAtShapePointV@HeightFieldShape@@UBEMMM@Z 1008f070 f i HeightFieldShape.obj
 0001:0008e410       ?getMaterialAtShapePointV@HeightFieldShape@@UBEGMM@Z 1008f410 f i HeightFieldShape.obj
 0001:0008e530       ?getNormalAtShapePoint@HeightFieldShape@@QBE?AVNxVec3@@MM@Z 1008f530 f i HeightFieldShape.obj
 0001:0008e870       ?hf2worldp@HeightFieldShape@@QBE?AVNxVec3@@ABV2@@Z 1008f870 f i HeightFieldShape.obj
 0001:0008e940       ?hf2worldn@HeightFieldShape@@QBE?AVNxVec3@@ABV2@@Z 1008f940 f i HeightFieldShape.obj
 0001:0008e9f0       ?shape2worldp@HeightFieldShape@@QBE?AVNxVec3@@ABV2@@Z 1008f9f0 f i HeightFieldShape.obj
 0001:0008ea90       ?shape2worldn@HeightFieldShape@@QBE?AVNxVec3@@ABV2@@Z 1008fa90 f i HeightFieldShape.obj
 0001:0008eb00       ?contact@RayCastCallback@@QAE_NABVHeightFieldShape@@IIIMMMM@Z 1008fb00 f i HeightFieldShape.obj
 0001:0008ecf0       ??0HeightFieldShape@@IAE@ABVNvShapeDesc@@PAVScene@@I@Z 1008fcf0 f   HeightFieldShape.obj
 0001:0008fa70       ??_GHeightFieldShape@@MAEPAXI@Z 10090a70 f i HeightFieldShape.obj
 0001:0008fa70       ??_EHeightFieldShape@@MAEPAXI@Z 10090a70 f i HeightFieldShape.obj
 0001:0008faa0       ?computeWorldBounds@HeightFieldShape@@EBEXAAVNxBounds3@@@Z 10090aa0 f   HeightFieldShape.obj
 0001:0008fcb0       ?computeWorldSphere@HeightFieldShape@@EBEXAAVNxSphere@@@Z 10090cb0 f   HeightFieldShape.obj
 0001:0008fd60       ?overlapAABBTriangles@HeightFieldShape@@UBE_NVNxBounds3@@IAAIAAPBI@Z 10090d60 f   HeightFieldShape.obj
 0001:00090bd0       ?overlapAABBTrianglesCount@HeightFieldShape@@UBEIVNxBounds3@@I@Z 10091bd0 f   HeightFieldShape.obj
 0001:00091230       ?checkOverlapSphere@HeightFieldShape@@UBE_NABVNxSphere@@@Z 10092230 f   HeightFieldShape.obj
 0001:00091400       ?checkOverlapOBB@HeightFieldShape@@UBE_NABVNxBox@@@Z 10092400 f   HeightFieldShape.obj
 0001:00091650       ?checkOverlapAABB@HeightFieldShape@@UBE_NABVNxBounds3@@@Z 10092650 f   HeightFieldShape.obj
 0001:000918e0       ?checkOverlapCapsule@HeightFieldShape@@UBE_NABVNxCapsule@@@Z 100928e0 f   HeightFieldShape.obj
 0001:00091b50       ?getTriangle@HeightFieldShape@@UBEIAAVNxTriangle@@PAV2@PAII_N3@Z 10092b50 f   HeightFieldShape.obj
 0001:000934e0       ?getVertexNormal@HeightFieldShape@@QBE?AVNxVec3@@I@Z 100944e0 f   HeightFieldShape.obj
 0001:00093d00       ?findClosestPointsOnCell@HeightFieldShape@@QBEIIIVNxVec3@@PAV2@PAI_N@Z 10094d00 f   HeightFieldShape.obj
 0001:00094480       ??$uintercept@VRayCastCallback@@@HeightFieldShape@@ABE_NHHMMPAVRayCastCallback@@@Z 10095480 f i HeightFieldShape.obj
 0001:00094560       ??$vintercept@VRayCastCallback@@@HeightFieldShape@@ABE_NHHMMPAVRayCastCallback@@@Z 10095560 f i HeightFieldShape.obj
 0001:00094640       ??$dintercept0@VRayCastCallback@@@HeightFieldShape@@ABE_NHHMMMPAVRayCastCallback@@@Z 10095640 f i HeightFieldShape.obj
 0001:00094750       ??$dintercept1@VRayCastCallback@@@HeightFieldShape@@ABE_NHHMMMPAVRayCastCallback@@@Z 10095750 f i HeightFieldShape.obj
 0001:00094860       ?getNormalAtShapePointV@HeightFieldShape@@UBE?AVNxVec3@@MM@Z 10095860 f i HeightFieldShape.obj
 0001:00094c80       ?computeLocalSphere@HeightFieldShape@@EBEXAAVNxSphere@@@Z 10095c80 f   HeightFieldShape.obj
 0001:00094d70       ?getSmoothNormalAtShapePoint@HeightFieldShape@@QBE?AVNxVec3@@MM@Z 10095d70 f   HeightFieldShape.obj
 0001:000952a0       ??$traceLine@VRayCastCallback@@@HeightFieldShape@@QBEXABVNxVec3@@0PAVRayCastCallback@@@Z 100962a0 f i HeightFieldShape.obj
 0001:000960f0       ?getSmoothNormalAtShapePointV@HeightFieldShape@@UBE?AVNxVec3@@MM@Z 100970f0 f i HeightFieldShape.obj
 0001:00096200       ?visualize@HeightFieldShape@@UBEXAAVDebugRenderable@NxFoundation@@@Z 10097200 f   HeightFieldShape.obj
 0001:00097810       ?raycast@HeightFieldShape@@UBE_NABVNxRay@@MIAAUNxRaycastHit@@_N@Z 10098810 f   HeightFieldShape.obj
 0001:00099bf0       ?GetValencies@Valencies@@QBEPBUPxValency@@XZ 1009abf0 f i HillClimbing.obj
 0001:00099c00       ?GetAdjacentVerts@Valencies@@QBEPBEXZ 1009ac00 f i HillClimbing.obj
 0001:00099c10       _ComputeSupportingVertex   1009ac10 f   HillClimbing.obj
 0001:00099e60       _LocalSearch               1009ae60 f   HillClimbing.obj
 0001:00099f80       _LocalSearchTimestamps     1009af80 f   HillClimbing.obj
 0001:0009a0e0       ??_UAllocateable@IceCore@@SAPAXIW4MemoryType@1@@Z 1009b0e0 f i IceAdjacencies.obj
 0001:0009a100       ??_VAllocateable@IceCore@@SAXPAX@Z 1009b100 f i IceAdjacencies.obj
 0001:0009a120       ??_VAllocateable@IceCore@@SAXPAXW4MemoryType@1@@Z 1009b120 f i IceAdjacencies.obj
 0001:0009a140       ?SquareDistance@Point@IceMaths@@QBEMABV12@@Z 1009b140 f i IceAdjacencies.obj
 0001:0009a180       ??0IndexedTriangle@IceMaths@@QAE@XZ 1009b180 f i IceAdjacencies.obj
 0001:0009a190       ?HasActiveEdge01@PxEdgeTriangleAC@@SA_NABUPxEdgeTriangleData@@@Z 1009b190 f i IceAdjacencies.obj
 0001:0009a1a0       ?HasActiveEdge12@PxEdgeTriangleAC@@SA_NABUPxEdgeTriangleData@@@Z 1009b1a0 f i IceAdjacencies.obj
 0001:0009a1b0       ?HasActiveEdge20@PxEdgeTriangleAC@@SA_NABUPxEdgeTriangleData@@@Z 1009b1b0 f i IceAdjacencies.obj
 0001:0009a1c0       ??0AdjTriangle@@QAE@XZ     1009b1c0 f i IceAdjacencies.obj
 0001:0009a1d0       ??1AdjTriangle@@QAE@XZ     1009b1d0 f i IceAdjacencies.obj
 0001:0009a1e0       ?Flip@AdjTriangle@@QAEXXZ  1009b1e0 f   IceAdjacencies.obj
 0001:0009a200       ?ComputeNbBoundaryEdges@AdjTriangle@@QBEIXZ 1009b200 f   IceAdjacencies.obj
 0001:0009a250       ?ComputeNbNeighbors@AdjTriangle@@QBEIXZ 1009b250 f   IceAdjacencies.obj
 0001:0009a2a0       ?HasNeighbor@AdjTriangle@@QBE_NIPAI@Z 1009b2a0 f   IceAdjacencies.obj
 0001:0009a340       ??0Adjacencies@@QAE@XZ     1009b340 f   IceAdjacencies.obj
 0001:0009a360       ??_EAdjTriangle@@QAEPAXI@Z 1009b360 f i IceAdjacencies.obj
 0001:0009a3d0       ?ComputeNbBoundaryEdges@Adjacencies@@QBEIXZ 1009b3d0 f   IceAdjacencies.obj
 0001:0009a450       ?GetBoundaryVertices@Adjacencies@@QBE_NIPA_NPBVIndexedTriangle@IceMaths@@@Z 1009b450 f   IceAdjacencies.obj
 0001:0009a600       ?AssignNewEdgeCode@Adjacencies@@AAEXIE@Z 1009b600 f   IceAdjacencies.obj
 0001:0009a650       ?MakeLastRef@Adjacencies@@QAE_NAAVAdjTriangle@@IPAVIndexedTriangle@IceMaths@@@Z 1009b650 f   IceAdjacencies.obj
 0001:0009a7f0       ?_WalkFace@Local@?2??Walk@Adjacencies@@QAE_NP6AXABUCommonWalkParams@@IIII@ZPAX@Z@SAXAAUPrivateWalkParams@3@IIII@Z 1009b7f0 f   IceAdjacencies.obj
 0001:0009a8f0       ??0PrivateWalkParams@?1??Walk2@Adjacencies@@QAE_NP6AXABUCommonWalkParams@@IIII@ZPAXPBVPoint@IceMaths@@PBVIndexedTriangle@5@@Z@QAE@XZ 1009b8f0 f i IceAdjacencies.obj
 0001:0009a900       ??1PrivateWalkParams@?1??Walk2@Adjacencies@@QAE_NP6AXABUCommonWalkParams@@IIII@ZPAXPBVPoint@IceMaths@@PBVIndexedTriangle@5@@Z@QAE@XZ 1009b900 f i IceAdjacencies.obj
 0001:0009a910       ?GetUsedRam@Adjacencies@@QBEIXZ 1009b910 f   IceAdjacencies.obj
 0001:0009a930       ?Load@Adjacencies@@QAE_NABVStream@IceCore@@@Z 1009b930 f   IceAdjacencies.obj
 0001:0009aa50       ??0AdjEdge@@QAE@XZ         1009ba50 f i IceAdjacencies.obj
 0001:0009aa60       ??1AdjEdge@@QAE@XZ         1009ba60 f i IceAdjacencies.obj
 0001:0009afb0       ??_EAdjEdge@@QAEPAXI@Z     1009bfb0 f i IceAdjacencies.obj
 0001:0009b020       ??$TSwap@I@IceCore@@YAXAAI0@Z 1009c020 f i IceAdjacencies.obj
 0001:0009b040       ??1Adjacencies@@QAE@XZ     1009c040 f   IceAdjacencies.obj
 0001:0009b090       ?Walk@Adjacencies@@QAE_NP6AXABUCommonWalkParams@@IIII@ZPAX@Z 1009c090 f   IceAdjacencies.obj
 0001:0009b190       ?_WalkFace@Local@?2??Walk2@Adjacencies@@QAE_NP6AXABUCommonWalkParams@@IIII@ZPAXPBVPoint@IceMaths@@PBVIndexedTriangle@6@@Z@SAXAAUPrivateWalkParams@3@IIII@Z 1009c190 f   IceAdjacencies.obj
 0001:0009b520       ??0AdjacenciesBuilder@@QAE@XZ 1009c520 f   IceAdjacencies.obj
 0001:0009b540       ??1AdjacenciesBuilder@@QAE@XZ 1009c540 f   IceAdjacencies.obj
 0001:0009b590       ?Init@AdjacenciesBuilder@@QAE_NABUADJACENCIESCREATE@@@Z 1009c590 f   IceAdjacencies.obj
 0001:0009b990       ?Walk2@Adjacencies@@QAE_NP6AXABUCommonWalkParams@@IIII@ZPAXPBVPoint@IceMaths@@PBVIndexedTriangle@4@@Z 1009c990 f   IceAdjacencies.obj
 0001:0009baf0       _GetCubeColor              1009caf0 f   IceCubeIndex.obj
 0001:0009bb00       _CubemapLookup             1009cb00 f   IceCubeIndex.obj
 0001:0009bbb0       _ComputeUnitCubeImpact     1009cbb0 f   IceCubeIndex.obj
 0001:0009bcd0       _GetCubeNormal             1009ccd0 f   IceCubeIndex.obj
 0001:0009bee0       _GetCubeExtent0            1009cee0 f   IceCubeIndex.obj
 0001:0009c0f0       _GetCubeExtent1            1009d0f0 f   IceCubeIndex.obj
 0001:0009c300       ?ComputeCubemapOffset@@YAIABVPoint@IceMaths@@I@Z 1009d300 f i IceGaussMap.obj
 0001:0009c3a0       ?ComputeCubemapNearestOffset@@YAIABVPoint@IceMaths@@I@Z 1009d3a0 f i IceGaussMap.obj
 0001:0009c4a0       ??0GaussMap@@QAE@XZ        1009d4a0 f   IceGaussMap.obj
 0001:0009c4c0       ??1GaussMap@@UAE@XZ        1009d4c0 f   IceGaussMap.obj
 0001:0009c4d0       ?ComputeOffset@GaussMap@@QBEIABVPoint@IceMaths@@@Z 1009d4d0 f   IceGaussMap.obj
 0001:0009c570       ?ComputeNearestOffset@GaussMap@@QBEIABVPoint@IceMaths@@@Z 1009d570 f   IceGaussMap.obj
 0001:0009c670       ?Load@GaussMap@@UAE_NABVStream@IceCore@@@Z 1009d670 f   IceGaussMap.obj
 0001:0009c6e0       ??_GGaussMap@@UAEPAXI@Z    1009d6e0 f i IceGaussMap.obj
 0001:0009c6e0       ??_EGaussMap@@UAEPAXI@Z    1009d6e0 f i IceGaussMap.obj
 0001:0009c710       ?Distance@Point@IceMaths@@QBEMABV12@@Z 1009d710 f i IceHullGaussMaps.obj
 0001:0009c750       ??0ClosestPolygonMap@@QAE@PBVConvexHull@@@Z 1009d750 f   IceHullGaussMaps.obj
 0001:0009c780       ??1ClosestPolygonMap@@UAE@XZ 1009d780 f   IceHullGaussMaps.obj
 0001:0009c810       ??0RaycastMap@@QAE@PBVConvexHull@@@Z 1009d810 f   IceHullGaussMaps.obj
 0001:0009c840       ??1RaycastMap@@UAE@XZ      1009d840 f   IceHullGaussMaps.obj
 0001:0009c8d0       ?FastPointCulling@RaycastMap@@QBE_NABVPoint@IceMaths@@@Z 1009d8d0 f   IceHullGaussMaps.obj
 0001:0009c9e0       ?PointInHull@RaycastMap@@QBE_NABVPoint@IceMaths@@@Z 1009d9e0 f   IceHullGaussMaps.obj
 0001:0009cb00       ?Load@RaycastMap@@UAE_NABVStream@IceCore@@@Z 1009db00 f   IceHullGaussMaps.obj
 0001:0009cb90       ??0SupportVertexMap@@QAE@PBVConvexHull@@@Z 1009db90 f   IceHullGaussMaps.obj
 0001:0009cbc0       ??1SupportVertexMap@@UAE@XZ 1009dbc0 f   IceHullGaussMaps.obj
 0001:0009cc70       ?Load@SupportVertexMap@@UAE_NABVStream@IceCore@@@Z 1009dc70 f   IceHullGaussMaps.obj
 0001:0009cd40       ??_EClosestPolygonMap@@UAEPAXI@Z 1009dd40 f i IceHullGaussMaps.obj
 0001:0009cd40       ??_GClosestPolygonMap@@UAEPAXI@Z 1009dd40 f i IceHullGaussMaps.obj
 0001:0009cd70       ??_ERaycastMap@@UAEPAXI@Z  1009dd70 f i IceHullGaussMaps.obj
 0001:0009cd70       ??_GRaycastMap@@UAEPAXI@Z  1009dd70 f i IceHullGaussMaps.obj
 0001:0009cda0       ??_ESupportVertexMap@@UAEPAXI@Z 1009dda0 f i IceHullGaussMaps.obj
 0001:0009cda0       ??_GSupportVertexMap@@UAEPAXI@Z 1009dda0 f i IceHullGaussMaps.obj
 0001:0009cdd0       ??0LIFOStack@@QAE@XZ       1009ddd0 f i IceProfiler.obj
 0001:0009cde0       ??1LIFOStack@@QAE@XZ       1009dde0 f i IceProfiler.obj
 0001:0009cdf0       ?Push@LIFOStack@@QAEAAV1@I@Z 1009ddf0 f i IceProfiler.obj
 0001:0009ce30       ?StartProfile@@YAXAAI@Z    1009de30 f i IceProfiler.obj
 0001:0009ce40       _SetBaseTime               1009de40 f   IceProfiler.obj
 0001:0009ce50       _GetBaseTime               1009de50 f   IceProfiler.obj
 0001:0009ce60       ??0Profiler@@QAE@XZ        1009de60 f   IceProfiler.obj
 0001:0009cef0       ??1Profiler@@QAE@XZ        1009def0 f   IceProfiler.obj
 0001:0009cf60       ?_StartProfile@Profiler@@AAE_NPBD@Z 1009df60 f   IceProfiler.obj
 0001:0009d070       ?Compare@Local@?5??GetResults@Profiler@@QAEPAUProfileData@@AAI0@Z@SAHPBX1@Z 1009e070 f   IceProfiler.obj
 0001:0009d080       ?InitProfiler@@YAXXZ       1009e080 f i IceProfiler.obj
 0001:0009d0f0       ?EndProfile@@YAXAAI@Z      1009e0f0 f i IceProfiler.obj
 0001:0009d120       _GetProfiler               1009e120 f   IceProfiler.obj
 0001:0009d160       ??_GProfiler@@QAEPAXI@Z    1009e160 f i IceProfiler.obj
 0001:0009d190       ?Reset@Profiler@@QAEXXZ    1009e190 f   IceProfiler.obj
 0001:0009d240       ?_EndProfile@Profiler@@AAE_NPBD@Z 1009e240 f   IceProfiler.obj
 0001:0009d430       ?GetResults@Profiler@@QAEPAUProfileData@@AAI0@Z 1009e430 f   IceProfiler.obj
 0001:0009d590       ?ReleaseProfiler@@YAXXZ    1009e590 f   IceProfiler.obj
 0001:0009d5d0       ?DeleteLastEntry@Container@IceCore@@QAEXXZ 1009e5d0 f i IceSupport.obj
 0001:0009d5e0       ?GetEntry@Container@IceCore@@QBEII@Z 1009e5e0 f i IceSupport.obj
 0001:0009d5f0       ?SetRow@Matrix3x3@IceMaths@@QAEXIABVPoint@2@@Z 1009e5f0 f i IceSupport.obj
 0001:0009d620       ??AMatrix3x3@IceMaths@@QBEABVPoint@1@H@Z 1009e620 f i IceSupport.obj
 0001:0009d630       ??0Matrix4x4@IceMaths@@QAE@MMMMMMMMMMMMMMMM@Z 1009e630 f i IceSupport.obj
 0001:0009d6d0       ?Zero@Matrix4x4@IceMaths@@QAEXXZ 1009e6d0 f i IceSupport.obj
 0001:0009d6f0       ?Identity@Matrix4x4@IceMaths@@QAEXXZ 1009e6f0 f i IceSupport.obj
 0001:0009d720       ??DMatrix4x4@IceMaths@@QBE?AV01@ABV01@@Z 1009e720 f i IceSupport.obj
 0001:0009da20       ?InvertPRMatrix@IceMaths@@YAXAAVMatrix4x4@1@ABV21@@Z 1009ea20 f i IceSupport.obj
 0001:0009daf0       ?Get4x4IdentityMatrix@@YAPBVMatrix4x4@IceMaths@@XZ 1009eaf0 f   IceSupport.obj
 0001:0009dbc0       ?Get3x3IdentityMatrix@@YAPBVMatrix3x3@IceMaths@@XZ 1009ebc0 f   IceSupport.obj
 0001:0009dc90       ?ComputePassageMatrices@@YAXPAVMatrix4x4@IceMaths@@0PBV12@1@Z 1009ec90 f   IceSupport.obj
 0001:0009df90       ?Pop@FIFOStack@@QAE_NAAI@Z 1009ef90 f   IceSupport.obj
 0001:0009dff0       ?Pop@LIFOStack@@QAE_NAAI@Z 1009eff0 f   IceSupport.obj
 0001:0009e030       ?ComputeBasis@@YAXABVPoint@IceMaths@@AAV12@1@Z 1009f030 f i IceSupport.obj
 0001:0009e170       ??$TSwap@H@IceCore@@YAXAAH0@Z 1009f170 f i IceSupport.obj
 0001:0009e190       ?CreateOBB@@YAXAAVOBB@IceMaths@@ABV12@ABVPoint@2@M@Z 1009f190 f   IceSupport.obj
 0001:0009e620       ??0TimestampsManager@@QAE@XZ 1009f620 f   IceTimestampManager.obj
 0001:0009e640       ??1TimestampsManager@@QAE@XZ 1009f640 f   IceTimestampManager.obj
 0001:0009e670       ?Reserve@TimestampsManager@@QAE_NI@Z 1009f670 f   IceTimestampManager.obj
 0001:0009e730       ?IncreaseTime@TimestampsManager@@QAEIXZ 1009f730 f   IceTimestampManager.obj
 0001:0009e770       ?getNumVertices@InternalTriangleMesh@@QBEIXZ 1009f770 f i InternalTriangleMesh.obj
 0001:0009e780       ?getVertices@InternalTriangleMesh@@QAEPAVNxVec3@@XZ 1009f780 f i InternalTriangleMesh.obj
 0001:0009e790       ?getTriangles@InternalTriangleMesh@@QAEPAUNxTriangle32@@XZ 1009f790 f i InternalTriangleMesh.obj
 0001:0009e7a0       ??0ADJACENCIESCREATE@@QAE@XZ 1009f7a0 f i InternalTriangleMesh.obj
 0001:0009e7c0       ??0InternalTriangleMesh@@QAE@XZ 1009f7c0 f   InternalTriangleMesh.obj
 0001:0009e810       ??_GAdjacenciesBuilder@@QAEPAXI@Z 1009f810 f i InternalTriangleMesh.obj
 0001:0009e840       ?createAdjacencies@InternalTriangleMesh@@IAEXXZ 1009f840 f   InternalTriangleMesh.obj
 0001:0009e930       ?allocateVertices@InternalTriangleMesh@@QAEPAVNxVec3@@I@Z 1009f930 f   InternalTriangleMesh.obj
 0001:0009e960       ?allocateTriangles@InternalTriangleMesh@@QAEPAUNxTriangle32@@I@Z 1009f960 f   InternalTriangleMesh.obj
 0001:0009e9a0       ?allocateMaterials@InternalTriangleMesh@@QAEPAGXZ 1009f9a0 f   InternalTriangleMesh.obj
 0001:0009e9d0       ?allocateFaceRemap@InternalTriangleMesh@@QAEPAIXZ 1009f9d0 f   InternalTriangleMesh.obj
 0001:0009ea00       ?computeNonPersistentData@InternalTriangleMesh@@QAE_N_N@Z 1009fa00 f   InternalTriangleMesh.obj
 0001:0009ea10       ?createVertexNormals@InternalTriangleMesh@@IAEXXZ 1009fa10 f   InternalTriangleMesh.obj
 0001:0009ea60       ?loadOpcodeModel@InternalTriangleMesh@@QAE_NABVCustomArray@IceCore@@@Z 1009fa60 f   InternalTriangleMesh.obj
 0001:0009eb70       ?createEdgeList@InternalTriangleMesh@@IAEXXZ 1009fb70 f   InternalTriangleMesh.obj
 0001:0009ec70       ?releaseEdgeList@InternalTriangleMesh@@QAEXXZ 1009fc70 f   InternalTriangleMesh.obj
 0001:0009ecb0       ?getUsedBytes@InternalTriangleMesh@@QBEIXZ 1009fcb0 f   InternalTriangleMesh.obj
 0001:0009ed30       ?release@InternalTriangleMesh@@QAEXXZ 1009fd30 f   InternalTriangleMesh.obj
 0001:0009ee90       ??1InternalTriangleMesh@@QAE@XZ 1009fe90 f   InternalTriangleMesh.obj
 0001:0009eef0       ?raiseFlagMask@NxBitField@@QAEXI@Z 1009fef0 f i Joint.obj
 0001:0009ef00       ?lowerFlagMask@NxBitField@@QAEXI@Z 1009ff00 f i Joint.obj
 0001:0009ef20       ?getField@NxBitField@@QBEIII@Z 1009ff20 f i Joint.obj
 0001:0009ef40       ?clearField@NxBitField@@QAEXI@Z 1009ff40 f i Joint.obj
 0001:0009ef60       ??0NvJointBreakEvent@@QAE@MAAVNvJoint@@@Z 1009ff60 f i Joint.obj
 0001:0009ef80       ??1NvJoint@@IAE@XZ         1009ff80 f i Joint.obj
 0001:0009ef90       ?incTransferCount@PxActor@@QAEXXZ 1009ff90 f i Joint.obj
 0001:0009efa0       ?decTransferCount@PxActor@@QAEXXZ 1009ffa0 f i Joint.obj
 0001:0009efb0       ?getJointStatType@@YA?AW4SceneStatisticEnum@@W4NxJointType@@_N@Z 1009ffb0 f i Joint.obj
 0001:0009f0b0       ?getStaticAnchor@Scene@@QAEAAVStaticActor@@XZ 100a00b0 f i Joint.obj
 0001:0009f0c0       ?getBodyFast@Joint@@QBEPAVBody@@I@Z 100a00c0 f i Joint.obj
 0001:0009f0e0       ?setFlag@Joint@@QAEXI@Z    100a00e0 f i Joint.obj
 0001:0009f100       ?clearFlag@Joint@@QAEXI@Z  100a0100 f i Joint.obj
 0001:0009f120       ?anybody@Joint@@QAEPAVBody@@XZ 100a0120 f i Joint.obj
 0001:0009f140       ??1JointInteraction@@UAE@XZ 100a0140 f   Joint.obj
 0001:0009f1b0       ?isActive@JointInteraction@@UBE_NXZ 100a01b0 f   Joint.obj
 0001:0009f1e0       ?updateActivityTransfer@JointInteraction@@QAEXXZ 100a01e0 f   Joint.obj
 0001:0009f2b0       ??0NvJoint@@QAE@XZ         100a02b0 f i Joint.obj
 0001:0009f2c0       ?getScene@Joint@@UAEPAVNvScene@@XZ 100a02c0 f   Joint.obj
 0001:0009f2d0       ?getType@Joint@@UBE?AW4NxJointType@@XZ 100a02d0 f   Joint.obj
 0001:0009f2e0       ?is@Joint@@QAEPAXW4NxJointType@@@Z 100a02e0 f   Joint.obj
 0001:0009f300       ?setBreakForce@Joint@@UAEXMM@Z 100a0300 f   Joint.obj
 0001:0009f320       ?getBreakForce@Joint@@UBEXAAM0@Z 100a0320 f   Joint.obj
 0001:0009f340       ?getState@Joint@@UAE?AW4NxJointState@@XZ 100a0340 f   Joint.obj
 0001:0009f350       ?getLimitPoint@Joint@@UAE_NAAVNxVec3@@@Z 100a0350 f   Joint.obj
 0001:0009f510       ??0LimitPlane@Joint@@QAE@XZ 100a0510 f i Joint.obj
 0001:0009f520       ?resetLimitPlaneIterator@Joint@@UAEXXZ 100a0520 f   Joint.obj
 0001:0009f530       ?hasMoreLimitPlanes@Joint@@UAE_NXZ 100a0530 f   Joint.obj
 0001:0009f550       ?purgeLimitPlanes@Joint@@UAEXXZ 100a0550 f   Joint.obj
 0001:0009f5a0       ?projectPose@Joint@@UAEXPAVBody@@@Z 100a05a0 f   Joint.obj
 0001:0009f5b0       ?disableAxCons@Joint@@UAEXXZ 100a05b0 f   Joint.obj
 0001:0009f5f0       ?getFrameP@Joint@@UBE?AVNxVec3@@I@Z 100a05f0 f   Joint.obj
 0001:0009f620       ?getFrameQ@Joint@@UBE?AVNxQuat@@I@Z 100a0620 f   Joint.obj
 0001:0009f660       ?setFrameP@Joint@@UAEXIABVNxVec3@@@Z 100a0660 f   Joint.obj
 0001:0009f850       ?visualize@Joint@@UAEXAAVDebugRenderable@NxFoundation@@@Z 100a0850 f   Joint.obj
 0001:0009f860       ?getPxActor@Joint@@QAEAAVPxActor@@H@Z 100a0860 f i Joint.obj
 0001:0009f890       ?getLocalPointsDistance@Joint@@QBEXABVNxVec3@@0AAV2@@Z 100a0890 f   Joint.obj
 0001:0009fbe0       ?getBody@Joint@@UAEPAVNvBody@@I@Z 100a0be0 f   Joint.obj
 0001:0009fc00       ?setFlagMask@NxBitField@@QAEXII@Z 100a0c00 f i Joint.obj
 0001:0009fc30       ?setField@NxBitField@@QAEXIII@Z 100a0c30 f i Joint.obj
 0001:0009fc60       ?setShapeInstancePairsDirty@Body@@QAEXXZ 100a0c60 f i Joint.obj
 0001:0009fcd0       ??_EJointInteraction@@UAEPAXI@Z 100a0cd0 f i Joint.obj
 0001:0009fcd0       ??_GJointInteraction@@UAEPAXI@Z 100a0cd0 f i Joint.obj
 0001:0009fd00       ?onActorActiveChange@JointInteraction@@UAEXPAVPxActor@@@Z 100a0d00 f   Joint.obj
 0001:0009fd10       ?onActivate@JointInteraction@@UAEXXZ 100a0d10 f   Joint.obj
 0001:0009fe50       ?onDeactivate@JointInteraction@@UAEXXZ 100a0e50 f   Joint.obj
 0001:0009ff50       ??1Joint@@UAE@XZ           100a0f50 f   Joint.obj
 0001:0009ffd0       ?updateBodySpaceFrame@Joint@@QBEXI@Z 100a0fd0 f   Joint.obj
 0001:000a08f0       ?bodyReleasedEvent@Joint@@QAEXAAVBody@@@Z 100a18f0 f   Joint.obj
 0001:000a09a0       ?breakJoint@Joint@@UAEXXZ  100a19a0 f   Joint.obj
 0001:000a0a40       ?setBodies@Joint@@QAEXPAVNvBody@@0@Z 100a1a40 f   Joint.obj
 0001:000a0b20       ?setLimitPoint@Joint@@UAEXABVNxVec3@@_N@Z 100a1b20 f   Joint.obj
 0001:000a0d70       ?updateRelatedSIPs@Joint@@QAEXXZ 100a1d70 f   Joint.obj
 0001:000a0e20       ?checkMaxForceExceeded@Joint@@QAEXXZ 100a1e20 f   Joint.obj
 0001:000a1140       ?setFrameQ@Joint@@UAEXIABVNxQuat@@@Z 100a2140 f   Joint.obj
 0001:000a1190       ?setFramePQ@Joint@@UAEXIABVNxVec3@@ABVNxQuat@@@Z 100a2190 f   Joint.obj
 0001:000a1200       ??0JointInteraction@@QAE@PAVJoint@@@Z 100a2200 f   Joint.obj
 0001:000a12f0       ??0Joint@@QAE@ABVNvJointDesc@@@Z 100a22f0 f   Joint.obj
 0001:000a1490       ??_EJoint@@UAEPAXI@Z       100a2490 f i Joint.obj
 0001:000a1490       ??_GJoint@@UAEPAXI@Z       100a2490 f i Joint.obj
 0001:000a14c0       ?loadFromDesc@Joint@@UAEXABVNvJointDesc@@@Z 100a24c0 f   Joint.obj
 0001:000a1620       ?setScene@Joint@@QAEXPAVNvScene@@@Z 100a2620 f   Joint.obj
 0001:000a16e0       ?getGlobalAnchor@Joint@@QBEXAAVNxVec3@@@Z 100a26e0 f   Joint.obj
 0001:000a1b20       ?getGlobalAxis@Joint@@QBEXAAVNxVec3@@@Z 100a2b20 f   Joint.obj
 0001:000a1d40       ?addLimitPlane@Joint@@UAE_NABVNxVec3@@0@Z 100a2d40 f   Joint.obj
 0001:000a2160       ?isPlaneSatisfied@Joint@@QAEMAAULimitPlane@1@AAVNxVec3@@1AAM@Z 100a3160 f   Joint.obj
 0001:000a2390       ?processToAxisConstraints@Joint@@UAEXM@Z 100a3390 f   Joint.obj
 0001:000a2460       ?processLimitsToAxisConstraints@Joint@@UAEXM@Z 100a3460 f   Joint.obj
 0001:000a2c70       ?getNextLimitPlane@Joint@@UAE_NAAVNxVec3@@AAM@Z 100a3c70 f   Joint.obj
 0001:000a2d70       ??1NxTask@@MAE@XZ          100a3d70 f i LowLevelThreadingThunk.obj
 0001:000a2d80       ??_GNxTask@@MAEPAXI@Z      100a3d80 f i LowLevelThreadingThunk.obj
 0001:000a2d80       ??_ENxTask@@MAEPAXI@Z      100a3d80 f i LowLevelThreadingThunk.obj
 0001:000a2db0       ??2@YAPAXIPAX@Z            100a3db0 f i LowLevelThreadingThunk.obj
 0001:000a2dc0       ??3@YAXPAX0@Z              100a3dc0 f i LowLevelThreadingThunk.obj
 0001:000a2dd0       ?NxAlignedMalloc@@YAPAXII@Z 100a3dd0 f i LowLevelThreadingThunk.obj
 0001:000a2e20       ??0NxMutexLock@@QAE@AAVNxMutex@@@Z 100a3e20 f i LowLevelThreadingThunk.obj
 0001:000a2e40       ??1NxMutexLock@@QAE@XZ     100a3e40 f i LowLevelThreadingThunk.obj
 0001:000a2e50       ?NxMemoryBarrier@NxInterlocked@@CAXXZ 100a3e50 f i LowLevelThreadingThunk.obj
 0001:000a2e60       ?init@LowLevelThreadingTask@@QAEXP6AXPAX@Z0PAVLowLevelThreadingThunk@@@Z 100a3e60 f i LowLevelThreadingThunk.obj
 0001:000a2e80       ??0NxTask@@QAE@XZ          100a3e80 f i LowLevelThreadingThunk.obj
 0001:000a2e90       ?size@?$NxArray@PAVLowLevelThreadingTask@@VUserAllocatorAccess@NxFoundation@@@@QBEIXZ 100a3e90 f i LowLevelThreadingThunk.obj
 0001:000a2ea0       ?capacity@?$NxArray@PAVLowLevelThreadingTask@@VUserAllocatorAccess@NxFoundation@@@@QBEIXZ 100a3ea0 f i LowLevelThreadingThunk.obj
 0001:000a2ec0       ?copy@?$NxArray@PAVLowLevelThreadingTask@@VUserAllocatorAccess@NxFoundation@@@@AAEPAPAVLowLevelThreadingTask@@PBQAV2@0PAPAV2@@Z 100a3ec0 f i LowLevelThreadingThunk.obj
 0001:000a2ef0       ?allocate@?$NxArray@PAVLowLevelThreadingTask@@VUserAllocatorAccess@NxFoundation@@@@AAEPAPAVLowLevelThreadingTask@@I@Z 100a3ef0 f i LowLevelThreadingThunk.obj
 0001:000a2f20       ?deallocate@?$NxArray@PAVLowLevelThreadingTask@@VUserAllocatorAccess@NxFoundation@@@@AAEXPAPAVLowLevelThreadingTask@@@Z 100a3f20 f i LowLevelThreadingThunk.obj
 0001:000a2f40       ?destroy@?$NxArray@PAVLowLevelThreadingTask@@VUserAllocatorAccess@NxFoundation@@@@AAEXPAPAVLowLevelThreadingTask@@0@Z 100a3f40 f i LowLevelThreadingThunk.obj
 0001:000a2f50       ?CompareExchange@NxInterlocked@@SAHPCHHH@Z 100a3f50 f i LowLevelThreadingThunk.obj
 0001:000a2f70       ?Exchange@NxInterlocked@@SAHPCHH@Z 100a3f70 f i LowLevelThreadingThunk.obj
 0001:000a2f90       ?PushSList@NxInterlocked@@SAXAAUSListHeader@1@PAUSListEntry@1@@Z 100a3f90 f i LowLevelThreadingThunk.obj
 0001:000a2fd0       ?PopSList@NxInterlocked@@SAPAUSListEntry@1@AAUSListHeader@1@@Z 100a3fd0 f i LowLevelThreadingThunk.obj
 0001:000a3020       ??0LowLevelThreadingTask@@QAE@XZ 100a4020 f i LowLevelThreadingThunk.obj
 0001:000a3040       ??_ELowLevelThreadingTask@@UAEPAXI@Z 100a4040 f i LowLevelThreadingThunk.obj
 0001:000a3040       ??_GLowLevelThreadingTask@@UAEPAXI@Z 100a4040 f i LowLevelThreadingThunk.obj
 0001:000a3070       ??1LowLevelThreadingTask@@UAE@XZ 100a4070 f i LowLevelThreadingThunk.obj
 0001:000a3080       ?freeTask@?$TaskPool@VLowLevelThreadingTask@@@@QAEXPAVLowLevelThreadingTask@@@Z 100a4080 f i LowLevelThreadingThunk.obj
 0001:000a30e0       ?reserve@?$NxArray@PAVLowLevelThreadingTask@@VUserAllocatorAccess@NxFoundation@@@@QAEXI@Z 100a40e0 f i LowLevelThreadingThunk.obj
 0001:000a3190       ?pushBack@?$NxArray@PAVLowLevelThreadingTask@@VUserAllocatorAccess@NxFoundation@@@@QAEXABQAVLowLevelThreadingTask@@@Z 100a4190 f i LowLevelThreadingThunk.obj
 0001:000a3260       ?releaseTask@LowLevelThreadingThunk@@QAEXPAVLowLevelThreadingTask@@@Z 100a4260 f i LowLevelThreadingThunk.obj
 0001:000a3270       ?execute@LowLevelThreadingTask@@UAEXXZ 100a4270 f   LowLevelThreadingThunk.obj
 0001:000a32a0       ?allocateSlab@?$TaskPool@VLowLevelThreadingTask@@@@AAEPAVLowLevelThreadingTask@@XZ 100a42a0 f i LowLevelThreadingThunk.obj
 0001:000a34b0       ?allocTask@?$TaskPool@VLowLevelThreadingTask@@@@QAEPAVLowLevelThreadingTask@@XZ 100a44b0 f i LowLevelThreadingThunk.obj
 0001:000a3510       ?createTask@LowLevelThreadingThunk@@AAEPAVLowLevelThreadingTask@@P6AXPAX@Z0@Z 100a4510 f i LowLevelThreadingThunk.obj
 0001:000a3540       ?subtaskCallbackStatic@LowLevelThreadingThunk@@CAXW4PxdSubTaskType_@@P6AXPAX@Z11@Z 100a4540 f   LowLevelThreadingThunk.obj
 0001:000a3590       ?setToDefault@NxMaterialDesc@@QAEXXZ 100a4590 f i Material.obj
 0001:000a35d0       ??0NvMaterial@@QAE@XZ      100a45d0 f i Material.obj
 0001:000a35e0       ??1Material@@QAE@XZ        100a45e0 f   Material.obj
 0001:000a3610       ?getMaterialIndex@Material@@UAEGXZ 100a4610 f   Material.obj
 0001:000a3620       ??4NxMaterialDesc@@QAEAAV0@ABV0@@Z 100a4620 f i Material.obj
 0001:000a3690       ?saveToDesc@Material@@UBEXAAVNxMaterialDesc@@@Z 100a4690 f   Material.obj
 0001:000a3700       ?setDynamicFriction@Material@@UAEXM@Z 100a4700 f   Material.obj
 0001:000a3710       ?getDynamicFriction@Material@@UBEMXZ 100a4710 f   Material.obj
 0001:000a3720       ?setStaticFriction@Material@@UAEXM@Z 100a4720 f   Material.obj
 0001:000a3730       ?getStaticFriction@Material@@UBEMXZ 100a4730 f   Material.obj
 0001:000a3740       ?setRestitution@Material@@UAEXM@Z 100a4740 f   Material.obj
 0001:000a3750       ?getRestitution@Material@@UBEMXZ 100a4750 f   Material.obj
 0001:000a3760       ?setDynamicFrictionV@Material@@UAEXM@Z 100a4760 f   Material.obj
 0001:000a3770       ?getDynamicFrictionV@Material@@UBEMXZ 100a4770 f   Material.obj
 0001:000a3780       ?setStaticFrictionV@Material@@UAEXM@Z 100a4780 f   Material.obj
 0001:000a3790       ?getStaticFrictionV@Material@@UBEMXZ 100a4790 f   Material.obj
 0001:000a37a0       ?setDirOfAnisotropy@Material@@UAEXABVNxVec3@@@Z 100a47a0 f   Material.obj
 0001:000a37c0       ?getDirOfAnisotropy@Material@@UBE?AVNxVec3@@XZ 100a47c0 f   Material.obj
 0001:000a37e0       ?setFlags@Material@@UAEXI@Z 100a47e0 f   Material.obj
 0001:000a37f0       ?getFlags@Material@@UBEIXZ 100a47f0 f   Material.obj
 0001:000a3800       ?setFrictionCombineMode@Material@@UAEXW4NxCombineMode@@@Z 100a4800 f   Material.obj
 0001:000a3810       ?getFrictionCombineMode@Material@@UBE?AW4NxCombineMode@@XZ 100a4810 f   Material.obj
 0001:000a3820       ?setRestitutionCombineMode@Material@@UAEXW4NxCombineMode@@@Z 100a4820 f   Material.obj
 0001:000a3830       ?getRestitutionCombineMode@Material@@UBE?AW4NxCombineMode@@XZ 100a4830 f   Material.obj
 0001:000a3840       ?setNxMaterial@Material@@UAEXPAVNxMaterial@@@Z 100a4840 f   Material.obj
 0001:000a3850       ?getNxMaterial@Material@@UAEPAVNxMaterial@@XZ 100a4850 f   Material.obj
 0001:000a3860       ??0NxMaterialDesc@@QAE@XZ  100a4860 f i Material.obj
 0001:000a38a0       ??0Material@@QAE@G@Z       100a48a0 f   Material.obj
 0001:000a3900       ?loadFromDesc@Material@@UAEXABVNxMaterialDesc@@@Z 100a4900 f   Material.obj
 0001:000a39e0       ?combineScalars@MaterialCombiner@@CAMMMH@Z 100a49e0 f   MaterialCombiner.obj
 0001:000a3a40       ?size@?$NxArray@PAVMaterial@@VUserAllocatorAccess@NxFoundation@@@@QBEIXZ 100a4a40 f i MaterialCombiner.obj
 0001:000a3a50       ??A?$NxArray@PAVMaterial@@VUserAllocatorAccess@NxFoundation@@@@QAEAAPAVMaterial@@I@Z 100a4a50 f i MaterialCombiner.obj
 0001:000a3a60       ?getMaterialFast@Scene@@QAEABVNxMaterialDesc@@G@Z 100a4a60 f i MaterialCombiner.obj
 0001:000a3ab0       ?combineRestitution@MaterialCombiner@@SAXAAVScene@@IAAVCombinedRestitution@1@@Z 100a4ab0 f   MaterialCombiner.obj
 0001:000a3bd0       ?combineRestitution@MaterialCombiner@@SAXABVNxMaterialDesc@@0AAVCombinedRestitution@1@@Z 100a4bd0 f   MaterialCombiner.obj
 0001:000a3c60       ?combineIsotropicFriction@MaterialCombiner@@SAXAAVScene@@PAPBVShape@@IAAVCombinedMaterial@1@@Z 100a4c60 f   MaterialCombiner.obj
 0001:000a3e20       ?combineIsotropicFriction@MaterialCombiner@@SAXABVNxMaterialDesc@@0AAVCombinedMaterial@1@@Z 100a4e20 f   MaterialCombiner.obj
 0001:000a3f60       ?combineAnisotropicFriction@MaterialCombiner@@SAXABVShape@@ABVNxMaterialDesc@@1AAVCombinedMaterial@1@@Z 100a4f60 f   MaterialCombiner.obj
 0001:000a4250       ?combineAnisotropicFriction@MaterialCombiner@@SAXAAVScene@@PAPBVShape@@ABVNxMaterialDesc@@2ABVNxVec3@@AAVCombinedMaterial@1@AAV5@5@Z 100a5250 f   MaterialCombiner.obj
 0001:000a4460       ?combineFriction@MaterialCombiner@@SAXAAVScene@@PAPBVShape@@IABVNxVec3@@AAVCombinedMaterial@1@AAV4@4@Z 100a5460 f   MaterialCombiner.obj
 0001:000a47d0       ??0CollisionAABB@Opcode@@QAE@XZ 100a57d0 f i NPhaseContext.obj
 0001:000a47e0       ??1CollisionAABB@Opcode@@QAE@XZ 100a57e0 f i NPhaseContext.obj
 0001:000a47f0       ??0VolumeCache@Opcode@@QAE@XZ 100a57f0 f i NPhaseContext.obj
 0001:000a4810       ??1VolumeCache@Opcode@@QAE@XZ 100a5810 f i NPhaseContext.obj
 0001:000a4820       ??0SphereCache@Opcode@@QAE@XZ 100a5820 f i NPhaseContext.obj
 0001:000a4850       ??1SphereCache@Opcode@@QAE@XZ 100a5850 f i NPhaseContext.obj
 0001:000a4860       ??0OBBCache@Opcode@@QAE@XZ 100a5860 f i NPhaseContext.obj
 0001:000a48d0       ??0AABBCache@Opcode@@QAE@XZ 100a58d0 f i NPhaseContext.obj
 0001:000a4900       ??0LSSCache@Opcode@@QAE@XZ 100a5900 f i NPhaseContext.obj
 0001:000a4960       ??0PlanesCache@Opcode@@QAE@XZ 100a5960 f i NPhaseContext.obj
 0001:000a4980       ??0PrunedObjects@Opcode@@QAE@XZ 100a5980 f i NPhaseContext.obj
 0001:000a4990       ??1PrunedObjects@Opcode@@QAE@XZ 100a5990 f i NPhaseContext.obj
 0001:000a49a0       ??0CulledObjects@Opcode@@QAE@XZ 100a59a0 f i NPhaseContext.obj
 0001:000a49b0       ??1CulledObjects@Opcode@@QAE@XZ 100a59b0 f i NPhaseContext.obj
 0001:000a49c0       ??1AABBCache@Opcode@@QAE@XZ 100a59c0 f i NPhaseContext.obj
 0001:000a49d0       ??1OBBCache@Opcode@@QAE@XZ 100a59d0 f i NPhaseContext.obj
 0001:000a49e0       ??1LSSCache@Opcode@@QAE@XZ 100a59e0 f i NPhaseContext.obj
 0001:000a49f0       ??1PlanesCache@Opcode@@QAE@XZ 100a59f0 f i NPhaseContext.obj
 0001:000a4a00       ??1PruningTemps@Opcode@@QAE@XZ 100a5a00 f i NPhaseContext.obj
 0001:000a4a80       ?growMeshTags@NPhaseContext@@QAEXI@Z 100a5a80 f   NPhaseContext.obj
 0001:000a4b90       ?growObjectTags@NPhaseContext@@QAEXI@Z 100a5b90 f   NPhaseContext.obj
 0001:000a4c90       ??0PruningTemps@Opcode@@QAE@XZ 100a5c90 f i NPhaseContext.obj
 0001:000a4e20       ??1NPhaseContext@@UAE@XZ   100a5e20 f   NPhaseContext.obj
 0001:000a5050       ??0NPhaseContext@@QAE@PAVScene@@@Z 100a6050 f   NPhaseContext.obj
 0001:000a53a0       ??_GNPhaseContext@@UAEPAXI@Z 100a63a0 f i NPhaseContext.obj
 0001:000a53a0       ??_ENPhaseContext@@UAEPAXI@Z 100a63a0 f i NPhaseContext.obj
 0001:000a53d0       ?NxTlsAlloc@@YAIXZ         100a63d0 f i NPhaseCore.obj
 0001:000a53e0       ?NxTlsFree@@YAII@Z         100a63e0 f i NPhaseCore.obj
 0001:000a53f0       ?NxTlsGet@@YAPAXI@Z        100a63f0 f i NPhaseCore.obj
 0001:000a5400       ?NxTlsSet@@YAIIPAX@Z       100a6400 f i NPhaseCore.obj
 0001:000a5420       ?Add@Container@IceCore@@QAEAAV12@PBII@Z 100a6420 f i NPhaseCore.obj
 0001:000a5480       ?setTwinMarker@PxInteractionMarker@@QAEXPAV1@@Z 100a6480 f i NPhaseCore.obj
 0001:000a5490       ?decStaticTouch@PxActor@@QAEXXZ 100a6490 f i NPhaseCore.obj
 0001:000a54a0       ?addOverlapMarker@PxActor@@QAEXPAVPxInteractionMarker@@@Z 100a64a0 f i NPhaseCore.obj
 0001:000a54d0       ?InitializeSList@NxInterlocked@@SAXAAUSListHeader@1@@Z 100a64d0 f i NPhaseCore.obj
 0001:000a54f0       ?NextSList@NxInterlocked@@SAPAUSListEntry@1@PAU21@@Z 100a64f0 f i NPhaseCore.obj
 0001:000a5500       ?getScene@NPhaseCore@@QAEPAVScene@@XZ 100a6500 f i NPhaseCore.obj
 0001:000a5510       ?decrementBodyConstraintCounter@Body@@QAEXXZ 100a6510 f i NPhaseCore.obj
 0001:000a5520       ?wasForcedToSleepLastFrame@Body@@QBE_NXZ 100a6520 f i NPhaseCore.obj
 0001:000a5560       ??0NxContactStreamIterator@@QAE@PBI@Z 100a6560 f i NPhaseCore.obj
 0001:000a5590       ?getShape@NxContactStreamIterator@@QAEPAVNxShape@@I@Z 100a6590 f i NPhaseCore.obj
 0001:000a55a0       ?getPatchNormal@NxContactStreamIterator@@QAEABVNxVec3@@XZ 100a65a0 f i NPhaseCore.obj
 0001:000a55b0       ?getPoint@NxContactStreamIterator@@QAEABVNxVec3@@XZ 100a65b0 f i NPhaseCore.obj
 0001:000a55c0       ?getSeparation@NxContactStreamIterator@@QAEMXZ 100a65c0 f i NPhaseCore.obj
 0001:000a55d0       ?goNextPair@NxContactStreamIterator@@QAE_NXZ 100a65d0 f i NPhaseCore.obj
 0001:000a5630       ?goNextPatch@NxContactStreamIterator@@QAE_NXZ 100a6630 f i NPhaseCore.obj
 0001:000a5670       ?goNextPoint@NxContactStreamIterator@@QAE_NXZ 100a6670 f i NPhaseCore.obj
 0001:000a5740       ?getNxActorFast@Shape@@QAEPAVNxActor@@XZ 100a6740 f i NPhaseCore.obj
 0001:000a5750       ?is@Shape@@QBEPBV1@W4NxShapeType@@@Z 100a6750 f i NPhaseCore.obj
 0001:000a5770       ?isTriangleMesh@Shape@@QBEPBVTriangleMeshShape@@XZ 100a6770 f i NPhaseCore.obj
 0001:000a5790       ?getNpShapeConst@Shape@@QBEPBVNpShape@@XZ 100a6790 f i NPhaseCore.obj
 0001:000a57a0       ?getBuffer@ContactStream@@QBEPBIXZ 100a67a0 f i NPhaseCore.obj
 0001:000a57b0       ?getBufferSize@ContactStream@@QBEIXZ 100a67b0 f i NPhaseCore.obj
 0001:000a57c0       ??0NxContactPair@@QAE@XZ   100a67c0 f i NPhaseCore.obj
 0001:000a57d0       ?getContactStream@ShapeInstancePair@@QAEAAVContactStream@@XZ 100a67d0 f i NPhaseCore.obj
 0001:000a57e0       ?userNotificationProcessNeeded@ShapeInstancePair@@QBE_NXZ 100a67e0 f i NPhaseCore.obj
 0001:000a5800       ?getSumNormalForce@ShapeInstancePair@@QBEABVNxVec3@@XZ 100a6800 f i NPhaseCore.obj
 0001:000a5810       ?getSumFrictionForce@ShapeInstancePair@@QBEABVNxVec3@@XZ 100a6810 f i NPhaseCore.obj
 0001:000a5820       ?getNumHighLevelContactGeneration@ShapeInstancePair@@QBEIXZ 100a6820 f i NPhaseCore.obj
 0001:000a5830       ?activeManagerAllowed@ShapeInstancePair@@ABE_NXZ 100a6830 f i NPhaseCore.obj
 0001:000a58c0       ?lastFrameHadContacts@ShapeInstancePair@@QBEHXZ 100a68c0 f i NPhaseCore.obj
 0001:000a5910       ?managerLostTouch@ShapeInstancePair@@QAE_NPAVManagerData@1@@Z 100a6910 f i NPhaseCore.obj
 0001:000a59d0       ??_GSIPPoolManager@@QAEPAXI@Z 100a69d0 f i NPhaseCore.obj
 0001:000a5a00       ?beginNarrowPhase@NPhaseCore@@QAEXXZ 100a6a00 f   NPhaseCore.obj
 0001:000a5a10       ?beginCCDPhase@NPhaseCore@@QAEXXZ 100a6a10 f   NPhaseCore.obj
 0001:000a5a20       ?doCCDShapeInstancePair@NPhaseCore@@AAEXPAVShapeInstancePair@@@Z 100a6a20 f   NPhaseCore.obj
 0001:000a5a70       ?computePairEvents@NPhaseCore@@AAEXPAVShapeInstancePair@@AAIAA_N@Z 100a6a70 f   NPhaseCore.obj
 0001:000a5b60       ?callContactCallback@NPhaseCore@@QAEXPAVNxUserContactReport@@AAVContainer@IceCore@@PAVShapeInstancePair@@I_N@Z 100a6b60 f   NPhaseCore.obj
 0001:000a5db0       ?purgeTriggerPair@NPhaseCore@@QAEXPAVShape@@@Z 100a6db0 f   NPhaseCore.obj
 0001:000a5dc0       ??0NvVRDContact@@QAE@XZ    100a6dc0 f i NPhaseCore.obj
 0001:000a5dd0       ?sortPools@NPhaseCore@@QAEXXZ 100a6dd0 f   NPhaseCore.obj
 0001:000a5de0       ??A?$NxArray@PAVPxInteraction@@VUserAllocatorAccess@NxFoundation@@@@QBEABQAVPxInteraction@@I@Z 100a6de0 f i NPhaseCore.obj
 0001:000a5df0       ??0?$NxArray@UNvVRDTrigger@@VUserAllocatorAccess@NxFoundation@@@@QAE@XZ 100a6df0 f i NPhaseCore.obj
 0001:000a5e00       ?size@?$NxArray@UNvVRDTrigger@@VUserAllocatorAccess@NxFoundation@@@@QBEIXZ 100a6e00 f i NPhaseCore.obj
 0001:000a5e20       ?front@?$NxArray@UNvVRDTrigger@@VUserAllocatorAccess@NxFoundation@@@@QAEAAUNvVRDTrigger@@XZ 100a6e20 f i NPhaseCore.obj
 0001:000a5e30       ?begin@?$NxArray@UShapePairWTriggerFlag@@VUserAllocatorAccess@NxFoundation@@@@QAEPAUShapePairWTriggerFlag@@XZ 100a6e30 f i NPhaseCore.obj
 0001:000a5e40       ?end@?$NxArray@UShapePairWTriggerFlag@@VUserAllocatorAccess@NxFoundation@@@@QAEPAUShapePairWTriggerFlag@@XZ 100a6e40 f i NPhaseCore.obj
 0001:000a5e50       ?back@?$NxArray@USimpleBodyPair@Scene@@VUserAllocatorAccess@NxFoundation@@@@QAEAAUSimpleBodyPair@Scene@@XZ 100a6e50 f i NPhaseCore.obj
 0001:000a5e60       ?begin@?$NxArray@UNvVRDTrigger@@VUserAllocatorAccess@NxFoundation@@@@QAEPAUNvVRDTrigger@@XZ 100a6e60 f i NPhaseCore.obj
 0001:000a5e70       ?end@?$NxArray@UNvVRDTrigger@@VUserAllocatorAccess@NxFoundation@@@@QAEPAUNvVRDTrigger@@XZ 100a6e70 f i NPhaseCore.obj
 0001:000a5e80       ?deallocate@?$NxArray@UNvVRDTrigger@@VUserAllocatorAccess@NxFoundation@@@@AAEXPAUNvVRDTrigger@@@Z 100a6e80 f i NPhaseCore.obj
 0001:000a5ea0       ?destroy@?$NxArray@UNvVRDTrigger@@VUserAllocatorAccess@NxFoundation@@@@AAEXPAUNvVRDTrigger@@0@Z 100a6ea0 f i NPhaseCore.obj
 0001:000a5eb0       ?size@?$NxArray@USimpleBodyPair@Scene@@VUserAllocatorAccess@NxFoundation@@@@QBEIXZ 100a6eb0 f i NPhaseCore.obj
 0001:000a5ec0       ?begin@?$NxArray@UContactPoint@ShapeInstancePair@@VUserAllocatorAccess@NxFoundation@@@@QAEPAUContactPoint@ShapeInstancePair@@XZ 100a6ec0 f i NPhaseCore.obj
 0001:000a5ed0       ?end@?$NxArray@UContactPoint@ShapeInstancePair@@VUserAllocatorAccess@NxFoundation@@@@QAEPAUContactPoint@ShapeInstancePair@@XZ 100a6ed0 f i NPhaseCore.obj
 0001:000a5ee0       ?destroy@?$NxArray@UContactPoint@ShapeInstancePair@@VUserAllocatorAccess@NxFoundation@@@@AAEXPAUContactPoint@ShapeInstancePair@@0@Z 100a6ee0 f i NPhaseCore.obj
 0001:000a5ef0       ?capacity@?$NxArray@USimpleBodyPair@Scene@@VUserAllocatorAccess@NxFoundation@@@@QBEIXZ 100a6ef0 f i NPhaseCore.obj
 0001:000a5f10       ?copy@?$NxArray@USimpleBodyPair@Scene@@VUserAllocatorAccess@NxFoundation@@@@AAEPAUSimpleBodyPair@Scene@@PBU23@0PAU23@@Z 100a6f10 f i NPhaseCore.obj
 0001:000a5f50       ?allocate@?$NxArray@USimpleBodyPair@Scene@@VUserAllocatorAccess@NxFoundation@@@@AAEPAUSimpleBodyPair@Scene@@I@Z 100a6f50 f i NPhaseCore.obj
 0001:000a5f80       ?deallocate@?$NxArray@USimpleBodyPair@Scene@@VUserAllocatorAccess@NxFoundation@@@@AAEXPAUSimpleBodyPair@Scene@@@Z 100a6f80 f i NPhaseCore.obj
 0001:000a5fa0       ?destroy@?$NxArray@USimpleBodyPair@Scene@@VUserAllocatorAccess@NxFoundation@@@@AAEXPAUSimpleBodyPair@Scene@@0@Z 100a6fa0 f i NPhaseCore.obj
 0001:000a5fb0       ?capacity@?$NxArray@UNvVRDTrigger@@VUserAllocatorAccess@NxFoundation@@@@QBEIXZ 100a6fb0 f i NPhaseCore.obj
 0001:000a5fe0       ?copy@?$NxArray@UNvVRDTrigger@@VUserAllocatorAccess@NxFoundation@@@@AAEPAUNvVRDTrigger@@PBU2@0PAU2@@Z 100a6fe0 f i NPhaseCore.obj
 0001:000a6030       ?allocate@?$NxArray@UNvVRDTrigger@@VUserAllocatorAccess@NxFoundation@@@@AAEPAUNvVRDTrigger@@I@Z 100a7030 f i NPhaseCore.obj
 0001:000a6060       ?getActiveInteractions@PxScene@@QBE?AV?$PxIterator@QAVPxInteraction@@@@W4PxInteractionType@@@Z 100a7060 f i NPhaseCore.obj
 0001:000a6090       ?Increment@NxInterlocked@@SAHPCH@Z 100a7090 f i NPhaseCore.obj
 0001:000a60a0       ?Decrement@NxInterlocked@@SAHPCH@Z 100a70a0 f i NPhaseCore.obj
 0001:000a60b0       ?Max@NxInterlocked@@SAHPCHH@Z 100a70b0 f i NPhaseCore.obj
 0001:000a60f0       ?FlushSList@NxInterlocked@@SAPAUSListEntry@1@AAUSListHeader@1@@Z 100a70f0 f i NPhaseCore.obj
 0001:000a6130       ?incPairs@SceneStats@@QAEXXZ 100a7130 f i NPhaseCore.obj
 0001:000a6170       ?decPairs@SceneStats@@QAEXXZ 100a7170 f i NPhaseCore.obj
 0001:000a6180       ?createManager@ShapeInstancePair@@AAEXPAPBVShape@@I@Z 100a7180 f i NPhaseCore.obj
 0001:000a6520       ?growMeshTags@NPhaseCore@@QAEXI@Z 100a7520 f   NPhaseCore.obj
 0001:000a6560       ?growObjectTags@NPhaseCore@@QAEXI@Z 100a7560 f   NPhaseCore.obj
 0001:000a65a0       ?getContext@NPhaseCore@@QAEPAVNPhaseContext@@XZ 100a75a0 f   NPhaseCore.obj
 0001:000a66b0       ?putContext@NPhaseCore@@QAEXPAVNPhaseContext@@@Z 100a76b0 f   NPhaseCore.obj
 0001:000a6720       ?insertPair@NPhaseCore@@QAEPAVShapeInstancePair@@AAVShape@@0@Z 100a7720 f   NPhaseCore.obj
 0001:000a68e0       ?doCCDMotions@NPhaseCore@@QAEXXZ 100a78e0 f   NPhaseCore.obj
 0001:000a6a50       ?visualize@NPhaseCore@@QAEXIAAVDebugRenderable@NxFoundation@@@Z 100a7a50 f   NPhaseCore.obj
 0001:000a6ab0       ?callContactCallbacks@NPhaseCore@@QAEXPAVNxUserContactReport@@AAVContainer@IceCore@@@Z 100a7ab0 f   NPhaseCore.obj
 0001:000a6bf0       ?releasePair@NPhaseCore@@QAEXPAVPxInteractionMarker@@0@Z 100a7bf0 f   NPhaseCore.obj
 0001:000a6c30       ??1?$NxArray@UNvVRDTrigger@@VUserAllocatorAccess@NxFoundation@@@@QAE@XZ 100a7c30 f i NPhaseCore.obj
 0001:000a6c70       ?clear@?$NxArray@UNvVRDTrigger@@VUserAllocatorAccess@NxFoundation@@@@QAEXXZ 100a7c70 f i NPhaseCore.obj
 0001:000a6c80       ?clear@?$NxArray@UContactPoint@ShapeInstancePair@@VUserAllocatorAccess@NxFoundation@@@@QAEXXZ 100a7c80 f i NPhaseCore.obj
 0001:000a6c90       ?reserve@?$NxArray@USimpleBodyPair@Scene@@VUserAllocatorAccess@NxFoundation@@@@QAEXI@Z 100a7c90 f i NPhaseCore.obj
 0001:000a6d40       ?reserve@?$NxArray@UNvVRDTrigger@@VUserAllocatorAccess@NxFoundation@@@@QAEXI@Z 100a7d40 f i NPhaseCore.obj
 0001:000a6e40       ?beginContacts@ShapeInstancePair@@QAEXXZ 100a7e40 f i NPhaseCore.obj
 0001:000a7660       ??0?$NxArraySDK@UNvVRDTrigger@@@NxFoundation@@QAE@XZ 100a8660 f i NPhaseCore.obj
 0001:000a7670       ??1?$NxArraySDK@UNvVRDTrigger@@@NxFoundation@@QAE@XZ 100a8670 f i NPhaseCore.obj
 0001:000a76b0       ??1NPhaseCore@@QAE@XZ      100a86b0 f   NPhaseCore.obj
 0001:000a77d0       ?promote@NPhaseCore@@QAEPAVShapeInstancePair@@PAVPxInteractionMarker@@@Z 100a87d0 f   NPhaseCore.obj
 0001:000a79b0       ?findPairContacts@NPhaseCore@@QAEXPAVShapeInstancePair@@AAVNPhaseContext@@@Z 100a89b0 f   NPhaseCore.obj
 0001:000a8230       ?updateTriggerCallbackBuffer@NPhaseCore@@QAEXAAV?$NxArraySDK@UShapePairWTriggerFlag@@@NxFoundation@@@Z 100a9230 f   NPhaseCore.obj
 0001:000a82c0       ?getVRDData@NPhaseCore@@QAEXPAVNvVRDReporter@@@Z 100a92c0 f   NPhaseCore.obj
 0001:000a8580       ?pushBack@?$NxArray@USimpleBodyPair@Scene@@VUserAllocatorAccess@NxFoundation@@@@QAEAAUSimpleBodyPair@Scene@@XZ 100a9580 f i NPhaseCore.obj
 0001:000a8650       ?pushBack@?$NxArray@UNvVRDTrigger@@VUserAllocatorAccess@NxFoundation@@@@QAEXABUNvVRDTrigger@@@Z 100a9650 f i NPhaseCore.obj
 0001:000a87a0       ?insertPairs@TriggerPairs@@QAEXAAV?$NxArraySDK@UShapePair@@@NxFoundation@@@Z 100a97a0 f i NPhaseCore.obj
 0001:000a88f0       ?addToLostTouchList@Scene@@QAEXPAVBody@@0@Z 100a98f0 f i NPhaseCore.obj
 0001:000a8a20       ??0NPhaseCore@@QAE@PAVScene@@@Z 100a9a20 f   NPhaseCore.obj
 0001:000a8af0       ?insertTriggerPairs@NPhaseCore@@IAEXAAVNPhaseContext@@@Z 100a9af0 f   NPhaseCore.obj
 0001:000a8b10       ?releasePair@NPhaseCore@@QAEXPAVShapeInstancePair@@@Z 100a9b10 f   NPhaseCore.obj
 0001:000a8d50       ?push_back@?$NxArray@UNvVRDTrigger@@VUserAllocatorAccess@NxFoundation@@@@QAEXABUNvVRDTrigger@@@Z 100a9d50 f i NPhaseCore.obj
 0001:000a8ea0       ?demote@NPhaseCore@@QAEXPAVShapeInstancePair@@AAPAVPxInteractionMarker@@1@Z 100a9ea0 f   NPhaseCore.obj
 0001:000a8fb0       ?narrowPhase@NPhaseCore@@QAEXXZ 100a9fb0 f   NPhaseCore.obj
 0001:000a9090       ?addTriggerData@NPhaseCore@@QAEXAAV?$NxArraySDK@UShapePairWTriggerFlag@@@NxFoundation@@@Z 100aa090 f   NPhaseCore.obj
 0001:000a9250       ?initParameters@@YAXQAM000@Z 100aa250 f   Parameters.obj
 0001:000a9770       ??_UNxAllocateable@NxFoundation@@SAPAXIW4NxMemoryType@@@Z 100aa770 f i PenetrationMap.obj
 0001:000a9790       ??_VNxAllocateable@NxFoundation@@SAXPAXW4NxMemoryType@@@Z 100aa790 f i PenetrationMap.obj
 0001:000a97b0       ?Compute2DCoords@IceCore@@YAXAAI0II@Z 100aa7b0 f i PenetrationMap.obj
 0001:000a97e0       ?Compute3DCoords@IceCore@@YAXAAI00III@Z 100aa7e0 f i PenetrationMap.obj
 0001:000a9830       ?UnitRandomFloat@IceCore@@YAMXZ 100aa830 f i PenetrationMap.obj
 0001:000a9860       ?Store@CustomArray@IceCore@@QAEAAV12@E@Z 100aa860 f i PenetrationMap.obj
 0001:000a9870       ?StoreBit@CustomArray@IceCore@@QAEAAV12@_N@Z 100aa870 f i PenetrationMap.obj
 0001:000a98b0       ?StoreBits@CustomArray@IceCore@@QAEAAV12@II@Z 100aa8b0 f i PenetrationMap.obj
 0001:000a9920       ?GetBit@CustomArray@IceCore@@QBE_NXZ 100aa920 f i PenetrationMap.obj
 0001:000a9950       ?GetBits@CustomArray@IceCore@@QBEII@Z 100aa950 f i PenetrationMap.obj
 0001:000a99b0       ?ComputeMortonIndex@IceMaths@@YAIIIII@Z 100aa9b0 f i PenetrationMap.obj
 0001:000a9a30       ?GetNbIntersections@RayCollider@Opcode@@QBEIXZ 100aaa30 f i PenetrationMap.obj
 0001:000a9a40       ?GetDistance@PointDistanceQuery@Opcode@@QBEMXZ 100aaa40 f i PenetrationMap.obj
 0001:000a9a50       ?GetClosestTriangle@PointDistanceQuery@Opcode@@QBEIXZ 100aaa50 f i PenetrationMap.obj
 0001:000a9a60       ??0PMapSample@@QAE@XZ      100aaa60 f i PenetrationMap.obj
 0001:000a9a70       ?IsInside@PMapSample@@QBEHXZ 100aaa70 f i PenetrationMap.obj
 0001:000a9a80       ?SetOutside@PMapSample@@QAEXXZ 100aaa80 f i PenetrationMap.obj
 0001:000a9a90       ?SetClosestFace@PMapSample@@QAEXI@Z 100aaa90 f i PenetrationMap.obj
 0001:000a9aa0       ?GetClosestFace@PMapSample@@QBEIXZ 100aaaa0 f i PenetrationMap.obj
 0001:000a9ab0       ?GetData@PMapSample@@QBEIXZ 100aaab0 f i PenetrationMap.obj
 0001:000a9ac0       ?SetData@PMapSample@@QAEXI@Z 100aaac0 f i PenetrationMap.obj
 0001:000a9ad0       ?GetDensity@PenetrationMap@@QBEIXZ 100aaad0 f i PenetrationMap.obj
 0001:000a9ae0       ?GetSamples@PenetrationMap@@QBEPBVPMapSample@@XZ 100aaae0 f i PenetrationMap.obj
 0001:000a9af0       ?ComputeSamplingPoint@PenetrationMap@@QBEXAAVNxVec3@@III@Z 100aaaf0 f i PenetrationMap.obj
 0001:000a9b70       ?getNumVerticesFast@TriangleMesh@@QBEIXZ 100aab70 f i PenetrationMap.obj
 0001:000a9b80       ?getLocalBounds@TriangleMesh@@QBEABVNxBounds3@@XZ 100aab80 f i PenetrationMap.obj
 0001:000a9b90       ?pointTriangleDist@@YAMABVNxVec3@@000PAM1@Z 100aab90 f i PenetrationMap.obj
 0001:000a9bd0       ?ComputeDepth@@YAXAAVNxVec3@@IABV1@PAVTriangleMesh@@@Z 100aabd0 f i PenetrationMap.obj
 0001:000a9cc0       ??1PenetrationMap@@UAE@XZ  100aacc0 f   PenetrationMap.obj
 0001:000abc40       ??_GCustomArray@IceCore@@QAEPAXI@Z 100acc40 f i PenetrationMap.obj
 0001:000abc70       ?Save@PenetrationMap@@QAE_NPBDPAVCustomArray@IceCore@@@Z 100acc70 f   PenetrationMap.obj
 0001:000ac6b0       ?ComputeSurfaceCells@PenetrationMap@@AAEIPBVModel@Opcode@@@Z 100ad6b0 f   PenetrationMap.obj
 0001:000ad190       ?Test@PenetrationMap@@AAEMXZ 100ae190 f   PenetrationMap.obj
 0001:000ad1a0       ?ComputeFilteredSample_@PenetrationMap@@ABEHIIIAAVNxVec3@@ABV2@PBV2@PBVNxMat33@@@Z 100ae1a0 f   PenetrationMap.obj
 0001:000ae3a0       ??_GPenetrationMap@@UAEPAXI@Z 100af3a0 f i PenetrationMap.obj
 0001:000ae3a0       ??_EPenetrationMap@@UAEPAXI@Z 100af3a0 f i PenetrationMap.obj
 0001:000ae3d0       ?Init@PenetrationMap@@AAE_NIABVNxBounds3@@@Z 100af3d0 f   PenetrationMap.obj
 0001:000ae5d0       ?Load@PenetrationMap@@AAE_NPBDPAVCustomArray@IceCore@@@Z 100af5d0 f   PenetrationMap.obj
 0001:000ae870       ?PrecomputeOutsideCells@PenetrationMap@@AAE_NXZ 100af870 f   PenetrationMap.obj
 0001:000aeab0       ??0PenetrationMap@@QAE@XZ  100afab0 f   PenetrationMap.obj
 0001:000aeb00       ??0PenetrationMap@@QAE@ABV0@@Z 100afb00 f   PenetrationMap.obj
 0001:000aeb80       ?Create@PenetrationMap@@QAE_NPAVNvTriangleMesh@@IPBDPAVCustomArray@IceCore@@_NPAVNxUserOutputStream@@@Z 100afb80 f   PenetrationMap.obj
 0001:000af7e0       ??0NxVec3@@QAE@ABU_Nx3F32@@@Z 100b07e0 f i PlaneShape.obj
 0001:000af800       ?setPlusInfinity@NxVec3@@QAEXXZ 100b0800 f i PlaneShape.obj
 0001:000af820       ?setMinusInfinity@NxVec3@@QAEXXZ 100b0820 f i PlaneShape.obj
 0001:000af840       ?set@NxPlane@@QAEAAV1@ABVNxVec3@@M@Z 100b0840 f i PlaneShape.obj
 0001:000af870       ?pointInPlane@NxPlane@@QBE?AVNxVec3@@XZ 100b0870 f i PlaneShape.obj
 0001:000af8c0       ??1PlaneShape@@MAE@XZ      100b08c0 f   PlaneShape.obj
 0001:000af8d0       ?getShape@PlaneShape@@UAEAAVShape@@XZ 100b08d0 f i PlaneShape.obj
 0001:000af8e0       ?getShape@PlaneShape@@UBEABVShape@@XZ 100b08e0 f i PlaneShape.obj
 0001:000af8f0       ??BPlaneShape@@UAEAAVShape@@XZ 100b08f0 f i PlaneShape.obj
 0001:000af900       ?getPlaneEquation@PlaneShape@@UBE?AVNxPlane@@XZ 100b0900 f i PlaneShape.obj
 0001:000af940       ?computeWorldBounds@PlaneShape@@EBEXAAVNxBounds3@@@Z 100b0940 f   PlaneShape.obj
 0001:000afad0       ?computeWorldSphere@PlaneShape@@EBEXAAVNxSphere@@@Z 100b0ad0 f   PlaneShape.obj
 0001:000afaf0       ?computeLocalSphere@PlaneShape@@EBEXAAVNxSphere@@@Z 100b0af0 f   PlaneShape.obj
 0001:000afb10       ?computeLocalBounds@PlaneShape@@UBEXAAVNxBounds3@@@Z 100b0b10 f   PlaneShape.obj
 0001:000afbd0       ?visualize@PlaneShape@@UBEXAAVDebugRenderable@NxFoundation@@@Z 100b0bd0 f   PlaneShape.obj
 0001:000afd90       ?raycast@PlaneShape@@UBE_NABVNxRay@@MIAAUNxRaycastHit@@_N@Z 100b0d90 f   PlaneShape.obj
 0001:000afeb0       ?checkOverlapSphere@PlaneShape@@UBE_NABVNxSphere@@@Z 100b0eb0 f   PlaneShape.obj
 0001:000aff10       ?checkOverlapOBB@PlaneShape@@UBE_NABVNxBox@@@Z 100b0f10 f   PlaneShape.obj
 0001:000aff30       ?checkOverlapAABB@PlaneShape@@UBE_NABVNxBounds3@@@Z 100b0f30 f   PlaneShape.obj
 0001:000b0040       ?checkOverlapCapsule@PlaneShape@@UBE_NABVNxCapsule@@@Z 100b1040 f   PlaneShape.obj
 0001:000b0060       ??_EPlaneShape@@MAEPAXI@Z  100b1060 f i PlaneShape.obj
 0001:000b0060       ??_GPlaneShape@@MAEPAXI@Z  100b1060 f i PlaneShape.obj
 0001:000b0090       ?getLowLevelTransform@PlaneShape@@QBEXAAUPxdTransform_@@@Z 100b1090 f   PlaneShape.obj
 0001:000b0460       ??0PlaneShape@@IAE@ABVNvShapeDesc@@PAVScene@@I@Z 100b1460 f   PlaneShape.obj
 0001:000b10e0       ?setPlaneEquation@PlaneShape@@UAEXABVNxPlane@@@Z 100b20e0 f   PlaneShape.obj
 0001:000b1210       ?toLine@PlueckerLine@@QBEHAAVNxVec3@@0@Z 100b2210 f   Pluecker.obj
 0001:000b1360       ?toRay@PlueckerLine@@QBEHAAVNxVec3@@0@Z 100b2360 f   Pluecker.obj
 0001:000b1480       ?intersectPlanes@PlueckerLine@@QAEHABVNxPlane@@0@Z 100b2480 f   Pluecker.obj
 0001:000b1560       ?intersectWithPlane@PlueckerLine@@QBEHABVNxPlane@@AAVNxVec3@@@Z 100b2560 f   Pluecker.obj
 0001:000b1630       ?pointOnSegment@@YAHABVNxVec3@@00@Z 100b2630 f   Pluecker.obj
 0001:000b1790       ?intersectLineLine@@YAXABVNxVec3@@000AAV1@@Z 100b2790 f   Pluecker.obj
 0001:000b18e0       ?intersectLineSphere@@YAIABVNxVec3@@00MAAV1@1@Z 100b28e0 f   Pluecker.obj
 0001:000b1b30       ?equals@NxMath@@SA_NMMM@Z  100b2b30 f i Pluecker.obj
 0001:000b1b60       ?equals@NxVec3@@QBE_NABV1@M@Z 100b2b60 f i Pluecker.obj
 0001:000b1bc0       ?lineRelation@@YA?AW4LineRelation@@ABVNxVec3@@000@Z 100b2bc0 f   Pluecker.obj
 0001:000b1d50       ??0PointInPlaneJoint@@QAE@ABVNvJointDesc@@ABVNvJointPointOnPlaneDesc@@@Z 100b2d50 f   PointInPlaneJoint.obj
 0001:000b1d90       ?loadFromDesc@PointInPlaneJoint@@UAEXABVNvJointDesc@@ABVNvJointPointOnPlaneDesc@@@Z 100b2d90 f   PointInPlaneJoint.obj
 0001:000b1dc0       ?release@PointInPlaneJoint@@UAEXXZ 100b2dc0 f   PointInPlaneJoint.obj
 0001:000b1de0       ??BPointInPlaneJoint@@UAEAAVJoint@@XZ 100b2de0 f   PointInPlaneJoint.obj
 0001:000b1df0       ?getJoint@PointInPlaneJoint@@UAEAAVJoint@@XZ 100b2df0 f   PointInPlaneJoint.obj
 0001:000b1e00       ?isPointInPlaneJoint@PointInPlaneJoint@@QAEPAV1@XZ 100b2e00 f   PointInPlaneJoint.obj
 0001:000b1e10       ?disableAxCons@PointInPlaneJoint@@UAEXXZ 100b2e10 f   PointInPlaneJoint.obj
 0001:000b1e50       ?visualize@PointInPlaneJoint@@UAEXAAVDebugRenderable@NxFoundation@@@Z 100b2e50 f   PointInPlaneJoint.obj
 0001:000b2390       ??1PointInPlaneJoint@@UAE@XZ 100b3390 f   PointInPlaneJoint.obj
 0001:000b2420       ?processToAxisConstraints@PointInPlaneJoint@@UAEXM@Z 100b3420 f   PointInPlaneJoint.obj
 0001:000b2f60       ??_GPointInPlaneJoint@@UAEPAXI@Z 100b3f60 f i PointInPlaneJoint.obj
 0001:000b2f60       ??_EPointInPlaneJoint@@UAEPAXI@Z 100b3f60 f i PointInPlaneJoint.obj
 0001:000b2f90       ?getLocalBinormalFast@Joint@@QBEABVNxVec3@@I@Z 100b3f90 f i PointOnLineJoint.obj
 0001:000b2fb0       ??0PointOnLineJoint@@QAE@ABVNvJointDesc@@ABVNvJointPointOnLineDesc@@@Z 100b3fb0 f   PointOnLineJoint.obj
 0001:000b3000       ?loadFromDesc@PointOnLineJoint@@UAEXABVNvJointDesc@@ABVNvJointPointOnLineDesc@@@Z 100b4000 f   PointOnLineJoint.obj
 0001:000b3030       ?release@PointOnLineJoint@@UAEXXZ 100b4030 f   PointOnLineJoint.obj
 0001:000b3050       ??BPointOnLineJoint@@UAEAAVNxJoint@@XZ 100b4050 f   PointOnLineJoint.obj
 0001:000b3060       ?getJoint@PointOnLineJoint@@UAEAAVJoint@@XZ 100b4060 f   PointOnLineJoint.obj
 0001:000b3070       ?disableAxCons@PointOnLineJoint@@UAEXXZ 100b4070 f   PointOnLineJoint.obj
 0001:000b30d0       ?isPointOnLineJoint@PointOnLineJoint@@QAEPAV1@XZ 100b40d0 f   PointOnLineJoint.obj
 0001:000b30e0       ?visualize@PointOnLineJoint@@UAEXAAVDebugRenderable@NxFoundation@@@Z 100b40e0 f   PointOnLineJoint.obj
 0001:000b3650       ??1PointOnLineJoint@@UAE@XZ 100b4650 f   PointOnLineJoint.obj
 0001:000b3700       ?processToAxisConstraints@PointOnLineJoint@@UAEXM@Z 100b4700 f   PointOnLineJoint.obj
 0001:000b4740       ??_EPointOnLineJoint@@UAEPAXI@Z 100b5740 f i PointOnLineJoint.obj
 0001:000b4740       ??_GPointOnLineJoint@@UAEPAXI@Z 100b5740 f i PointOnLineJoint.obj
 0001:000b4770       ?disableAxCons@PrismaticJoint@@UAEXXZ 100b5770 f   PrismaticJoint.obj
 0001:000b47b0       ??1PrismaticJoint@@UAE@XZ  100b57b0 f   PrismaticJoint.obj
 0001:000b4820       ?release@PrismaticJoint@@UAEXXZ 100b5820 f   PrismaticJoint.obj
 0001:000b4840       ??BPrismaticJoint@@UAEAAVJoint@@XZ 100b5840 f   PrismaticJoint.obj
 0001:000b4850       ?getJoint@PrismaticJoint@@UAEAAVJoint@@XZ 100b5850 f   PrismaticJoint.obj
 0001:000b4860       ?updateDerived@PrismaticJoint@@AAEXXZ 100b5860 f   PrismaticJoint.obj
 0001:000b4aa0       ?isPrismaticJoint@PrismaticJoint@@QAEPAV1@XZ 100b5aa0 f   PrismaticJoint.obj
 0001:000b4ab0       ?visualize@PrismaticJoint@@UAEXAAVDebugRenderable@NxFoundation@@@Z 100b5ab0 f   PrismaticJoint.obj
 0001:000b5300       ??0PrismaticJoint@@QAE@ABVNvJointDesc@@ABVNvJointPrismaticDesc@@@Z 100b6300 f   PrismaticJoint.obj
 0001:000b53b0       ??_GPrismaticJoint@@UAEPAXI@Z 100b63b0 f i PrismaticJoint.obj
 0001:000b53b0       ??_EPrismaticJoint@@UAEPAXI@Z 100b63b0 f i PrismaticJoint.obj
 0001:000b53e0       ?loadFromDesc@PrismaticJoint@@UAEXABVNvJointDesc@@ABVNvJointPrismaticDesc@@@Z 100b63e0 f   PrismaticJoint.obj
 0001:000b5410       ?processToAxisConstraints@PrismaticJoint@@UAEXM@Z 100b6410 f   PrismaticJoint.obj
 0001:000b9710       ?sign@NxMath@@SAMM@Z       100ba710 f i PulleyJoint.obj
 0001:000b9740       ?setToDefault@NxMotorDesc@@QAEXXZ 100ba740 f i PulleyJoint.obj
 0001:000b9760       ?loadFromDesc@PulleyJoint@@UAEXABVNvJointDesc@@ABVNvJointPulleyDesc@@@Z 100ba760 f   PulleyJoint.obj
 0001:000b9820       ?disableAxCons@PulleyJoint@@UAEXXZ 100ba820 f   PulleyJoint.obj
 0001:000b9860       ?release@PulleyJoint@@UAEXXZ 100ba860 f   PulleyJoint.obj
 0001:000b9880       ??BPulleyJoint@@UAEAAVJoint@@XZ 100ba880 f   PulleyJoint.obj
 0001:000b9890       ?getJoint@PulleyJoint@@UAEAAVJoint@@XZ 100ba890 f   PulleyJoint.obj
 0001:000b98a0       ?isPulleyJoint@PulleyJoint@@UAEPAV1@XZ 100ba8a0 f   PulleyJoint.obj
 0001:000b98b0       ?setFlags@PulleyJoint@@UAEXI@Z 100ba8b0 f   PulleyJoint.obj
 0001:000b98d0       ?setMotor@PulleyJoint@@UAEXABVNxMotorDesc@@@Z 100ba8d0 f   PulleyJoint.obj
 0001:000b9910       ?getMotor@PulleyJoint@@UBE_NAAVNxMotorDesc@@@Z 100ba910 f   PulleyJoint.obj
 0001:000b9950       ?visualize@PulleyJoint@@UAEXAAVDebugRenderable@NxFoundation@@@Z 100ba950 f   PulleyJoint.obj
 0001:000b99d0       ??0NxMotorDesc@@QAE@XZ     100ba9d0 f i PulleyJoint.obj
 0001:000b99f0       ??0PulleyJoint@@QAE@ABVNvJointDesc@@ABVNvJointPulleyDesc@@@Z 100ba9f0 f   PulleyJoint.obj
 0001:000b9af0       ?setPulley@PulleyJoint@@UAEXIABVNxVec3@@@Z 100baaf0 f i PulleyJoint.obj
 0001:000b9b30       ?setTargetDistance@PulleyJoint@@UAEXM@Z 100bab30 f i PulleyJoint.obj
 0001:000b9b50       ?setStiffness@PulleyJoint@@UAEXM@Z 100bab50 f i PulleyJoint.obj
 0001:000b9b70       ?setRatio@PulleyJoint@@UAEXM@Z 100bab70 f i PulleyJoint.obj
 0001:000b9b90       ?getPulley@PulleyJoint@@UBE?AVNxVec3@@I@Z 100bab90 f i PulleyJoint.obj
 0001:000b9bd0       ?getTargetDistance@PulleyJoint@@UBEMXZ 100babd0 f i PulleyJoint.obj
 0001:000b9be0       ?getStiffness@PulleyJoint@@UBEMXZ 100babe0 f i PulleyJoint.obj
 0001:000b9bf0       ?getRatio@PulleyJoint@@UBEMXZ 100babf0 f i PulleyJoint.obj
 0001:000b9c00       ?getFlags@PulleyJoint@@UBEIXZ 100bac00 f i PulleyJoint.obj
 0001:000b9c10       ??1PulleyJoint@@UAE@XZ     100bac10 f   PulleyJoint.obj
 0001:000b9c80       ?processToAxisConstraints@PulleyJoint@@UAEXM@Z 100bac80 f   PulleyJoint.obj
 0001:000bb350       ??_EPulleyJoint@@UAEPAXI@Z 100bc350 f i PulleyJoint.obj
 0001:000bb350       ??_GPulleyJoint@@UAEPAXI@Z 100bc350 f i PulleyJoint.obj
 0001:000bb380       ?setToDefault@NxJointLimitDesc@@QAEXXZ 100bc380 f i RevoluteJoint.obj
 0001:000bb3a0       ?setToDefault@NxJointLimitPairDesc@@QAEXXZ 100bc3a0 f i RevoluteJoint.obj
 0001:000bb3b0       ?setProjection@RevoluteJoint@@UAEXMM@Z 100bc3b0 f i RevoluteJoint.obj
 0001:000bb3e0       ?loadFromDesc@RevoluteJoint@@UAEXABVNvJointDesc@@ABVNvJointRevoluteDesc@@@Z 100bc3e0 f   RevoluteJoint.obj
 0001:000bb4c0       ?release@RevoluteJoint@@UAEXXZ 100bc4c0 f   RevoluteJoint.obj
 0001:000bb4e0       ?setFlags@RevoluteJoint@@UAEXI@Z 100bc4e0 f   RevoluteJoint.obj
 0001:000bb4f0       ?setLimits@RevoluteJoint@@UAEXABVNxJointLimitPairDesc@@@Z 100bc4f0 f   RevoluteJoint.obj
 0001:000bb540       ?getLimits@RevoluteJoint@@UAE_NAAVNxJointLimitPairDesc@@@Z 100bc540 f   RevoluteJoint.obj
 0001:000bb590       ?setMotor@RevoluteJoint@@UAEXABVNxMotorDesc@@@Z 100bc590 f   RevoluteJoint.obj
 0001:000bb5d0       ?getMotor@RevoluteJoint@@UBE_NAAVNxMotorDesc@@@Z 100bc5d0 f   RevoluteJoint.obj
 0001:000bb610       ?setSpring@RevoluteJoint@@UAEXABVNxSpringDesc@@@Z 100bc610 f   RevoluteJoint.obj
 0001:000bb650       ?getSpring@RevoluteJoint@@UBE_NAAVNxSpringDesc@@@Z 100bc650 f   RevoluteJoint.obj
 0001:000bb690       ?getAngle@RevoluteJoint@@QBEMXZ 100bc690 f   RevoluteJoint.obj
 0001:000bbca0       ?getAngleExternal@RevoluteJoint@@UBEMXZ 100bcca0 f   RevoluteJoint.obj
 0001:000bc2b0       ?getVelocity@RevoluteJoint@@QBEMXZ 100bd2b0 f   RevoluteJoint.obj
 0001:000bc3f0       ?rotationArc@@YA?AVNxQuat@@ABVNxVec3@@0@Z 100bd3f0 f i RevoluteJoint.obj
 0001:000bc4e0       ?projectPose@RevoluteJoint@@UAEXPAVBody@@@Z 100bd4e0 f   RevoluteJoint.obj
 0001:000bd130       ?disableAxCons@RevoluteJoint@@UAEXXZ 100be130 f   RevoluteJoint.obj
 0001:000bd190       ?processLimitsToAxisConstraints@RevoluteJoint@@UAEXM@Z 100be190 f   RevoluteJoint.obj
 0001:000bd930       ?visualize@RevoluteJoint@@UAEXAAVDebugRenderable@NxFoundation@@@Z 100be930 f   RevoluteJoint.obj
 0001:000bd9b0       ??0NxJointLimitDesc@@QAE@XZ 100be9b0 f i RevoluteJoint.obj
 0001:000bd9d0       ??0NxJointLimitPairDesc@@QAE@XZ 100be9d0 f i RevoluteJoint.obj
 0001:000bda00       ??0RevoluteJoint@@QAE@ABVNvJointDesc@@ABVNvJointRevoluteDesc@@@Z 100bea00 f   RevoluteJoint.obj
 0001:000bdb80       ?getProjection@RevoluteJoint@@UBEXAAM0@Z 100beb80 f i RevoluteJoint.obj
 0001:000bdc10       ?getFlags@RevoluteJoint@@UBEIXZ 100bec10 f i RevoluteJoint.obj
 0001:000bdc20       ??1RevoluteJoint@@UAE@XZ   100bec20 f   RevoluteJoint.obj
 0001:000bdcd0       ?processToAxisConstraints@RevoluteJoint@@UAEXM@Z 100becd0 f   RevoluteJoint.obj
 0001:000be040       ??_ERevoluteJoint@@UAEPAXI@Z 100bf040 f i RevoluteJoint.obj
 0001:000be040       ??_GRevoluteJoint@@UAEPAXI@Z 100bf040 f i RevoluteJoint.obj
 0001:000be070       ?min@NxMath@@SAIII@Z       100bf070 f i Scene.obj
 0001:000be090       ??0NxSceneLimits@@QAE@XZ   100bf090 f i Scene.obj
 0001:000be0b0       ?free@NxAllocatorDefault@@QAEXPAX@Z 100bf0b0 f i Scene.obj
 0001:000be0d0       ?NxAlignedFree@@YAXPAX@Z   100bf0d0 f i Scene.obj
 0001:000be100       ?realloc@UserAllocatorAccess@NxFoundation@@QAEPAXPAXI@Z 100bf100 f i Scene.obj
 0001:000be110       ?GetWorldAABB@PruningInterface@Opcode@@QBEXAAVAABB@IceMaths@@@Z 100bf110 f i Scene.obj
 0001:000be130       ?IsSet@Prunable@Opcode@@QBEHW4PruningFlag@2@@Z 100bf130 f i Scene.obj
 0001:000be140       ?GetPruner@Prunable@Opcode@@QAEPAVPruningPool@2@XZ 100bf140 f i Scene.obj
 0001:000be150       ?SetDynamic@Prunable@Opcode@@QAEX_N@Z 100bf150 f i Scene.obj
 0001:000be160       ?GetWorldAABB@PruningPool@Opcode@@QAEPBVAABB@IceMaths@@ABVPrunable@2@@Z 100bf160 f i Scene.obj
 0001:000be1d0       ?UpdateObject@PruningEngine@Opcode@@QAE_NAAVPrunable@2@@Z 100bf1d0 f i Scene.obj
 0001:000be200       ??1NvScene@@IAE@XZ         100bf200 f i Scene.obj
 0001:000be210       ?getInternal@NvScene@@UAEPAXXZ 100bf210 f i Scene.obj
 0001:000be220       ?readProfileData@NvScene@@UAEPAVNxProfilerData@@_N@Z 100bf220 f i Scene.obj
 0001:000be230       ?lockQueries@NvScene@@UAEXXZ 100bf230 f i Scene.obj
 0001:000be240       ?unlockQueries@NvScene@@UAEXXZ 100bf240 f i Scene.obj
 0001:000be250       ?startClock@ProfilerClock@NxFoundation@@SAXAA_K@Z 100bf250 f i Scene.obj
 0001:000be280       ?stopClock@ProfilerClock@NxFoundation@@SAXAA_K@Z 100bf280 f i Scene.obj
 0001:000be2c0       ?startCounter@ProfilerClock@NxFoundation@@SAXAAI@Z 100bf2c0 f i Scene.obj
 0001:000be2d0       ?stopCounter@ProfilerClock@NxFoundation@@SAXAAI@Z 100bf2d0 f i Scene.obj
 0001:000be2e0       ?getPerThreadProfiler@ProfilerManager@NxFoundation@@QAEPAVProfiler@2@XZ 100bf2e0 f i Scene.obj
 0001:000be310       ?getActiveActorCount@PxScene@@QBEIXZ 100bf310 f i Scene.obj
 0001:000be320       ?getActiveIslandCount@PxScene@@QBEIXZ 100bf320 f i Scene.obj
 0001:000be330       ?setDirty@PxInteractionMarker@@QAEX_N@Z 100bf330 f i Scene.obj
 0001:000be340       ?incStaticTouch@PxActor@@QAEXXZ 100bf340 f i Scene.obj
 0001:000be350       ?getIslandIndex@PxActor@@QBEIXZ 100bf350 f i Scene.obj
 0001:000be360       ?isValid@PxActor@@QBEIXZ   100bf360 f i Scene.obj
 0001:000be370       ?hasValidIsland@PxActor@@QBE_NXZ 100bf370 f i Scene.obj
 0001:000be3a0       ?setNPhaseCore@BroadPhase@@QAEXPAVNPhaseCore@@@Z 100bf3a0 f i Scene.obj
 0001:000be3b0       ?setRawBoundsReport@BroadPhase@@QAEXPAVNvUserRawBoundsReport@@@Z 100bf3b0 f i Scene.obj
 0001:000be3c0       ??0CCDSkeleton@@QAE@XZ     100bf3c0 f i Scene.obj
 0001:000be3f0       ??1CCDSkeleton@@QAE@XZ     100bf3f0 f i Scene.obj
 0001:000be420       ??0CCDSkeleton2@@QAE@XZ    100bf420 f i Scene.obj
 0001:000be450       ??1CCDSkeleton2@@QAE@XZ    100bf450 f i Scene.obj
 0001:000be480       ??0NxReaderWriterLock@@QAE@XZ 100bf480 f i Scene.obj
 0001:000be4d0       ??1NxReaderWriterLock@@QAE@XZ 100bf4d0 f i Scene.obj
 0001:000be510       ?lockWriter@NxReaderWriterLock@@QAEXXZ 100bf510 f i Scene.obj
 0001:000be550       ?unlockWriter@NxReaderWriterLock@@QAEXXZ 100bf550 f i Scene.obj
 0001:000be580       ??0NxTakeWriterLock@@QAE@AAVNxReaderWriterLock@@@Z 100bf580 f i Scene.obj
 0001:000be5d0       ??1NxTakeWriterLock@@QAE@XZ 100bf5d0 f i Scene.obj
 0001:000be600       ?getBody@Actor@@QBEPAVNvBody@@XZ 100bf600 f i Scene.obj
 0001:000be610       ?isValid@Body@@QBE_NXZ     100bf610 f i Scene.obj
 0001:000be630       ?incrementBodyConstraintCounter@Body@@QAEXXZ 100bf630 f i Scene.obj
 0001:000be640       ?getOwningNxActor@Body@@QBEPAVNxActor@@XZ 100bf640 f i Scene.obj
 0001:000be650       ?projectPose@Body@@QAEXXZ  100bf650 f i Scene.obj
 0001:000be670       ?hasArticulation@Body@@QBE_NXZ 100bf670 f i Scene.obj
 0001:000be690       ?cacheState@Body@@QBEXXZ   100bf690 f i Scene.obj
 0001:000be760       ?clearInternalFlag@Shape@@QAEXW4InternalFlag@1@@Z 100bf760 f i Scene.obj
 0001:000be780       ?getJoint@JointInteraction@@QAEPAVJoint@@XZ 100bf780 f i Scene.obj
 0001:000be790       ?notifyRemovedFromDeactivationList@PageBoundsInteraction@@QAEXXZ 100bf790 f i Scene.obj
 0001:000be7a0       ?notifyAddedToDeactivationList@PageBoundsInteraction@@QAEXXZ 100bf7a0 f i Scene.obj
 0001:000be7b0       ?sumForcesCalculationIsForced@ShapeInstancePair@@QBE_NXZ 100bf7b0 f i Scene.obj
 0001:000be7c0       ?isDirty@ShapeInstancePair@@QBE_NXZ 100bf7c0 f i Scene.obj
 0001:000be7d0       ?setDirty@ShapeInstancePair@@QAEX_N@Z 100bf7d0 f i Scene.obj
 0001:000be800       ?managerNewTouch@ShapeInstancePair@@QAEXPAVManagerData@1@@Z 100bf800 f i Scene.obj
 0001:000be8a0       ?getSceneIndex@WheelShape@@QBEIXZ 100bf8a0 f i Scene.obj
 0001:000be8b0       ?setSceneIndex@WheelShape@@QAEXI@Z 100bf8b0 f i Scene.obj
 0001:000be8c0       ??4WheelContact@WheelShape@@QAEAAU01@ABU01@@Z 100bf8c0 f i Scene.obj
 0001:000be970       ?getActor@NpActor@@QAEPAVActor@@XZ 100bf970 f i Scene.obj
 0001:000be980       ??0NvScene@@QAE@XZ         100bf980 f i Scene.obj
 0001:000be990       ??0CCDTest@@QAE@XZ         100bf990 f i Scene.obj
 0001:000bea20       ??1CCDTest@@QAE@XZ         100bfa20 f i Scene.obj
 0001:000beae0       ??_GImplicitScreenMesh@@QAEPAXI@Z 100bfae0 f i Scene.obj
 0001:000beb10       ??_GMaterial@@QAEPAXI@Z    100bfb10 f i Scene.obj
 0001:000beb40       ??_GNPhaseCore@@QAEPAXI@Z  100bfb40 f i Scene.obj
 0001:000beb70       ?purgePairs@Scene@@AAEXXZ  100bfb70 f   Scene.obj
 0001:000bebc0       ?growMeshTags@Scene@@QAEXI@Z 100bfbc0 f   Scene.obj
 0001:000beca0       ?growObjectTags@Scene@@QAEXI@Z 100bfca0 f   Scene.obj
 0001:000becb0       ?releaseTagData@Scene@@QAEXXZ 100bfcb0 f   Scene.obj
 0001:000becc0       ?setGravity@Scene@@UAEXABVNxVec3@@@Z 100bfcc0 f   Scene.obj
 0001:000becf0       ?getGravity@Scene@@UBE?AVNxVec3@@XZ 100bfcf0 f   Scene.obj
 0001:000bed10       ?deletePairFlag@Scene@@AAEXAAVShape@@0@Z 100bfd10 f   Scene.obj
 0001:000bed70       ?getShapePairFlags@Scene@@UBEIAAVNvShape@@0@Z 100bfd70 f   Scene.obj
 0001:000bedc0       ?removePairFlags@Scene@@UAEXAAVNvShape@@@Z 100bfdc0 f   Scene.obj
 0001:000bee30       ?getNbPairs@Scene@@UBEIXZ  100bfe30 f   Scene.obj
 0001:000bee40       ?flushStream@Scene@@UAEXXZ 100bfe40 f   Scene.obj
 0001:000bee50       ?setSubStepSize@Scene@@UAEXM@Z 100bfe50 f   Scene.obj
 0001:000bee70       ?getSubStepSize@Scene@@UBEMXZ 100bfe70 f   Scene.obj
 0001:000bee80       ?getVisualization@Scene@@UAE?AVNxDebugRenderable@@XZ 100bfe80 f   Scene.obj
 0001:000beea0       ??1PRUNERCREATE@Opcode@@QAE@XZ 100bfea0 f i Scene.obj
 0001:000beeb0       ?setUserTriggerReport@Scene@@UAEXPAVNxUserTriggerReport@@@Z 100bfeb0 f   Scene.obj
 0001:000beec0       ?getUserTriggerReport@Scene@@UBEPAVNxUserTriggerReport@@XZ 100bfec0 f   Scene.obj
 0001:000beed0       ?setUserContactReport@Scene@@UAEXPAVNxUserContactReport@@@Z 100bfed0 f   Scene.obj
 0001:000beee0       ?getUserContactReport@Scene@@UBEPAVNxUserContactReport@@XZ 100bfee0 f   Scene.obj
 0001:000beef0       ?getNbJoints@Scene@@UBEIXZ 100bfef0 f   Scene.obj
 0001:000bef00       ?getNbEffectors@Scene@@UBEIXZ 100bff00 f   Scene.obj
 0001:000bef10       ?queueEvent@Scene@@QAEXPAVNvQueuedEvent@@@Z 100bff10 f   Scene.obj
 0001:000bef30       ?addEffector@Scene@@QAEXAAVNvSpringAndDamperEffector@@@Z 100bff30 f   Scene.obj
 0001:000bef60       ?removeEffector@Scene@@UAEXPAVNvSpringAndDamperEffector@@@Z 100bff60 f   Scene.obj
 0001:000bf000       ?getQueuedEvents@Scene@@UAEPAVNvQueuedEvent@@XZ 100c0000 f   Scene.obj
 0001:000bf010       ?prepareEffectors@Scene@@AAEXXZ 100c0010 f   Scene.obj
 0001:000bf040       ?processCallbacks@Scene@@AAEXXZ 100c0040 f   Scene.obj
 0001:000bf0a0       ?wait@Scene@@QAE_NW4NxStandardFences@@_N@Z 100c00a0 f   Scene.obj
 0001:000bf0b0       ?fireQueuedContactCallbacks@Scene@@AAEXXZ 100c00b0 f   Scene.obj
 0001:000bf140       ?getLimits@Scene@@UBEXAAVNxSceneLimits@@@Z 100c0140 f   Scene.obj
 0001:000bf170       ?createCloth@Scene@@UAEPAVNvCloth@@ABVNxClothDesc@@@Z 100c0170 f   Scene.obj
 0001:000bf240       ?setLimits@Scene@@QAEXABVNxSceneLimits@@@Z 100c0240 f   Scene.obj
 0001:000bf270       ?checkJointBreakage@Scene@@QAEXXZ 100c0270 f   Scene.obj
 0001:000bf2a0       ?getNbStaticShapes@Scene@@UBEIXZ 100c02a0 f   Scene.obj
 0001:000bf2b0       ?getNbDynamicShapes@Scene@@UBEIXZ 100c02b0 f   Scene.obj
 0001:000bf2c0       ?getTotalNbShapes@Scene@@UBEIXZ 100c02c0 f   Scene.obj
 0001:000bf2d0       ?setClothManager@Scene@@QAEXPAVClothManager@@@Z 100c02d0 f   Scene.obj
 0001:000bf2e0       ?getClothManager@Scene@@QAEPAVClothManager@@XZ 100c02e0 f   Scene.obj
 0001:000bf2f0       ?getStats@Scene@@UBEXAAVNxSceneStats@@@Z 100c02f0 f   Scene.obj
 0001:000bf300       ?lockScene@Scene@@QAEXXZ   100c0300 f   Scene.obj
 0001:000bf310       ?release@Scene@@UAEXXZ     100c0310 f   Scene.obj
 0001:000bf330       ?getVRDReport@Scene@@UAEXPAVNvVRDReporter@@@Z 100c0330 f   Scene.obj
 0001:000bf340       ?releaseMaterial@Scene@@UAEXPAVNvMaterial@@@Z 100c0340 f   Scene.obj
 0001:000bf380       ?createSpringAndDamperEffector@Scene@@UAEPAVNvSpringAndDamperEffector@@XZ 100c0380 f   Scene.obj
 0001:000bf410       ?getGroupCollisionFlag@Scene@@UBE_NGG@Z 100c0410 f   Scene.obj
 0001:000bf470       ?getActiveGroups@Scene@@UBEIG@Z 100c0470 f   Scene.obj
 0001:000bf4a0       ?setActorGroupPairFlags@Scene@@UAEXGGI@Z 100c04a0 f   Scene.obj
 0001:000bf4e0       ?getActorGroupPairFlags@Scene@@UBEIGG@Z 100c04e0 f   Scene.obj
 0001:000bf510       ?getNbActorGroupPairs@Scene@@UBEIXZ 100c0510 f   Scene.obj
 0001:000bf520       ?getActorGroupPairArray@Scene@@UBEIPAUNxActorGroupPair@@IAAI@Z 100c0520 f   Scene.obj
 0001:000bf580       ?setU32CollisionFlag@Scene@@AAEXII_N@Z 100c0580 f   Scene.obj
 0001:000bf620       ?setFilterOps@Scene@@UAEXW4NxFilterOp@@00@Z 100c0620 f   Scene.obj
 0001:000bf660       ?setFilterBool@Scene@@UAEX_N@Z 100c0660 f   Scene.obj
 0001:000bf680       ?setFilterConstant0@Scene@@UAEXABVNxGroupsMask@@@Z 100c0680 f   Scene.obj
 0001:000bf6c0       ?setFilterConstant1@Scene@@UAEXABVNxGroupsMask@@@Z 100c06c0 f   Scene.obj
 0001:000bf700       ?getFilterOps@Scene@@UBEXAAW4NxFilterOp@@00@Z 100c0700 f   Scene.obj
 0001:000bf730       ?getFilterBool@Scene@@UBE_NXZ 100c0730 f   Scene.obj
 0001:000bf740       ?getFilterConstant0@Scene@@UBE?AVNxGroupsMask@@XZ 100c0740 f   Scene.obj
 0001:000bf770       ?getFilterConstant1@Scene@@UBE?AVNxGroupsMask@@XZ 100c0770 f   Scene.obj
 0001:000bf7a0       ?createRawBounds@Scene@@UAEPAVNvRawBounds@@ABVNxBounds3@@@Z 100c07a0 f   Scene.obj
 0001:000bf7c0       ?releaseRawBounds@Scene@@UAEXAAVNvRawBounds@@@Z 100c07c0 f   Scene.obj
 0001:000bf7d0       ?setRawBoundsReport@Scene@@UAEXPAVNvUserRawBoundsReport@@@Z 100c07d0 f   Scene.obj
 0001:000bf7e0       ?flushCaches@Scene@@UAEXXZ 100c07e0 f   Scene.obj
 0001:000bf7f0       ?readProfileData@Scene@@UAEPAVNxProfilerData@@_N@Z 100c07f0 f   Scene.obj
 0001:000bf800       ?purgeTriggerShape@Scene@@QAEXPAVShape@@@Z 100c0800 f   Scene.obj
 0001:000bf810       ??0NxActiveTransform@@QAE@XZ 100c0810 f i Scene.obj
 0001:000bf830       ??1NxActiveTransform@@QAE@XZ 100c0830 f i Scene.obj
 0001:000bf840       ?updateFromSDKParameters@Scene@@AAEXXZ 100c0840 f   Scene.obj
 0001:000bf920       ?getShapesFrom@Scene@@QAEXPBVPxInteractionMarker@@AAPAVShape@@1@Z 100c0920 f   Scene.obj
 0001:000bf990       ?getBoundForIslandSize@Scene@@UAEIPAVNvBody@@@Z 100c0990 f   Scene.obj
 0001:000bfa20       ??0?$NxArray@IVUserAllocatorAccess@NxFoundation@@@@QAE@XZ 100c0a20 f i Scene.obj
 0001:000bfa30       ?size@?$NxArray@UProfileName@NxFoundation@@VUserAllocatorAccess@2@@@QBEIXZ 100c0a30 f i Scene.obj
 0001:000bfa60       ??0?$NxArray@VNxProfileZone@@VUserAllocatorAccess@NxFoundation@@@@QAE@XZ 100c0a60 f i Scene.obj
 0001:000bfa70       ??0?$NxArray@PAVProfiler@NxFoundation@@VUserAllocatorAccess@2@@@QAE@XZ 100c0a70 f i Scene.obj
 0001:000bfa80       ?size@?$NxArray@PAVProfiler@NxFoundation@@VUserAllocatorAccess@2@@@QBEIXZ 100c0a80 f i Scene.obj
 0001:000bfa90       ??A?$NxArray@PAVProfiler@NxFoundation@@VUserAllocatorAccess@2@@@QAEAAPAVProfiler@NxFoundation@@I@Z 100c0a90 f i Scene.obj
 0001:000bfaa0       ??0?$NxArray@PBDVUserAllocatorAccess@NxFoundation@@@@QAE@XZ 100c0aa0 f i Scene.obj
 0001:000bfab0       ?size@?$NxArray@PBDVUserAllocatorAccess@NxFoundation@@@@QBEIXZ 100c0ab0 f i Scene.obj
 0001:000bfac0       ??A?$NxArray@PBDVUserAllocatorAccess@NxFoundation@@@@QAEAAPBDI@Z 100c0ac0 f i Scene.obj
 0001:000bfad0       ?size@?$NxArray@UNxSceneStatistic@@VNxAllocatorDefault@@@@QBEIXZ 100c0ad0 f i Scene.obj
 0001:000bfae0       ?front@?$NxArray@UNxSceneStatistic@@VNxAllocatorDefault@@@@QAEAAUNxSceneStatistic@@XZ 100c0ae0 f i Scene.obj
 0001:000bfaf0       ??A?$NxArray@IVNxAllocatorDefault@@@@QAEAAII@Z 100c0af0 f i Scene.obj
 0001:000bfb00       ?size@?$NxArray@PAVPxActor@@VUserAllocatorAccess@NxFoundation@@@@QBEIXZ 100c0b00 f i Scene.obj
 0001:000bfb10       ??A?$NxArray@PAVPxActor@@VUserAllocatorAccess@NxFoundation@@@@QBEABQAVPxActor@@I@Z 100c0b10 f i Scene.obj
 0001:000bfb20       ?begin@?$NxArray@PAVPxActor@@VUserAllocatorAccess@NxFoundation@@@@QBEPBQAVPxActor@@XZ 100c0b20 f i Scene.obj
 0001:000bfb30       ?end@?$NxArray@PAVPxActor@@VUserAllocatorAccess@NxFoundation@@@@QBEPBQAVPxActor@@XZ 100c0b30 f i Scene.obj
 0001:000bfb40       ?size@?$NxArray@HVUserAllocatorAccess@NxFoundation@@@@QBEIXZ 100c0b40 f i Scene.obj
 0001:000bfb50       ??A?$NxArray@HVUserAllocatorAccess@NxFoundation@@@@QBEABHI@Z 100c0b50 f i Scene.obj
 0001:000bfb60       ??A?$NxArray@_NVUserAllocatorAccess@NxFoundation@@@@QBEAB_NI@Z 100c0b60 f i Scene.obj
 0001:000bfb70       ??0?$PxIterator@QAVPxActor@@@@QAE@PBQAVPxActor@@0@Z 100c0b70 f i Scene.obj
 0001:000bfb90       ??E?$PxIterator@QAVPxActor@@@@QAEAAV0@XZ 100c0b90 f i Scene.obj
 0001:000bfba0       ??D?$PxIterator@QAVPxActor@@@@QAEPBQAVPxActor@@XZ 100c0ba0 f i Scene.obj
 0001:000bfbb0       ?end@?$PxIterator@QAVPxActor@@@@QBEPBQAVPxActor@@XZ 100c0bb0 f i Scene.obj
 0001:000bfbc0       ?skip@?$PxIterator@QAVPxActor@@@@QAEXI@Z 100c0bc0 f i Scene.obj
 0001:000bfbf0       ?size@?$PxIterator@QAVPxActor@@@@QBEIXZ 100c0bf0 f i Scene.obj
 0001:000bfc00       ?reset@?$PxIterator@QAVPxInteraction@@@@QAEXXZ 100c0c00 f i Scene.obj
 0001:000bfc10       ?size@?$NxArray@PAVCloth@@VUserAllocatorAccess@NxFoundation@@@@QBEIXZ 100c0c10 f i Scene.obj
 0001:000bfc20       ??0?$NxArray@PAVJoint@@VUserAllocatorAccess@NxFoundation@@@@QAE@XZ 100c0c20 f i Scene.obj
 0001:000bfc30       ??A?$NxArray@PAVJoint@@VUserAllocatorAccess@NxFoundation@@@@QAEAAPAVJoint@@I@Z 100c0c30 f i Scene.obj
 0001:000bfc40       ?begin@?$NxArray@PAVJoint@@VUserAllocatorAccess@NxFoundation@@@@QAEPAPAVJoint@@XZ 100c0c40 f i Scene.obj
 0001:000bfc50       ?end@?$NxArray@PAVJoint@@VUserAllocatorAccess@NxFoundation@@@@QAEPAPAVJoint@@XZ 100c0c50 f i Scene.obj
 0001:000bfc60       ??0?$NxArray@PAVWheelShape@@VUserAllocatorAccess@NxFoundation@@@@QAE@XZ 100c0c60 f i Scene.obj
 0001:000bfc70       ?size@?$NxArray@PAVWheelShape@@VUserAllocatorAccess@NxFoundation@@@@QBEIXZ 100c0c70 f i Scene.obj
 0001:000bfc80       ?popBack@?$NxArray@PAVWheelShape@@VUserAllocatorAccess@NxFoundation@@@@QAEXXZ 100c0c80 f i Scene.obj
 0001:000bfc90       ??A?$NxArray@PAVWheelShape@@VUserAllocatorAccess@NxFoundation@@@@QAEAAPAVWheelShape@@I@Z 100c0c90 f i Scene.obj
 0001:000bfca0       ?begin@?$NxArray@PAVWheelShape@@VUserAllocatorAccess@NxFoundation@@@@QAEPAPAVWheelShape@@XZ 100c0ca0 f i Scene.obj
 0001:000bfcb0       ?end@?$NxArray@PAVWheelShape@@VUserAllocatorAccess@NxFoundation@@@@QAEPAPAVWheelShape@@XZ 100c0cb0 f i Scene.obj
 0001:000bfcc0       ?back@?$NxArray@PAVWheelShape@@VUserAllocatorAccess@NxFoundation@@@@QAEAAPAVWheelShape@@XZ 100c0cc0 f i Scene.obj
 0001:000bfcd0       ??0?$NxArray@UShapePairWTriggerFlag@@VUserAllocatorAccess@NxFoundation@@@@QAE@XZ 100c0cd0 f i Scene.obj
 0001:000bfce0       ??A?$NxArray@UShapePairWTriggerFlag@@VUserAllocatorAccess@NxFoundation@@@@QAEAAUShapePairWTriggerFlag@@I@Z 100c0ce0 f i Scene.obj
 0001:000bfd00       ??0?$NxArray@PAVNvImplicitScreenMesh@@VUserAllocatorAccess@NxFoundation@@@@QAE@XZ 100c0d00 f i Scene.obj
 0001:000bfd10       ?size@?$NxArray@PAVNvImplicitScreenMesh@@VUserAllocatorAccess@NxFoundation@@@@QBEIXZ 100c0d10 f i Scene.obj
 0001:000bfd20       ??A?$NxArray@PAVNvImplicitScreenMesh@@VUserAllocatorAccess@NxFoundation@@@@QAEAAPAVNvImplicitScreenMesh@@I@Z 100c0d20 f i Scene.obj
 0001:000bfd30       ?begin@?$NxArray@PAVNvImplicitScreenMesh@@VUserAllocatorAccess@NxFoundation@@@@QAEPAPAVNvImplicitScreenMesh@@XZ 100c0d30 f i Scene.obj
 0001:000bfd40       ??0?$NxArray@PAVMaterial@@VUserAllocatorAccess@NxFoundation@@@@QAE@XZ 100c0d40 f i Scene.obj
 0001:000bfd50       ?begin@?$NxArray@PAVMaterial@@VUserAllocatorAccess@NxFoundation@@@@QAEPAPAVMaterial@@XZ 100c0d50 f i Scene.obj
 0001:000bfd60       ?end@?$NxArray@PAVMaterial@@VUserAllocatorAccess@NxFoundation@@@@QAEPAPAVMaterial@@XZ 100c0d60 f i Scene.obj
 0001:000bfd70       ??0?$NxArray@PAVNxActor@@VUserAllocatorAccess@NxFoundation@@@@QAE@XZ 100c0d70 f i Scene.obj
 0001:000bfd80       ?size@?$NxArray@PAVNxActor@@VUserAllocatorAccess@NxFoundation@@@@QBEIXZ 100c0d80 f i Scene.obj
 0001:000bfd90       ??A?$NxArray@PAVNxActor@@VUserAllocatorAccess@NxFoundation@@@@QAEAAPAVNxActor@@I@Z 100c0d90 f i Scene.obj
 0001:000bfda0       ??0?$NxArray@UNxActiveTransform@@VUserAllocatorAccess@NxFoundation@@@@QAE@XZ 100c0da0 f i Scene.obj
 0001:000bfdb0       ?size@?$NxArray@UNxActiveTransform@@VUserAllocatorAccess@NxFoundation@@@@QBEIXZ 100c0db0 f i Scene.obj
 0001:000bfde0       ?begin@?$NxArray@UNxActiveTransform@@VUserAllocatorAccess@NxFoundation@@@@QAEPAUNxActiveTransform@@XZ 100c0de0 f i Scene.obj
 0001:000bfdf0       ??0?$NxArray@PAVBody@@VUserAllocatorAccess@NxFoundation@@@@QAE@XZ 100c0df0 f i Scene.obj
 0001:000bfe00       ?size@?$NxArray@PAVBody@@VUserAllocatorAccess@NxFoundation@@@@QBEIXZ 100c0e00 f i Scene.obj
 0001:000bfe10       ??A?$NxArray@PAVBody@@VUserAllocatorAccess@NxFoundation@@@@QAEAAPAVBody@@I@Z 100c0e10 f i Scene.obj
 0001:000bfe20       ??0?$NxArray@PAVShapeInstancePair@@VUserAllocatorAccess@NxFoundation@@@@QAE@XZ 100c0e20 f i Scene.obj
 0001:000bfe30       ?size@?$NxArray@PAVShapeInstancePair@@VUserAllocatorAccess@NxFoundation@@@@QBEIXZ 100c0e30 f i Scene.obj
 0001:000bfe40       ??A?$NxArray@PAVShapeInstancePair@@VUserAllocatorAccess@NxFoundation@@@@QAEAAPAVShapeInstancePair@@I@Z 100c0e40 f i Scene.obj
 0001:000bfe50       ??0?$NxArray@PAVPxInteractionMarker@@VUserAllocatorAccess@NxFoundation@@@@QAE@XZ 100c0e50 f i Scene.obj
 0001:000bfe60       ?size@?$NxArray@PAVPxInteractionMarker@@VUserAllocatorAccess@NxFoundation@@@@QBEIXZ 100c0e60 f i Scene.obj
 0001:000bfe70       ??A?$NxArray@PAVPxInteractionMarker@@VUserAllocatorAccess@NxFoundation@@@@QAEAAPAVPxInteractionMarker@@I@Z 100c0e70 f i Scene.obj
 0001:000bfe80       ??0?$NxArray@USimpleBodyPair@Scene@@VUserAllocatorAccess@NxFoundation@@@@QAE@XZ 100c0e80 f i Scene.obj
 0001:000bfe90       ??A?$NxArray@USimpleBodyPair@Scene@@VUserAllocatorAccess@NxFoundation@@@@QAEAAUSimpleBodyPair@Scene@@I@Z 100c0e90 f i Scene.obj
 0001:000bfea0       ??0?$NxArray@PAVTriangleMeshShape@@VUserAllocatorAccess@NxFoundation@@@@QAE@XZ 100c0ea0 f i Scene.obj
 0001:000bfeb0       ?size@?$NxArray@PAVTriangleMeshShape@@VUserAllocatorAccess@NxFoundation@@@@QBEIXZ 100c0eb0 f i Scene.obj
 0001:000bfec0       ??A?$NxArray@PAVTriangleMeshShape@@VUserAllocatorAccess@NxFoundation@@@@QAEAAPAVTriangleMeshShape@@I@Z 100c0ec0 f i Scene.obj
 0001:000bfed0       ??0?$NxArray@PAVPageBoundsInteraction@@VUserAllocatorAccess@NxFoundation@@@@QAE@XZ 100c0ed0 f i Scene.obj
 0001:000bfee0       ?size@?$NxArray@PAVPageBoundsInteraction@@VUserAllocatorAccess@NxFoundation@@@@QBEIXZ 100c0ee0 f i Scene.obj
 0001:000bfef0       ??A?$NxArray@PAVPageBoundsInteraction@@VUserAllocatorAccess@NxFoundation@@@@QAEAAPAVPageBoundsInteraction@@I@Z 100c0ef0 f i Scene.obj
 0001:000bff00       ??4NxActiveTransform@@QAEAAU0@ABU0@@Z 100c0f00 f i Scene.obj
 0001:000bff50       ?deallocate@?$NxArray@UProfileName@NxFoundation@@VUserAllocatorAccess@2@@@AAEXPAUProfileName@NxFoundation@@@Z 100c0f50 f i Scene.obj
 0001:000bff70       ?destroy@?$NxArray@UProfileName@NxFoundation@@VUserAllocatorAccess@2@@@AAEXPAUProfileName@NxFoundation@@0@Z 100c0f70 f i Scene.obj
 0001:000bff80       ?deallocate@?$NxArray@VNxProfileZone@@VUserAllocatorAccess@NxFoundation@@@@AAEXPAVNxProfileZone@@@Z 100c0f80 f i Scene.obj
 0001:000bffa0       ?destroy@?$NxArray@VNxProfileZone@@VUserAllocatorAccess@NxFoundation@@@@AAEXPAVNxProfileZone@@0@Z 100c0fa0 f i Scene.obj
 0001:000bffb0       ?begin@?$NxArray@PAVProfiler@NxFoundation@@VUserAllocatorAccess@2@@@QAEPAPAVProfiler@NxFoundation@@XZ 100c0fb0 f i Scene.obj
 0001:000bffc0       ?end@?$NxArray@PAVProfiler@NxFoundation@@VUserAllocatorAccess@2@@@QAEPAPAVProfiler@NxFoundation@@XZ 100c0fc0 f i Scene.obj
 0001:000bffd0       ?deallocate@?$NxArray@PAVProfiler@NxFoundation@@VUserAllocatorAccess@2@@@AAEXPAPAVProfiler@NxFoundation@@@Z 100c0fd0 f i Scene.obj
 0001:000bfff0       ?destroy@?$NxArray@PAVProfiler@NxFoundation@@VUserAllocatorAccess@2@@@AAEXPAPAVProfiler@NxFoundation@@0@Z 100c0ff0 f i Scene.obj
 0001:000c0000       ?begin@?$NxArray@PBDVUserAllocatorAccess@NxFoundation@@@@QAEPAPBDXZ 100c1000 f i Scene.obj
 0001:000c0010       ?end@?$NxArray@PBDVUserAllocatorAccess@NxFoundation@@@@QAEPAPBDXZ 100c1010 f i Scene.obj
 0001:000c0020       ?reallocate@?$NxArray@PBDVUserAllocatorAccess@NxFoundation@@@@AAEPAPBDIPAPBD@Z 100c1020 f i Scene.obj
 0001:000c0050       ?deallocate@?$NxArray@PBDVUserAllocatorAccess@NxFoundation@@@@AAEXPAPBD@Z 100c1050 f i Scene.obj
 0001:000c0070       ?destroy@?$NxArray@PBDVUserAllocatorAccess@NxFoundation@@@@AAEXPAPBD0@Z 100c1070 f i Scene.obj
 0001:000c0080       ?deallocate@?$NxArray@UNxSceneStatistic@@VNxAllocatorDefault@@@@AAEXPAUNxSceneStatistic@@@Z 100c1080 f i Scene.obj
 0001:000c00a0       ?destroy@?$NxArray@UNxSceneStatistic@@VNxAllocatorDefault@@@@AAEXPAUNxSceneStatistic@@0@Z 100c10a0 f i Scene.obj
 0001:000c00b0       ?deallocate@?$NxArray@IVNxAllocatorDefault@@@@AAEXPAI@Z 100c10b0 f i Scene.obj
 0001:000c00d0       ?destroy@?$NxArray@IVNxAllocatorDefault@@@@AAEXPAI0@Z 100c10d0 f i Scene.obj
 0001:000c00e0       ?popBack@?$NxArray@PAVJoint@@VUserAllocatorAccess@NxFoundation@@@@QAEXXZ 100c10e0 f i Scene.obj
 0001:000c00f0       ?deallocate@?$NxArray@PAVWheelShape@@VUserAllocatorAccess@NxFoundation@@@@AAEXPAPAVWheelShape@@@Z 100c10f0 f i Scene.obj
 0001:000c0110       ?destroy@?$NxArray@PAVWheelShape@@VUserAllocatorAccess@NxFoundation@@@@AAEXPAPAVWheelShape@@0@Z 100c1110 f i Scene.obj
 0001:000c0120       ?popBack@?$NxArray@PAVNvImplicitScreenMesh@@VUserAllocatorAccess@NxFoundation@@@@QAEXXZ 100c1120 f i Scene.obj
 0001:000c0130       ?end@?$NxArray@PAVNvImplicitScreenMesh@@VUserAllocatorAccess@NxFoundation@@@@QAEPAPAVNvImplicitScreenMesh@@XZ 100c1130 f i Scene.obj
 0001:000c0140       ?back@?$NxArray@PAVNvImplicitScreenMesh@@VUserAllocatorAccess@NxFoundation@@@@QAEAAPAVNvImplicitScreenMesh@@XZ 100c1140 f i Scene.obj
 0001:000c0150       ?deallocate@?$NxArray@PAVNvImplicitScreenMesh@@VUserAllocatorAccess@NxFoundation@@@@AAEXPAPAVNvImplicitScreenMesh@@@Z 100c1150 f i Scene.obj
 0001:000c0170       ?destroy@?$NxArray@PAVNvImplicitScreenMesh@@VUserAllocatorAccess@NxFoundation@@@@AAEXPAPAVNvImplicitScreenMesh@@0@Z 100c1170 f i Scene.obj
 0001:000c0180       ?deallocate@?$NxArray@PAVMaterial@@VUserAllocatorAccess@NxFoundation@@@@AAEXPAPAVMaterial@@@Z 100c1180 f i Scene.obj
 0001:000c01a0       ?destroy@?$NxArray@PAVMaterial@@VUserAllocatorAccess@NxFoundation@@@@AAEXPAPAVMaterial@@0@Z 100c11a0 f i Scene.obj
 0001:000c01b0       ?popBack@?$NxArray@PAVNxActor@@VUserAllocatorAccess@NxFoundation@@@@QAEXXZ 100c11b0 f i Scene.obj
 0001:000c01c0       ?back@?$NxArray@PAVNxActor@@VUserAllocatorAccess@NxFoundation@@@@QAEAAPAVNxActor@@XZ 100c11c0 f i Scene.obj
 0001:000c01d0       ?deallocate@?$NxArray@PAVNxActor@@VUserAllocatorAccess@NxFoundation@@@@AAEXPAPAVNxActor@@@Z 100c11d0 f i Scene.obj
 0001:000c01f0       ?destroy@?$NxArray@PAVNxActor@@VUserAllocatorAccess@NxFoundation@@@@AAEXPAPAVNxActor@@0@Z 100c11f0 f i Scene.obj
 0001:000c0200       ?end@?$NxArray@UNxActiveTransform@@VUserAllocatorAccess@NxFoundation@@@@QAEPAUNxActiveTransform@@XZ 100c1200 f i Scene.obj
 0001:000c0210       ?deallocate@?$NxArray@UNxActiveTransform@@VUserAllocatorAccess@NxFoundation@@@@AAEXPAUNxActiveTransform@@@Z 100c1210 f i Scene.obj
 0001:000c0230       ?popBack@?$NxArray@PAVBody@@VUserAllocatorAccess@NxFoundation@@@@QAEXXZ 100c1230 f i Scene.obj
 0001:000c0240       ?begin@?$NxArray@PAVBody@@VUserAllocatorAccess@NxFoundation@@@@QAEPAPAVBody@@XZ 100c1240 f i Scene.obj
 0001:000c0250       ?end@?$NxArray@PAVBody@@VUserAllocatorAccess@NxFoundation@@@@QAEPAPAVBody@@XZ 100c1250 f i Scene.obj
 0001:000c0260       ?back@?$NxArray@PAVBody@@VUserAllocatorAccess@NxFoundation@@@@QAEAAPAVBody@@XZ 100c1260 f i Scene.obj
 0001:000c0270       ?deallocate@?$NxArray@PAVBody@@VUserAllocatorAccess@NxFoundation@@@@AAEXPAPAVBody@@@Z 100c1270 f i Scene.obj
 0001:000c0290       ?destroy@?$NxArray@PAVBody@@VUserAllocatorAccess@NxFoundation@@@@AAEXPAPAVBody@@0@Z 100c1290 f i Scene.obj
 0001:000c02a0       ?popBack@?$NxArray@PAVShapeInstancePair@@VUserAllocatorAccess@NxFoundation@@@@QAEXXZ 100c12a0 f i Scene.obj
 0001:000c02b0       ?begin@?$NxArray@PAVShapeInstancePair@@VUserAllocatorAccess@NxFoundation@@@@QAEPAPAVShapeInstancePair@@XZ 100c12b0 f i Scene.obj
 0001:000c02c0       ?end@?$NxArray@PAVShapeInstancePair@@VUserAllocatorAccess@NxFoundation@@@@QAEPAPAVShapeInstancePair@@XZ 100c12c0 f i Scene.obj
 0001:000c02d0       ?back@?$NxArray@PAVShapeInstancePair@@VUserAllocatorAccess@NxFoundation@@@@QAEAAPAVShapeInstancePair@@XZ 100c12d0 f i Scene.obj
 0001:000c02e0       ?deallocate@?$NxArray@PAVShapeInstancePair@@VUserAllocatorAccess@NxFoundation@@@@AAEXPAPAVShapeInstancePair@@@Z 100c12e0 f i Scene.obj
 0001:000c0300       ?destroy@?$NxArray@PAVShapeInstancePair@@VUserAllocatorAccess@NxFoundation@@@@AAEXPAPAVShapeInstancePair@@0@Z 100c1300 f i Scene.obj
 0001:000c0310       ?popBack@?$NxArray@PAVPxInteractionMarker@@VUserAllocatorAccess@NxFoundation@@@@QAEXXZ 100c1310 f i Scene.obj
 0001:000c0320       ?begin@?$NxArray@PAVPxInteractionMarker@@VUserAllocatorAccess@NxFoundation@@@@QAEPAPAVPxInteractionMarker@@XZ 100c1320 f i Scene.obj
 0001:000c0330       ?end@?$NxArray@PAVPxInteractionMarker@@VUserAllocatorAccess@NxFoundation@@@@QAEPAPAVPxInteractionMarker@@XZ 100c1330 f i Scene.obj
 0001:000c0340       ?back@?$NxArray@PAVPxInteractionMarker@@VUserAllocatorAccess@NxFoundation@@@@QAEAAPAVPxInteractionMarker@@XZ 100c1340 f i Scene.obj
 0001:000c0350       ?deallocate@?$NxArray@PAVPxInteractionMarker@@VUserAllocatorAccess@NxFoundation@@@@AAEXPAPAVPxInteractionMarker@@@Z 100c1350 f i Scene.obj
 0001:000c0370       ?destroy@?$NxArray@PAVPxInteractionMarker@@VUserAllocatorAccess@NxFoundation@@@@AAEXPAPAVPxInteractionMarker@@0@Z 100c1370 f i Scene.obj
 0001:000c0380       ?begin@?$NxArray@USimpleBodyPair@Scene@@VUserAllocatorAccess@NxFoundation@@@@QAEPAUSimpleBodyPair@Scene@@XZ 100c1380 f i Scene.obj
 0001:000c0390       ?end@?$NxArray@USimpleBodyPair@Scene@@VUserAllocatorAccess@NxFoundation@@@@QAEPAUSimpleBodyPair@Scene@@XZ 100c1390 f i Scene.obj
 0001:000c03a0       ?popBack@?$NxArray@PAVTriangleMeshShape@@VUserAllocatorAccess@NxFoundation@@@@QAEXXZ 100c13a0 f i Scene.obj
 0001:000c03b0       ?begin@?$NxArray@PAVTriangleMeshShape@@VUserAllocatorAccess@NxFoundation@@@@QAEPAPAVTriangleMeshShape@@XZ 100c13b0 f i Scene.obj
 0001:000c03c0       ?end@?$NxArray@PAVTriangleMeshShape@@VUserAllocatorAccess@NxFoundation@@@@QAEPAPAVTriangleMeshShape@@XZ 100c13c0 f i Scene.obj
 0001:000c03d0       ?back@?$NxArray@PAVTriangleMeshShape@@VUserAllocatorAccess@NxFoundation@@@@QAEAAPAVTriangleMeshShape@@XZ 100c13d0 f i Scene.obj
 0001:000c03e0       ?deallocate@?$NxArray@PAVTriangleMeshShape@@VUserAllocatorAccess@NxFoundation@@@@AAEXPAPAVTriangleMeshShape@@@Z 100c13e0 f i Scene.obj
 0001:000c0400       ?destroy@?$NxArray@PAVTriangleMeshShape@@VUserAllocatorAccess@NxFoundation@@@@AAEXPAPAVTriangleMeshShape@@0@Z 100c1400 f i Scene.obj
 0001:000c0410       ?popBack@?$NxArray@PAVPageBoundsInteraction@@VUserAllocatorAccess@NxFoundation@@@@QAEXXZ 100c1410 f i Scene.obj
 0001:000c0420       ?begin@?$NxArray@PAVPageBoundsInteraction@@VUserAllocatorAccess@NxFoundation@@@@QAEPAPAVPageBoundsInteraction@@XZ 100c1420 f i Scene.obj
 0001:000c0430       ?end@?$NxArray@PAVPageBoundsInteraction@@VUserAllocatorAccess@NxFoundation@@@@QAEPAPAVPageBoundsInteraction@@XZ 100c1430 f i Scene.obj
 0001:000c0440       ?back@?$NxArray@PAVPageBoundsInteraction@@VUserAllocatorAccess@NxFoundation@@@@QAEAAPAVPageBoundsInteraction@@XZ 100c1440 f i Scene.obj
 0001:000c0450       ?deallocate@?$NxArray@PAVPageBoundsInteraction@@VUserAllocatorAccess@NxFoundation@@@@AAEXPAPAVPageBoundsInteraction@@@Z 100c1450 f i Scene.obj
 0001:000c0470       ?destroy@?$NxArray@PAVPageBoundsInteraction@@VUserAllocatorAccess@NxFoundation@@@@AAEXPAPAVPageBoundsInteraction@@0@Z 100c1470 f i Scene.obj
 0001:000c0480       ??0?$NxArray@PAVLowLevelThreadingTask@@VUserAllocatorAccess@NxFoundation@@@@QAE@XZ 100c1480 f i Scene.obj
 0001:000c0490       ??A?$NxArray@PAVLowLevelThreadingTask@@VUserAllocatorAccess@NxFoundation@@@@QAEAAPAVLowLevelThreadingTask@@I@Z 100c1490 f i Scene.obj
 0001:000c04a0       ??_GNxActiveTransform@@QAEPAXI@Z 100c14a0 f i Scene.obj
 0001:000c04c0       ?capacity@?$NxArray@PBDVUserAllocatorAccess@NxFoundation@@@@QBEIXZ 100c14c0 f i Scene.obj
 0001:000c04e0       ?fill@?$NxArray@PBDVUserAllocatorAccess@NxFoundation@@@@AAEXPAPBDIABQBD@Z 100c14e0 f i Scene.obj
 0001:000c0510       ?copy@?$NxArray@PBDVUserAllocatorAccess@NxFoundation@@@@AAEPAPBDPBQBD0PAPBD@Z 100c1510 f i Scene.obj
 0001:000c0540       ?capacity@?$NxArray@PAVWheelShape@@VUserAllocatorAccess@NxFoundation@@@@QBEIXZ 100c1540 f i Scene.obj
 0001:000c0560       ?copy@?$NxArray@PAVWheelShape@@VUserAllocatorAccess@NxFoundation@@@@AAEPAPAVWheelShape@@PBQAV2@0PAPAV2@@Z 100c1560 f i Scene.obj
 0001:000c0590       ?allocate@?$NxArray@PAVWheelShape@@VUserAllocatorAccess@NxFoundation@@@@AAEPAPAVWheelShape@@I@Z 100c1590 f i Scene.obj
 0001:000c05c0       ?capacity@?$NxArray@PAVMaterial@@VUserAllocatorAccess@NxFoundation@@@@QBEIXZ 100c15c0 f i Scene.obj
 0001:000c05e0       ?copy@?$NxArray@PAVMaterial@@VUserAllocatorAccess@NxFoundation@@@@AAEPAPAVMaterial@@PBQAV2@0PAPAV2@@Z 100c15e0 f i Scene.obj
 0001:000c0610       ?allocate@?$NxArray@PAVMaterial@@VUserAllocatorAccess@NxFoundation@@@@AAEPAPAVMaterial@@I@Z 100c1610 f i Scene.obj
 0001:000c0640       ?capacity@?$NxArray@PAVNxActor@@VUserAllocatorAccess@NxFoundation@@@@QBEIXZ 100c1640 f i Scene.obj
 0001:000c0660       ?copy@?$NxArray@PAVNxActor@@VUserAllocatorAccess@NxFoundation@@@@AAEPAPAVNxActor@@PBQAV2@0PAPAV2@@Z 100c1660 f i Scene.obj
 0001:000c0690       ?allocate@?$NxArray@PAVNxActor@@VUserAllocatorAccess@NxFoundation@@@@AAEPAPAVNxActor@@I@Z 100c1690 f i Scene.obj
 0001:000c06c0       ?capacity@?$NxArray@UNxActiveTransform@@VUserAllocatorAccess@NxFoundation@@@@QBEIXZ 100c16c0 f i Scene.obj
 0001:000c06f0       ?copy@?$NxArray@UNxActiveTransform@@VUserAllocatorAccess@NxFoundation@@@@AAEPAUNxActiveTransform@@PBU2@0PAU2@@Z 100c16f0 f i Scene.obj
 0001:000c0770       ?allocate@?$NxArray@UNxActiveTransform@@VUserAllocatorAccess@NxFoundation@@@@AAEPAUNxActiveTransform@@I@Z 100c1770 f i Scene.obj
 0001:000c07a0       ?capacity@?$NxArray@PAVBody@@VUserAllocatorAccess@NxFoundation@@@@QBEIXZ 100c17a0 f i Scene.obj
 0001:000c07c0       ?copy@?$NxArray@PAVBody@@VUserAllocatorAccess@NxFoundation@@@@AAEPAPAVBody@@PBQAV2@0PAPAV2@@Z 100c17c0 f i Scene.obj
 0001:000c07f0       ?allocate@?$NxArray@PAVBody@@VUserAllocatorAccess@NxFoundation@@@@AAEPAPAVBody@@I@Z 100c17f0 f i Scene.obj
 0001:000c0820       ?capacity@?$NxArray@PAVShapeInstancePair@@VUserAllocatorAccess@NxFoundation@@@@QBEIXZ 100c1820 f i Scene.obj
 0001:000c0840       ?copy@?$NxArray@PAVShapeInstancePair@@VUserAllocatorAccess@NxFoundation@@@@AAEPAPAVShapeInstancePair@@PBQAV2@0PAPAV2@@Z 100c1840 f i Scene.obj
 0001:000c0870       ?allocate@?$NxArray@PAVShapeInstancePair@@VUserAllocatorAccess@NxFoundation@@@@AAEPAPAVShapeInstancePair@@I@Z 100c1870 f i Scene.obj
 0001:000c08a0       ?capacity@?$NxArray@PAVPxInteractionMarker@@VUserAllocatorAccess@NxFoundation@@@@QBEIXZ 100c18a0 f i Scene.obj
 0001:000c08c0       ?copy@?$NxArray@PAVPxInteractionMarker@@VUserAllocatorAccess@NxFoundation@@@@AAEPAPAVPxInteractionMarker@@PBQAV2@0PAPAV2@@Z 100c18c0 f i Scene.obj
 0001:000c08f0       ?allocate@?$NxArray@PAVPxInteractionMarker@@VUserAllocatorAccess@NxFoundation@@@@AAEPAPAVPxInteractionMarker@@I@Z 100c18f0 f i Scene.obj
 0001:000c0920       ?capacity@?$NxArray@PAVPageBoundsInteraction@@VUserAllocatorAccess@NxFoundation@@@@QBEIXZ 100c1920 f i Scene.obj
 0001:000c0940       ?copy@?$NxArray@PAVPageBoundsInteraction@@VUserAllocatorAccess@NxFoundation@@@@AAEPAPAVPageBoundsInteraction@@PBQAV2@0PAPAV2@@Z 100c1940 f i Scene.obj
 0001:000c0970       ?allocate@?$NxArray@PAVPageBoundsInteraction@@VUserAllocatorAccess@NxFoundation@@@@AAEPAPAVPageBoundsInteraction@@I@Z 100c1970 f i Scene.obj
 0001:000c09a0       ?begin@?$NxArray@PAVLowLevelThreadingTask@@VUserAllocatorAccess@NxFoundation@@@@QAEPAPAVLowLevelThreadingTask@@XZ 100c19a0 f i Scene.obj
 0001:000c09b0       ?end@?$NxArray@PAVLowLevelThreadingTask@@VUserAllocatorAccess@NxFoundation@@@@QAEPAPAVLowLevelThreadingTask@@XZ 100c19b0 f i Scene.obj
 0001:000c09c0       ?allocate@?$NxArray@PBDVUserAllocatorAccess@NxFoundation@@@@AAEPAPBDI@Z 100c19c0 f i Scene.obj
 0001:000c09f0       ?capacity@?$NxArray@PAVNvImplicitScreenMesh@@VUserAllocatorAccess@NxFoundation@@@@QBEIXZ 100c19f0 f i Scene.obj
 0001:000c0a10       ?copy@?$NxArray@PAVNvImplicitScreenMesh@@VUserAllocatorAccess@NxFoundation@@@@AAEPAPAVNvImplicitScreenMesh@@PBQAV2@0PAPAV2@@Z 100c1a10 f i Scene.obj
 0001:000c0a40       ?allocate@?$NxArray@PAVNvImplicitScreenMesh@@VUserAllocatorAccess@NxFoundation@@@@AAEPAPAVNvImplicitScreenMesh@@I@Z 100c1a40 f i Scene.obj
 0001:000c0a70       ?Add@NxInterlocked@@SAHPCHH@Z 100c1a70 f i Scene.obj
 0001:000c0ab0       ?startProfile@Profiler@NxFoundation@@QAEXI@Z 100c1ab0 f i Scene.obj
 0001:000c0b80       ?endProfile@Profiler@NxFoundation@@QAEXI@Z 100c1b80 f i Scene.obj
 0001:000c0c60       ?createName@ProfilerManager@NxFoundation@@QAEXPBDI@Z 100c1c60 f i Scene.obj
 0001:000c0c80       ?startProfile@ProfilerManager@NxFoundation@@QAEXI@Z 100c1c80 f i Scene.obj
 0001:000c0d70       ?endProfile@ProfilerManager@NxFoundation@@QAEXI@Z 100c1d70 f i Scene.obj
 0001:000c0e70       ??0ProfileZone@NxFoundation@@QAE@IAAVProfilerManager@1@@Z 100c1e70 f i Scene.obj
 0001:000c0f80       ??1ProfileZone@NxFoundation@@QAE@XZ 100c1f80 f i Scene.obj
 0001:000c1080       ?addToStat@SceneStats2@@QAEXW4SceneStatisticEnum@@I@Z 100c2080 f i Scene.obj
 0001:000c10c0       ?setStat@SceneStats2@@QAEXW4SceneStatisticEnum@@H@Z 100c20c0 f i Scene.obj
 0001:000c1100       ?getEventIDs@SceneStats2@@QAEPAIXZ 100c2100 f i Scene.obj
 0001:000c1110       ?getActorCount@PxScene@@QBEIXZ 100c2110 f i Scene.obj
 0001:000c1120       ?getActors@PxScene@@QBE?AV?$PxIterator@QAVPxActor@@@@XZ 100c2120 f i Scene.obj
 0001:000c1140       ?getActiveActors@PxScene@@QBE?AV?$PxIterator@QAVPxActor@@@@XZ 100c2140 f i Scene.obj
 0001:000c1160       ?getIslandCount@PxScene@@QBEIXZ 100c2160 f i Scene.obj
 0001:000c1180       ?getIslandActors@PxScene@@QBE?AV?$PxIterator@QAVPxActor@@@@I@Z 100c2180 f i Scene.obj
 0001:000c1210       ?islandHasStaticContact@PxScene@@QBE_NI@Z 100c2210 f i Scene.obj
 0001:000c1230       ?incStaticShapes@SceneStats@@QAEXXZ 100c2230 f i Scene.obj
 0001:000c1280       ?decStaticShapes@SceneStats@@QAEXXZ 100c2280 f i Scene.obj
 0001:000c1290       ?incDynamicShapes@SceneStats@@QAEXXZ 100c2290 f i Scene.obj
 0001:000c12e0       ?decDynamicShapes@SceneStats@@QAEXXZ 100c22e0 f i Scene.obj
 0001:000c12f0       ?addAwakeGroupBodies@SceneStats@@QAEXI@Z 100c22f0 f i Scene.obj
 0001:000c1320       ?getNbCloths@ClothManager@@QBEIXZ 100c2320 f i Scene.obj
 0001:000c1330       ?syncFromLL@Body@@QAEXXZ   100c2330 f i Scene.obj
 0001:000c1490       ?swapBuffers@Body@@QAEXXZ  100c2490 f i Scene.obj
 0001:000c1570       ?swapBuffers@WheelShape@@QAEXXZ 100c2570 f i Scene.obj
 0001:000c15e0       ?createPairFlag@Scene@@AAEPBUuserPair@@AAVShape@@0I@Z 100c25e0 f   Scene.obj
 0001:000c1660       ?setShapePairFlags@Scene@@UAEXAAVNvShape@@0I@Z 100c2660 f   Scene.obj
 0001:000c16b0       ?getPairFlagArray@Scene@@UBEIPAVNxPairFlag@@I@Z 100c26b0 f   Scene.obj
 0001:000c18c0       ?onDeactivateShape@Scene@@QAEXPAVShape@@@Z 100c28c0 f   Scene.obj
 0001:000c1b20       ?createBroadPhase@Scene@@QAE_NPBVNxBounds3@@IIW4NxPruningStructure@@1@Z 100c2b20 f   Scene.obj
 0001:000c1c90       ?addBody@Scene@@QAEXAAVBody@@@Z 100c2c90 f   Scene.obj
 0001:000c1cc0       ?addToDeadJointList@Scene@@QAEXAAVJoint@@@Z 100c2cc0 f   Scene.obj
 0001:000c1d20       ?removeWheel@Scene@@QAEXPAVWheelShape@@@Z 100c2d20 f   Scene.obj
 0001:000c1d80       ?beforeNearPhase@Scene@@AAEXXZ 100c2d80 f   Scene.obj
 0001:000c1dc0       ?afterNearPhase@Scene@@AAEXXZ 100c2dc0 f   Scene.obj
 0001:000c1e30       ?visualizeBroadPhase@Local@?O@??visualize@Scene@@AAEXXZ@SAXAAV3@AAVDebugRenderable@NxFoundation@@I_N@Z 100c2e30 f   Scene.obj
 0001:000c1fd0       ?visualizeBroadPhase@Local@?BI@??visualize@Scene@@AAEXXZ@SAXAAV3@AAVDebugRenderable@NxFoundation@@@Z 100c2fd0 f   Scene.obj
 0001:000c2050       ?getNbImplicitScreenMeshes@Scene@@UBEIXZ 100c3050 f   Scene.obj
 0001:000c2070       ?getImplicitScreenMeshes@Scene@@UAEPAPAVNvImplicitScreenMesh@@XZ 100c3070 f   Scene.obj
 0001:000c2080       ?releaseCloth@Scene@@UAEXPAVNvCloth@@@Z 100c3080 f   Scene.obj
 0001:000c20e0       ?addSubShape@Scene@@QAEXAAVShape@@_N@Z 100c30e0 f   Scene.obj
 0001:000c28c0       ?removeSubShape@Scene@@QAEXAAVShape@@@Z 100c38c0 f   Scene.obj
 0001:000c2c10       ?getStats2@Scene@@UAEPAVNxSceneStats2@@PAPAI@Z 100c3c10 f   Scene.obj
 0001:000c2c70       ?getMaterial@Scene@@UAEPAVNvMaterial@@G@Z 100c3c70 f   Scene.obj
 0001:000c2cc0       ?getHighestMaterialIndex@Scene@@UBEGXZ 100c3cc0 f   Scene.obj
 0001:000c2ce0       ?getNxMaterialArray@Scene@@UAEIPAPAVNxMaterial@@IAAI@Z 100c3ce0 f   Scene.obj
 0001:000c2d70       ?createBody@Scene@@UAEPAVNvBody@@ABVNvBodyDesc@@PAVNvShape@@@Z 100c3d70 f   Scene.obj
 0001:000c2f10       ?setGroupCollisionFlag@Scene@@UAEXGG_N@Z 100c3f10 f   Scene.obj
 0001:000c2f30       ?getActiveTransforms@Scene@@UAEPAUNxActiveTransform@@AAI@Z 100c3f30 f   Scene.obj
 0001:000c2f80       ?onBodySleepStatUpdate@Scene@@QAEXPAVBody@@@Z 100c3f80 f   Scene.obj
 0001:000c2fb0       ?onBodyWakeUpStatUpdate@Scene@@QAEXPAVBody@@@Z 100c3fb0 f   Scene.obj
 0001:000c3620       ?getIslandArrayFromBody@Scene@@UAEIPAVNvBody@@PAPAVNxActor@@IAAI@Z 100c4620 f   Scene.obj
 0001:000c3780       ??1?$NxArray@IVUserAllocatorAccess@NxFoundation@@@@QAE@XZ 100c4780 f i Scene.obj
 0001:000c37c0       ??1?$NxArray@UProfileName@NxFoundation@@VUserAllocatorAccess@2@@@QAE@XZ 100c47c0 f i Scene.obj
 0001:000c3800       ??1?$NxArray@VNxProfileZone@@VUserAllocatorAccess@NxFoundation@@@@QAE@XZ 100c4800 f i Scene.obj
 0001:000c3840       ??1?$NxArray@PAVProfiler@NxFoundation@@VUserAllocatorAccess@2@@@QAE@XZ 100c4840 f i Scene.obj
 0001:000c3880       ?clear@?$NxArray@PAVProfiler@NxFoundation@@VUserAllocatorAccess@2@@@QAEXXZ 100c4880 f i Scene.obj
 0001:000c3890       ??1?$NxArray@PBDVUserAllocatorAccess@NxFoundation@@@@QAE@XZ 100c4890 f i Scene.obj
 0001:000c38d0       ??1?$NxArray@UNxSceneStatistic@@VNxAllocatorDefault@@@@QAE@XZ 100c48d0 f i Scene.obj
 0001:000c3910       ??1?$NxArray@IVNxAllocatorDefault@@@@QAE@XZ 100c4910 f i Scene.obj
 0001:000c3950       ??1?$NxArray@PAVJoint@@VUserAllocatorAccess@NxFoundation@@@@QAE@XZ 100c4950 f i Scene.obj
 0001:000c3990       ?pop_back@?$NxArray@PAVJoint@@VUserAllocatorAccess@NxFoundation@@@@QAEXXZ 100c4990 f i Scene.obj
 0001:000c39a0       ?clear@?$NxArray@PAVJoint@@VUserAllocatorAccess@NxFoundation@@@@QAEXXZ 100c49a0 f i Scene.obj
 0001:000c39b0       ??1?$NxArray@PAVWheelShape@@VUserAllocatorAccess@NxFoundation@@@@QAE@XZ 100c49b0 f i Scene.obj
 0001:000c39f0       ?clear@?$NxArray@PAVWheelShape@@VUserAllocatorAccess@NxFoundation@@@@QAEXXZ 100c49f0 f i Scene.obj
 0001:000c3a00       ??1?$NxArray@UShapePairWTriggerFlag@@VUserAllocatorAccess@NxFoundation@@@@QAE@XZ 100c4a00 f i Scene.obj
 0001:000c3a40       ?clear@?$NxArray@UShapePairWTriggerFlag@@VUserAllocatorAccess@NxFoundation@@@@QAEXXZ 100c4a40 f i Scene.obj
 0001:000c3a50       ??1?$NxArray@PAVNvImplicitScreenMesh@@VUserAllocatorAccess@NxFoundation@@@@QAE@XZ 100c4a50 f i Scene.obj
 0001:000c3a90       ?clear@?$NxArray@PAVNvImplicitScreenMesh@@VUserAllocatorAccess@NxFoundation@@@@QAEXXZ 100c4a90 f i Scene.obj
 0001:000c3aa0       ?replaceWithLast@?$NxArray@PAVNvImplicitScreenMesh@@VUserAllocatorAccess@NxFoundation@@@@QAEXI@Z 100c4aa0 f i Scene.obj
 0001:000c3ae0       ??1?$NxArray@PAVMaterial@@VUserAllocatorAccess@NxFoundation@@@@QAE@XZ 100c4ae0 f i Scene.obj
 0001:000c3b20       ??1?$NxArray@PAVNxActor@@VUserAllocatorAccess@NxFoundation@@@@QAE@XZ 100c4b20 f i Scene.obj
 0001:000c3b60       ?replaceWithLast@?$NxArray@PAVNxActor@@VUserAllocatorAccess@NxFoundation@@@@QAEXI@Z 100c4b60 f i Scene.obj
 0001:000c3ba0       ??1?$NxArray@PAVBody@@VUserAllocatorAccess@NxFoundation@@@@QAE@XZ 100c4ba0 f i Scene.obj
 0001:000c3be0       ?clear@?$NxArray@PAVBody@@VUserAllocatorAccess@NxFoundation@@@@QAEXXZ 100c4be0 f i Scene.obj
 0001:000c3bf0       ?replaceWithLast@?$NxArray@PAVBody@@VUserAllocatorAccess@NxFoundation@@@@QAEXI@Z 100c4bf0 f i Scene.obj
 0001:000c3c30       ??1?$NxArray@PAVShapeInstancePair@@VUserAllocatorAccess@NxFoundation@@@@QAE@XZ 100c4c30 f i Scene.obj
 0001:000c3c70       ?clear@?$NxArray@PAVShapeInstancePair@@VUserAllocatorAccess@NxFoundation@@@@QAEXXZ 100c4c70 f i Scene.obj
 0001:000c3c80       ?replaceWithLast@?$NxArray@PAVShapeInstancePair@@VUserAllocatorAccess@NxFoundation@@@@QAEXI@Z 100c4c80 f i Scene.obj
 0001:000c3cc0       ??1?$NxArray@PAVPxInteractionMarker@@VUserAllocatorAccess@NxFoundation@@@@QAE@XZ 100c4cc0 f i Scene.obj
 0001:000c3d00       ?clear@?$NxArray@PAVPxInteractionMarker@@VUserAllocatorAccess@NxFoundation@@@@QAEXXZ 100c4d00 f i Scene.obj
 0001:000c3d10       ?replaceWithLast@?$NxArray@PAVPxInteractionMarker@@VUserAllocatorAccess@NxFoundation@@@@QAEXI@Z 100c4d10 f i Scene.obj
 0001:000c3d50       ??1?$NxArray@USimpleBodyPair@Scene@@VUserAllocatorAccess@NxFoundation@@@@QAE@XZ 100c4d50 f i Scene.obj
 0001:000c3d90       ?clear@?$NxArray@USimpleBodyPair@Scene@@VUserAllocatorAccess@NxFoundation@@@@QAEXXZ 100c4d90 f i Scene.obj
 0001:000c3da0       ??1?$NxArray@PAVTriangleMeshShape@@VUserAllocatorAccess@NxFoundation@@@@QAE@XZ 100c4da0 f i Scene.obj
 0001:000c3de0       ?clear@?$NxArray@PAVTriangleMeshShape@@VUserAllocatorAccess@NxFoundation@@@@QAEXXZ 100c4de0 f i Scene.obj
 0001:000c3df0       ?replaceWithLast@?$NxArray@PAVTriangleMeshShape@@VUserAllocatorAccess@NxFoundation@@@@QAEXI@Z 100c4df0 f i Scene.obj
 0001:000c3e30       ??1?$NxArray@PAVPageBoundsInteraction@@VUserAllocatorAccess@NxFoundation@@@@QAE@XZ 100c4e30 f i Scene.obj
 0001:000c3e70       ?clear@?$NxArray@PAVPageBoundsInteraction@@VUserAllocatorAccess@NxFoundation@@@@QAEXXZ 100c4e70 f i Scene.obj
 0001:000c3e80       ?replaceWithLast@?$NxArray@PAVPageBoundsInteraction@@VUserAllocatorAccess@NxFoundation@@@@QAEXI@Z 100c4e80 f i Scene.obj
 0001:000c3ec0       ?erase@?$NxArray@PBDVUserAllocatorAccess@NxFoundation@@@@QAEXPAPBD0@Z 100c4ec0 f i Scene.obj
 0001:000c3f20       ?reserve@?$NxArray@PAVWheelShape@@VUserAllocatorAccess@NxFoundation@@@@QAEXI@Z 100c4f20 f i Scene.obj
 0001:000c3fd0       ?reserve@?$NxArray@PAVMaterial@@VUserAllocatorAccess@NxFoundation@@@@QAEXI@Z 100c4fd0 f i Scene.obj
 0001:000c4080       ?reserve@?$NxArray@PAVNxActor@@VUserAllocatorAccess@NxFoundation@@@@QAEXI@Z 100c5080 f i Scene.obj
 0001:000c4130       ?destroy@?$NxArray@UNxActiveTransform@@VUserAllocatorAccess@NxFoundation@@@@AAEXPAUNxActiveTransform@@0@Z 100c5130 f i Scene.obj
 0001:000c4140       ?reserve@?$NxArray@PAVBody@@VUserAllocatorAccess@NxFoundation@@@@QAEXI@Z 100c5140 f i Scene.obj
 0001:000c41f0       ?reserve@?$NxArray@PAVShapeInstancePair@@VUserAllocatorAccess@NxFoundation@@@@QAEXI@Z 100c51f0 f i Scene.obj
 0001:000c42a0       ?reserve@?$NxArray@PAVPxInteractionMarker@@VUserAllocatorAccess@NxFoundation@@@@QAEXI@Z 100c52a0 f i Scene.obj
 0001:000c4350       ?reserve@?$NxArray@PAVPageBoundsInteraction@@VUserAllocatorAccess@NxFoundation@@@@QAEXI@Z 100c5350 f i Scene.obj
 0001:000c4400       ??1?$NxArray@PAVLowLevelThreadingTask@@VUserAllocatorAccess@NxFoundation@@@@QAE@XZ 100c5400 f i Scene.obj
 0001:000c4440       ?clear@?$NxArray@PAVLowLevelThreadingTask@@VUserAllocatorAccess@NxFoundation@@@@QAEXXZ 100c5440 f i Scene.obj
 0001:000c4450       ?reserve@?$NxArray@PBDVUserAllocatorAccess@NxFoundation@@@@QAEXI@Z 100c5450 f i Scene.obj
 0001:000c4500       ?reserve@?$NxArray@PAVNvImplicitScreenMesh@@VUserAllocatorAccess@NxFoundation@@@@QAEXI@Z 100c5500 f i Scene.obj
 0001:000c45b0       ??0?$NxArraySDK@I@NxFoundation@@QAE@XZ 100c55b0 f i Scene.obj
 0001:000c45c0       ??1?$NxArraySDK@I@NxFoundation@@QAE@XZ 100c55c0 f i Scene.obj
 0001:000c4600       ??0?$NxArraySDK@PAVProfiler@NxFoundation@@@NxFoundation@@QAE@XZ 100c5600 f i Scene.obj
 0001:000c4610       ??1?$NxArraySDK@PAVProfiler@NxFoundation@@@NxFoundation@@QAE@XZ 100c5610 f i Scene.obj
 0001:000c4650       ??0?$NxArraySDK@PBD@NxFoundation@@QAE@XZ 100c5650 f i Scene.obj
 0001:000c4660       ??1?$NxArraySDK@PBD@NxFoundation@@QAE@XZ 100c5660 f i Scene.obj
 0001:000c46a0       ??0?$NxArraySDK@VNxProfileZone@@@NxFoundation@@QAE@XZ 100c56a0 f i Scene.obj
 0001:000c46b0       ??1?$NxArraySDK@VNxProfileZone@@@NxFoundation@@QAE@XZ 100c56b0 f i Scene.obj
 0001:000c46f0       ??1?$NxArraySDK@UProfileName@NxFoundation@@@NxFoundation@@QAE@XZ 100c56f0 f i Scene.obj
 0001:000c4730       ??0?$NxArraySDK@PAVJoint@@@NxFoundation@@QAE@XZ 100c5730 f i Scene.obj
 0001:000c4740       ??1?$NxArraySDK@PAVJoint@@@NxFoundation@@QAE@XZ 100c5740 f i Scene.obj
 0001:000c4780       ??0?$NxArraySDK@PAVWheelShape@@@NxFoundation@@QAE@XZ 100c5780 f i Scene.obj
 0001:000c4790       ??1?$NxArraySDK@PAVWheelShape@@@NxFoundation@@QAE@XZ 100c5790 f i Scene.obj
 0001:000c47d0       ??0?$NxArraySDK@UShapePairWTriggerFlag@@@NxFoundation@@QAE@XZ 100c57d0 f i Scene.obj
 0001:000c47e0       ??1?$NxArraySDK@UShapePairWTriggerFlag@@@NxFoundation@@QAE@XZ 100c57e0 f i Scene.obj
 0001:000c4820       ??0?$NxArraySDK@PAVNvImplicitScreenMesh@@@NxFoundation@@QAE@XZ 100c5820 f i Scene.obj
 0001:000c4830       ??1?$NxArraySDK@PAVNvImplicitScreenMesh@@@NxFoundation@@QAE@XZ 100c5830 f i Scene.obj
 0001:000c4870       ??0?$NxArraySDK@PAVMaterial@@@NxFoundation@@QAE@XZ 100c5870 f i Scene.obj
 0001:000c4880       ??1?$NxArraySDK@PAVMaterial@@@NxFoundation@@QAE@XZ 100c5880 f i Scene.obj
 0001:000c48c0       ??1IDPool@@QAE@XZ          100c58c0 f i Scene.obj
 0001:000c4900       ??1SceneStats2@@QAE@XZ     100c5900 f i Scene.obj
 0001:000c4950       ??0?$NxArraySDK@PAVNxActor@@@NxFoundation@@QAE@XZ 100c5950 f i Scene.obj
 0001:000c4960       ??1?$NxArraySDK@PAVNxActor@@@NxFoundation@@QAE@XZ 100c5960 f i Scene.obj
 0001:000c49a0       ??0?$NxArraySDK@PAVBody@@@NxFoundation@@QAE@XZ 100c59a0 f i Scene.obj
 0001:000c49b0       ??1?$NxArraySDK@PAVBody@@@NxFoundation@@QAE@XZ 100c59b0 f i Scene.obj
 0001:000c49f0       ??0?$NxArraySDK@PAVShapeInstancePair@@@NxFoundation@@QAE@XZ 100c59f0 f i Scene.obj
 0001:000c4a00       ??1?$NxArraySDK@PAVShapeInstancePair@@@NxFoundation@@QAE@XZ 100c5a00 f i Scene.obj
 0001:000c4a40       ??0?$NxArraySDK@PAVPxInteractionMarker@@@NxFoundation@@QAE@XZ 100c5a40 f i Scene.obj
 0001:000c4a50       ??1?$NxArraySDK@PAVPxInteractionMarker@@@NxFoundation@@QAE@XZ 100c5a50 f i Scene.obj
 0001:000c4a90       ??0?$NxArraySDK@USimpleBodyPair@Scene@@@NxFoundation@@QAE@XZ 100c5a90 f i Scene.obj
 0001:000c4aa0       ??1?$NxArraySDK@USimpleBodyPair@Scene@@@NxFoundation@@QAE@XZ 100c5aa0 f i Scene.obj
 0001:000c4ae0       ??0?$NxArraySDK@PAVTriangleMeshShape@@@NxFoundation@@QAE@XZ 100c5ae0 f i Scene.obj
 0001:000c4af0       ??1?$NxArraySDK@PAVTriangleMeshShape@@@NxFoundation@@QAE@XZ 100c5af0 f i Scene.obj
 0001:000c4b30       ??0?$NxArraySDK@PAVPageBoundsInteraction@@@NxFoundation@@QAE@XZ 100c5b30 f i Scene.obj
 0001:000c4b40       ??1?$NxArraySDK@PAVPageBoundsInteraction@@@NxFoundation@@QAE@XZ 100c5b40 f i Scene.obj
 0001:000c4b80       ?addShape@Scene@@QAEXAAVShape@@_N@Z 100c5b80 f   Scene.obj
 0001:000c5630       ?removeShape@Scene@@QAE_NAAVShape@@@Z 100c6630 f   Scene.obj
 0001:000c5970       ?removeJoint@Scene@@UAEXPAVNvJoint@@@Z 100c6970 f   Scene.obj
 0001:000c5bf0       ?prepareJoints@Scene@@AAEXXZ 100c6bf0 f   Scene.obj
 0001:000c5c90       ?stepSetup@Scene@@AAEXXZ   100c6c90 f   Scene.obj
 0001:000c6420       ?afterGenerateIslands@Scene@@AAEXXZ 100c7420 f   Scene.obj
 0001:000c6620       ?visualize@Scene@@AAEXXZ   100c7620 f   Scene.obj
 0001:000c6840       ?fireCallBacks@Scene@@UAEXXZ 100c7840 f   Scene.obj
 0001:000c6910       ?releaseImplicitScreenMesh@Scene@@UAEXPAVNvImplicitScreenMesh@@@Z 100c7910 f   Scene.obj
 0001:000c69e0       ?createShape@Scene@@UAEPAVNvShape@@ABVNvShapeDesc@@@Z 100c79e0 f   Scene.obj
 0001:000c6f40       ?doExecWheels@Scene@@QAEXXZ 100c7f40 f   Scene.obj
 0001:000c6fa0       ?removeFromDirtySipList@Scene@@QAE_NPAVShapeInstancePair@@@Z 100c7fa0 f   Scene.obj
 0001:000c7040       ?removeFromDirtySipMarkerList@Scene@@QAE_NPAVPxInteractionMarker@@@Z 100c8040 f   Scene.obj
 0001:000c70f0       ?removeFromDirtyBodyList@Scene@@QAE_NPAVBody@@@Z 100c80f0 f   Scene.obj
 0001:000c7180       ?removeFromPageUnmapList@Scene@@QAE_NPAVTriangleMeshShape@@@Z 100c8180 f   Scene.obj
 0001:000c7210       ?removeFromPbiDeactivationList@Scene@@QAE_NPAVPageBoundsInteraction@@@Z 100c8210 f   Scene.obj
 0001:000c72a0       ?pushBack@?$NxArray@PAVWheelShape@@VUserAllocatorAccess@NxFoundation@@@@QAEXABQAVWheelShape@@@Z 100c82a0 f i Scene.obj
 0001:000c7370       ?pushBack@?$NxArray@PAVMaterial@@VUserAllocatorAccess@NxFoundation@@@@QAEXABQAVMaterial@@@Z 100c8370 f i Scene.obj
 0001:000c7440       ?pushBack@?$NxArray@PAVNxActor@@VUserAllocatorAccess@NxFoundation@@@@QAEXABQAVNxActor@@@Z 100c8440 f i Scene.obj
 0001:000c7510       ??1?$NxArray@UNxActiveTransform@@VUserAllocatorAccess@NxFoundation@@@@QAE@XZ 100c8510 f i Scene.obj
 0001:000c7550       ?clear@?$NxArray@UNxActiveTransform@@VUserAllocatorAccess@NxFoundation@@@@QAEXXZ 100c8550 f i Scene.obj
 0001:000c7560       ?pushBack@?$NxArray@PAVBody@@VUserAllocatorAccess@NxFoundation@@@@QAEXABQAVBody@@@Z 100c8560 f i Scene.obj
 0001:000c7630       ?pushBack@?$NxArray@PAVShapeInstancePair@@VUserAllocatorAccess@NxFoundation@@@@QAEXABQAVShapeInstancePair@@@Z 100c8630 f i Scene.obj
 0001:000c7700       ?pushBack@?$NxArray@PAVPxInteractionMarker@@VUserAllocatorAccess@NxFoundation@@@@QAEXABQAVPxInteractionMarker@@@Z 100c8700 f i Scene.obj
 0001:000c77d0       ?pushBack@?$NxArray@PAVPageBoundsInteraction@@VUserAllocatorAccess@NxFoundation@@@@QAEXABQAVPageBoundsInteraction@@@Z 100c87d0 f i Scene.obj
 0001:000c78a0       ??0?$NxArraySDK@PAVLowLevelThreadingTask@@@NxFoundation@@QAE@XZ 100c88a0 f i Scene.obj
 0001:000c78b0       ??1?$NxArraySDK@PAVLowLevelThreadingTask@@@NxFoundation@@QAE@XZ 100c88b0 f i Scene.obj
 0001:000c78f0       ?insert@?$NxArray@PBDVUserAllocatorAccess@NxFoundation@@@@QAEXPAPBDIABQBD@Z 100c88f0 f i Scene.obj
 0001:000c7a50       ?pushBack@?$NxArray@PAVNvImplicitScreenMesh@@VUserAllocatorAccess@NxFoundation@@@@QAEXABQAVNvImplicitScreenMesh@@@Z 100c8a50 f i Scene.obj
 0001:000c7b20       ?reserve@?$NxArray@UNxActiveTransform@@VUserAllocatorAccess@NxFoundation@@@@QAEXI@Z 100c8b20 f i Scene.obj
 0001:000c7c50       ??0IDPool@@QAE@XZ          100c8c50 f i Scene.obj
 0001:000c7c70       ??0ProfilerManager@NxFoundation@@QAE@XZ 100c8c70 f i Scene.obj
 0001:000c7cb0       ??1Profiler@NxFoundation@@QAE@XZ 100c8cb0 f i Scene.obj
 0001:000c7d70       ??0?$NxArraySDK@UNxActiveTransform@@@NxFoundation@@QAE@XZ 100c8d70 f i Scene.obj
 0001:000c7d80       ??1?$NxArraySDK@UNxActiveTransform@@@NxFoundation@@QAE@XZ 100c8d80 f i Scene.obj
 0001:000c7dc0       ?removeShapeReferences@Scene@@QAEXAAVShape@@@Z 100c8dc0 f   Scene.obj
 0001:000c7e90       ?removeBody@Scene@@QAEXAAVBody@@@Z 100c8e90 f   Scene.obj
 0001:000c8050       ?addWheel@Scene@@QAEXPAVWheelShape@@@Z 100c9050 f   Scene.obj
 0001:000c8170       ?addWheelToExecList@Scene@@QAEXPAVWheelShape@@@Z 100c9170 f   Scene.obj
 0001:000c8270       ?beforeSolver@Scene@@AAEXXZ 100c9270 f   Scene.obj
 0001:000c83d0       ?afterSolver@Scene@@AAEXXZ 100c93d0 f   Scene.obj
 0001:000c8f30       ?createMaterial@Scene@@UAEPAVNvMaterial@@ABVNvMaterialDesc@@PAG@Z 100c9f30 f   Scene.obj
 0001:000c9190       ?onBodySleep@Scene@@QAEXPAVBody@@@Z 100ca190 f   Scene.obj
 0001:000c92b0       ?onBodyWakeUp@Scene@@QAEXPAVBody@@@Z 100ca2b0 f   Scene.obj
 0001:000c93d0       ?addToDirtySipList@Scene@@QAEXPAVShapeInstancePair@@@Z 100ca3d0 f   Scene.obj
 0001:000c9500       ?addToDirtySipMarkerList@Scene@@QAEXPAVPxInteractionMarker@@@Z 100ca500 f   Scene.obj
 0001:000c9630       ?addToDirtyBodyList@Scene@@QAEXPAVBody@@@Z 100ca630 f   Scene.obj
 0001:000c9760       ?addToPbiDeactivationList@Scene@@QAEXPAVPageBoundsInteraction@@@Z 100ca760 f   Scene.obj
 0001:000c9870       ?resize@?$NxArray@PBDVUserAllocatorAccess@NxFoundation@@@@QAEXIABQBD@Z 100ca870 f i Scene.obj
 0001:000c9a70       ?push_back@?$NxArray@PAVNvImplicitScreenMesh@@VUserAllocatorAccess@NxFoundation@@@@QAEXABQAVNvImplicitScreenMesh@@@Z 100caa70 f i Scene.obj
 0001:000c9b40       ?pushBack@?$NxArray@UNxActiveTransform@@VUserAllocatorAccess@NxFoundation@@@@QAEXABUNxActiveTransform@@@Z 100cab40 f i Scene.obj
 0001:000c9cf0       ??0?$TaskPool@VLowLevelThreadingTask@@@@QAE@XZ 100cacf0 f i Scene.obj
 0001:000c9e30       ??1?$TaskPool@VLowLevelThreadingTask@@@@QAE@XZ 100cae30 f i Scene.obj
 0001:000c9fb0       ?allocateNames@ProfilerManager@NxFoundation@@QAEXI@Z 100cafb0 f i Scene.obj
 0001:000ca1d0       ??_GProfiler@NxFoundation@@QAEPAXI@Z 100cb1d0 f i Scene.obj
 0001:000ca200       ??0LowLevelThreadingThunk@@QAE@IPAVNxUserScheduler@@PAVScene@@@Z 100cb200 f i Scene.obj
 0001:000ca370       ??1LowLevelThreadingThunk@@QAE@XZ 100cb370 f i Scene.obj
 0001:000ca380       ??_GLowLevelThreadingThunk@@QAEPAXI@Z 100cb380 f i Scene.obj
 0001:000ca3b0       ?addJoint@Scene@@QAEXAAVNvJoint@@@Z 100cb3b0 f   Scene.obj
 0001:000ca620       ?runSubstep@Scene@@AAEXXZ  100cb620 f   Scene.obj
 0001:000ca9f0       ?swapBuffers@Scene@@UAEXPAI@Z 100cb9f0 f   Scene.obj
 0001:000caff0       ?createImplicitScreenMesh@Scene@@UAEPAVNvImplicitScreenMesh@@ABVNvImplicitScreenMeshDesc@@@Z 100cbff0 f   Scene.obj
 0001:000cb1b0       ?createJoint@Scene@@UAEPAVNvJoint@@ABVNvJointDesc@@ABVNvJointPrismaticDesc@@@Z 100cc1b0 f   Scene.obj
 0001:000cb250       ?createJoint@Scene@@UAEPAVNvJoint@@ABVNvJointDesc@@ABVNvJointCylindricalDesc@@@Z 100cc250 f   Scene.obj
 0001:000cb2f0       ?createJoint@Scene@@UAEPAVNvJoint@@ABVNvJointDesc@@ABVNvJointPointOnLineDesc@@@Z 100cc2f0 f   Scene.obj
 0001:000cb390       ?createJoint@Scene@@UAEPAVNvJoint@@ABVNvJointDesc@@ABVNvJointPointOnPlaneDesc@@@Z 100cc390 f   Scene.obj
 0001:000cb430       ?createJoint@Scene@@UAEPAVNvJoint@@ABVNvJointDesc@@ABVNvJointFixedDesc@@@Z 100cc430 f   Scene.obj
 0001:000cb4d0       ?createJoint@Scene@@UAEPAVNvJoint@@ABVNvJointDesc@@ABVNvJointRevoluteDesc@@@Z 100cc4d0 f   Scene.obj
 0001:000cb570       ?createJoint@Scene@@UAEPAVNvJoint@@ABVNvJointDesc@@ABVNvJointSphereicalDesc@@@Z 100cc570 f   Scene.obj
 0001:000cb610       ?createJoint@Scene@@UAEPAVNvJoint@@ABVNvJointDesc@@ABVNvJointDistanceDesc@@@Z 100cc610 f   Scene.obj
 0001:000cb6b0       ?createJoint@Scene@@UAEPAVNvJoint@@ABVNvJointDesc@@ABVNvJointPulleyDesc@@@Z 100cc6b0 f   Scene.obj
 0001:000cb750       ?createJoint@Scene@@UAEPAVNvJoint@@ABVNvJointDesc@@ABVNvJointD6Desc@@@Z 100cc750 f   Scene.obj
 0001:000cb7f0       ?buildActiveTransforms@Scene@@UAEXXZ 100cc7f0 f   Scene.obj
 0001:000cbae0       ??1ProfilerManager@NxFoundation@@QAE@XZ 100ccae0 f i Scene.obj
 0001:000cbc30       ??0Scene@@QAE@ABVNvSceneDesc@@@Z 100ccc30 f   Scene.obj
 0001:000ce5c0       ?getHwSceneType@Scene@@UAEIXZ 100cf5c0 f i Scene.obj
 0001:000ce5d0       ?getPPUIndex@Scene@@UAEIXZ 100cf5d0 f i Scene.obj
 0001:000ce5e0       ?getMirrorManager@Scene@@UAEPAVNvMirrorManager@@XZ 100cf5e0 f i Scene.obj
 0001:000ce5f0       ?setMirrorManager@Scene@@UAEXPAVNvMirrorManager@@@Z 100cf5f0 f i Scene.obj
 0001:000ce600       ?notifyReleasePermanentlyMirroredShape@Scene@@UAEXPAVNvShape@@@Z 100cf600 f i Scene.obj
 0001:000ce610       ?createRawTriangleMesh@Scene@@UAEPAVNvRawTriangleMesh@@PBVNxTriangle@@IPBVNxBounds3@@1ABVNvMirrorManagerMeshClient@@_N@Z 100cf610 f i Scene.obj
 0001:000ce620       ?createRawTriangleMesh@Scene@@UAEPAVNvRawTriangleMesh@@PBVConvexMesh@@@Z 100cf620 f i Scene.obj
 0001:000ce630       ?createRawTriangleMesh@Scene@@UAEPAVNvRawTriangleMesh@@ABVNxPlane@@@Z 100cf630 f i Scene.obj
 0001:000ce640       ?releaseRawTriangleMesh@Scene@@UAE_NPAVNvRawTriangleMesh@@@Z 100cf640 f i Scene.obj
 0001:000ce650       ?cookFluidMeshHotspot@Scene@@UAE_NAAVNvMirrorManager@@ABVNvFluidMeshCookingDesc@@@Z 100cf650 f i Scene.obj
 0001:000ce660       ?createFluid@Scene@@UAEPAVNvFluid@@ABVNvFluidDesc@@@Z 100cf660 f i Scene.obj
 0001:000ce670       ?releaseFluid@Scene@@UAEXPAVNvFluid@@@Z 100cf670 f i Scene.obj
 0001:000ce680       ?getNbFluids@Scene@@UBEIXZ 100cf680 f i Scene.obj
 0001:000ce690       ?getFluids@Scene@@UAEPAPAVNvFluid@@XZ 100cf690 f i Scene.obj
 0001:000ce6a0       ?lockQueries@Scene@@UAEXXZ 100cf6a0 f i Scene.obj
 0001:000ce6f0       ?unlockQueries@Scene@@UAEXXZ 100cf6f0 f i Scene.obj
 0001:000ce720       ?getNxScene@Scene@@UAEPAVNxScene@@XZ 100cf720 f i Scene.obj
 0001:000ce730       ?getJointList@Scene@@UAEPAVNvJoint@@XZ 100cf730 f i Scene.obj
 0001:000ce740       ?getDeadJointList@Scene@@UAEPAVNvJoint@@XZ 100cf740 f i Scene.obj
 0001:000ce750       ?getEffectorList@Scene@@UAEPAVNvSpringAndDamperEffector@@XZ 100cf750 f i Scene.obj
 0001:000ce760       ?getDebugRenderable@Scene@@UAEAAVDebugRenderable@NxFoundation@@XZ 100cf760 f i Scene.obj
 0001:000ce770       ?getPxScene@Scene@@UAEPAVPxScene@@XZ 100cf770 f i Scene.obj
 0001:000ce780       ?getSimType@Scene@@UAEIXZ  100cf780 f i Scene.obj
 0001:000ce790       ?getNbCloths@Scene@@UBEIXZ 100cf790 f i Scene.obj
 0001:000ce7b0       ?getCloths@Scene@@UAEPAPAVNvCloth@@XZ 100cf7b0 f i Scene.obj
 0001:000ce7d0       ?getSleepBodies@Scene@@UAEPAPAVNxActor@@XZ 100cf7d0 f i Scene.obj
 0001:000ce7e0       ?getNbSleepBodies@Scene@@UAEIXZ 100cf7e0 f i Scene.obj
 0001:000ce800       ?getWokenBodies@Scene@@UAEPAPAVNxActor@@XZ 100cf800 f i Scene.obj
 0001:000ce810       ?getNbWokenBodies@Scene@@UAEIXZ 100cf810 f i Scene.obj
 0001:000ce830       ?clearSleepWakeBodies@Scene@@UAEXXZ 100cf830 f i Scene.obj
 0001:000ce850       ??1Scene@@UAE@XZ           100cf850 f   Scene.obj
 0001:000cef50       ?simulate@Scene@@UAEXI@Z   100cff50 f   Scene.obj
 0001:000cf290       ??_EScene@@UAEPAXI@Z       100d0290 f i Scene.obj
 0001:000cf290       ??_GScene@@UAEPAXI@Z       100d0290 f i Scene.obj
 0001:000cf2c0       ??KPoint@IceMaths@@QBE?AV01@M@Z 100d02c0 f i SceneCollisionQueries.obj
 0001:000cf300       ?GetUserData@PruningInterface@Opcode@@QBEPAXXZ 100d0300 f i SceneCollisionQueries.obj
 0001:000cf310       ?IsValid@Prunable@Opcode@@QBE_NXZ 100d0310 f i SceneCollisionQueries.obj
 0001:000cf320       ?GetNbPrunables@PrunedObjects@Opcode@@QBEIXZ 100d0320 f i SceneCollisionQueries.obj
 0001:000cf330       ?GetPrunables@PrunedObjects@Opcode@@QAEPAPAVPrunable@2@XZ 100d0330 f i SceneCollisionQueries.obj
 0001:000cf340       ?GetPrunables@PrunedObjects@Opcode@@QBEPAPBVPrunable@2@XZ 100d0340 f i SceneCollisionQueries.obj
 0001:000cf350       ?ResetObjects@PrunedObjects@Opcode@@QAEXXZ 100d0350 f i SceneCollisionQueries.obj
 0001:000cf370       ?GetNbPrunables@CulledObjects@Opcode@@QBEIXZ 100d0370 f i SceneCollisionQueries.obj
 0001:000cf380       ?GetData@CulledObjects@Opcode@@QBEPBIXZ 100d0380 f i SceneCollisionQueries.obj
 0001:000cf390       ?ResetObjects@CulledObjects@Opcode@@QAEXXZ 100d0390 f i SceneCollisionQueries.obj
 0001:000cf3b0       ?lockReader@NxReaderWriterLock@@QAEXXZ 100d03b0 f i SceneCollisionQueries.obj
 0001:000cf3f0       ?unlockReader@NxReaderWriterLock@@QAEXXZ 100d03f0 f i SceneCollisionQueries.obj
 0001:000cf420       ??0NxTakeReaderLock@@QAE@AAVNxReaderWriterLock@@@Z 100d0420 f i SceneCollisionQueries.obj
 0001:000cf470       ??1NxTakeReaderLock@@QAE@XZ 100d0470 f i SceneCollisionQueries.obj
 0001:000cf4a0       ?convertFlags@@YAIW4NxShapesType@@@Z 100d04a0 f i SceneCollisionQueries.obj
 0001:000cf4c0       ?isTriangleMesh@Shape@@QAEPAVTriangleMeshShape@@XZ 100d04c0 f i SceneCollisionQueries.obj
 0001:000cf4e0       ?NXToICE@@YAABVSphere@IceMaths@@ABVNxSphere@@@Z 100d04e0 f i SceneCollisionQueries.obj
 0001:000cf4f0       ?NXToICE@@YAABVLSS@IceMaths@@ABVNxCapsule@@@Z 100d04f0 f i SceneCollisionQueries.obj
 0001:000cf500       ?reportObjects@Scene@@ABEIIPAPAVPrunable@Opcode@@IPAPAVNxShape@@PAV?$NxUserEntityReport@PAVNxShape@@@@PBVNxGroupsMask@@_N@Z 100d0500 f   SceneCollisionQueries.obj
 0001:000cf600       ?acuteSphereReportObjects@Scene@@ABEIABVNxSphere@@IPAPAVPrunable@Opcode@@IPAPAVNxShape@@PAV?$NxUserEntityReport@PAVNxShape@@@@PBVNxGroupsMask@@@Z 100d0600 f   SceneCollisionQueries.obj
 0001:000cf700       ?acuteAABBReportObjects@Scene@@ABEIABVNxBounds3@@IPAPAVPrunable@Opcode@@IPAPAVNxShape@@PAV?$NxUserEntityReport@PAVNxShape@@@@PBVNxGroupsMask@@@Z 100d0700 f   SceneCollisionQueries.obj
 0001:000cf800       ?acuteOBBReportObjects@Scene@@ABEIABVNxBox@@IPAPAVPrunable@Opcode@@IPAPAVNxShape@@PAV?$NxUserEntityReport@PAVNxShape@@@@PBVNxGroupsMask@@@Z 100d0800 f   SceneCollisionQueries.obj
 0001:000cf900       ?acuteCapsuleReportObjects@Scene@@ABEIABVNxCapsule@@IPAPAVPrunable@Opcode@@IPAPAVNxShape@@PAV?$NxUserEntityReport@PAVNxShape@@@@PBVNxGroupsMask@@@Z 100d0900 f   SceneCollisionQueries.obj
 0001:000cfa00       ?cullShapes@Scene@@UAEIIPBVNxPlane@@W4NxShapesType@@IPAPAVNxShape@@PAV?$NxUserEntityReport@PAVNxShape@@@@IPBVNxGroupsMask@@@Z 100d0a00 f   SceneCollisionQueries.obj
 0001:000cfc20       ?checkOverlapSphere@Scene@@UAE_NABVNxSphere@@W4NxShapesType@@IPBVNxGroupsMask@@@Z 100d0c20 f   SceneCollisionQueries.obj
 0001:000cff00       ?checkOverlapAABB@Scene@@UAE_NABVNxBounds3@@W4NxShapesType@@IPBVNxGroupsMask@@@Z 100d0f00 f   SceneCollisionQueries.obj
 0001:000d01e0       ?checkOverlapOBB@Scene@@UAE_NABVNxBox@@W4NxShapesType@@IPBVNxGroupsMask@@@Z 100d11e0 f   SceneCollisionQueries.obj
 0001:000d05f0       ?checkOverlapCapsule@Scene@@UAE_NABVNxCapsule@@W4NxShapesType@@IPBVNxGroupsMask@@@Z 100d15f0 f   SceneCollisionQueries.obj
 0001:000d08d0       ??0SDK_SweptVolume@@QAE@XZ 100d18d0 f i SceneCollisionQueries.obj
 0001:000d08e0       ??1SDK_SweptVolume@@QAE@XZ 100d18e0 f i SceneCollisionQueries.obj
 0001:000d08f0       ??0SDK_SweptBox@@QAE@XZ    100d18f0 f i SceneCollisionQueries.obj
 0001:000d0900       ??1SDK_SweptBox@@QAE@XZ    100d1900 f i SceneCollisionQueries.obj
 0001:000d0910       ??0SDK_SweptCapsule@@QAE@XZ 100d1910 f i SceneCollisionQueries.obj
 0001:000d0920       ??1SDK_SweptCapsule@@QAE@XZ 100d1920 f i SceneCollisionQueries.obj
 0001:000d0930       ?createSweepCache@Scene@@UAEPAVNxSweepCache@@XZ 100d1930 f   SceneCollisionQueries.obj
 0001:000d09b0       ?releaseSweepCache@Scene@@UAEXPAVNxSweepCache@@@Z 100d19b0 f   SceneCollisionQueries.obj
 0001:000d09f0       ??0NxSweepQueryHit@@QAE@XZ 100d19f0 f i SceneCollisionQueries.obj
 0001:000d0a00       ??4NxSweepQueryHit@@QAEAAU0@ABU0@@Z 100d1a00 f i SceneCollisionQueries.obj
 0001:000d0a70       ??4NxBox@@QAEAAV0@ABV0@@Z  100d1a70 f i SceneCollisionQueries.obj
 0001:000d0ac0       ??4NxSegment@@QAEAAV0@ABV0@@Z 100d1ac0 f i SceneCollisionQueries.obj
 0001:000d0b00       ?size@?$NxArray@VNxTriangle@@VUserAllocatorAccess@NxFoundation@@@@QBEIXZ 100d1b00 f i SceneCollisionQueries.obj
 0001:000d0b20       ??4NxTriangle@@QAEAAV0@ABV0@@Z 100d1b20 f i SceneCollisionQueries.obj
 0001:000d0b70       ?capacity@?$NxArray@VNxTriangle@@VUserAllocatorAccess@NxFoundation@@@@QBEIXZ 100d1b70 f i SceneCollisionQueries.obj
 0001:000d0ba0       ?copy@?$NxArray@VNxTriangle@@VUserAllocatorAccess@NxFoundation@@@@AAEPAVNxTriangle@@PBV2@0PAV2@@Z 100d1ba0 f i SceneCollisionQueries.obj
 0001:000d0c30       ?allocate@?$NxArray@VNxTriangle@@VUserAllocatorAccess@NxFoundation@@@@AAEPAVNxTriangle@@I@Z 100d1c30 f i SceneCollisionQueries.obj
 0001:000d0c60       ?deallocate@?$NxArray@VNxTriangle@@VUserAllocatorAccess@NxFoundation@@@@AAEXPAVNxTriangle@@@Z 100d1c60 f i SceneCollisionQueries.obj
 0001:000d0c80       ??_GNxTriangle@@QAEPAXI@Z  100d1c80 f i SceneCollisionQueries.obj
 0001:000d0ca0       ?incStatInterlocked@SceneStats2@@QAEXW4SceneStatisticEnum@@@Z 100d1ca0 f i SceneCollisionQueries.obj
 0001:000d0cf0       ?overlapSphereShapes@Scene@@UAEIABVNxSphere@@W4NxShapesType@@IPAPAVNxShape@@PAV?$NxUserEntityReport@PAVNxShape@@@@IPBVNxGroupsMask@@_N@Z 100d1cf0 f   SceneCollisionQueries.obj
 0001:000d0f70       ?overlapAABBShapes@Scene@@UAEIABVNxBounds3@@W4NxShapesType@@IPAPAVNxShape@@PAV?$NxUserEntityReport@PAVNxShape@@@@IPBVNxGroupsMask@@_N@Z 100d1f70 f   SceneCollisionQueries.obj
 0001:000d11f0       ?overlapOBBShapes@Scene@@UAEIABVNxBox@@W4NxShapesType@@IPAPAVNxShape@@PAV?$NxUserEntityReport@PAVNxShape@@@@IPBVNxGroupsMask@@_N@Z 100d21f0 f   SceneCollisionQueries.obj
 0001:000d1560       ?overlapCapsuleShapes@Scene@@UAEIABVNxCapsule@@W4NxShapesType@@IPAPAVNxShape@@PAV?$NxUserEntityReport@PAVNxShape@@@@IPBVNxGroupsMask@@_N@Z 100d2560 f   SceneCollisionQueries.obj
 0001:000d1cf0       ??4NxCapsule@@QAEAAV0@ABV0@@Z 100d2cf0 f i SceneCollisionQueries.obj
 0001:000d1d30       ?destroy@?$NxArray@VNxTriangle@@VUserAllocatorAccess@NxFoundation@@@@AAEXPAVNxTriangle@@0@Z 100d2d30 f i SceneCollisionQueries.obj
 0001:000d1d40       ?coarseOverlapTest@@YA_NPAVShape@@ABVNxBox@@@Z 100d2d40 f i SceneCollisionQueries.obj
 0001:000d1e80       ?linearSweep@Scene@@QAEIABVSDK_SweptVolume@@ABVPrunedObjects@Opcode@@ABVNxBox@@ABVNxVec3@@IPAXIPAUNxSweepQueryHit@@PAV?$NxUserEntityReport@UNxSweepQueryHit@@@@IPBVNxGroupsMask@@PAVNxActor@@PAVNxShape@@@Z 100d2e80 f   SceneCollisionQueries.obj
 0001:000d2540       ?linearOBBSweep@Scene@@UAEIABVNxBox@@ABVNxVec3@@IPAXIPAUNxSweepQueryHit@@PAV?$NxUserEntityReport@UNxSweepQueryHit@@@@IPBVNxGroupsMask@@PAVNxActor@@PAVNxShape@@PAVPrunedObjects@Opcode@@@Z 100d3540 f   SceneCollisionQueries.obj
 0001:000d29f0       ?linearCapsuleSweep@Scene@@UAEIABVNxCapsule@@ABVNxVec3@@IPAXIPAUNxSweepQueryHit@@PAV?$NxUserEntityReport@UNxSweepQueryHit@@@@IPBVNxGroupsMask@@PAVNxActor@@PAVNxShape@@PAVPrunedObjects@Opcode@@@Z 100d39f0 f   SceneCollisionQueries.obj
 0001:000d2e90       ?reserve@?$NxArray@VNxTriangle@@VUserAllocatorAccess@NxFoundation@@@@QAEXI@Z 100d3e90 f i SceneCollisionQueries.obj
 0001:000d2fc0       ?pushBack@?$NxArray@VNxTriangle@@VUserAllocatorAccess@NxFoundation@@@@QAEXABVNxTriangle@@@Z 100d3fc0 f i SceneCollisionQueries.obj
 0001:000d3160       ?overlapAABBTriangles@Scene@@UAEIABVNxBounds3@@AAV?$NxArraySDK@VNxTriangle@@@NxFoundation@@@Z 100d4160 f   SceneCollisionQueries.obj
 0001:000d3e00       ?distance@NxVec3@@QBEMABV1@@Z 100d4e00 f i SceneRaycast.obj
 0001:000d3f40       ??0anyBoundsParams@@QAE@XZ 100d4f40 f i SceneRaycast.obj
 0001:000d3f50       ??1anyBoundsParams@@QAE@XZ 100d4f50 f i SceneRaycast.obj
 0001:000d3f60       ??4NxRay@@QAEAAV0@ABV0@@Z  100d4f60 f i SceneRaycast.obj
 0001:000d3fa0       ??0anyShapeParams@@QAE@XZ  100d4fa0 f i SceneRaycast.obj
 0001:000d3fb0       ??1anyShapeParams@@QAE@XZ  100d4fb0 f i SceneRaycast.obj
 0001:000d3fc0       ??0allBoundsParams@@QAE@XZ 100d4fc0 f i SceneRaycast.obj
 0001:000d3fd0       ??1allBoundsParams@@QAE@XZ 100d4fd0 f i SceneRaycast.obj
 0001:000d3fe0       ??0allShapesParams@@QAE@XZ 100d4fe0 f i SceneRaycast.obj
 0001:000d3ff0       ??1allShapesParams@@QAE@XZ 100d4ff0 f i SceneRaycast.obj
 0001:000d4000       ??0closestBoundsParams@@QAE@XZ 100d5000 f i SceneRaycast.obj
 0001:000d4010       ??1closestBoundsParams@@QAE@XZ 100d5010 f i SceneRaycast.obj
 0001:000d4020       ??0closestShapeParams@@QAE@XZ 100d5020 f i SceneRaycast.obj
 0001:000d4030       ??1closestShapeParams@@QAE@XZ 100d5030 f i SceneRaycast.obj
 0001:000d4260       ?raycastAnyShape@Scene@@UBE_NABVNxRay@@W4NxShapesType@@IMPBVNxGroupsMask@@PAPAVNxShape@@@Z 100d5260 f   SceneRaycast.obj
 0001:000d45a0       ?raycastAllShapes@Scene@@UBEIABVNxRay@@AAVNxUserRaycastReport@@W4NxShapesType@@IMIPBVNxGroupsMask@@@Z 100d55a0 f   SceneRaycast.obj
 0001:000d4830       ?raycastClosestShape@Scene@@UBEPAVNvShape@@ABVNxRay@@W4NxShapesType@@AAUNxRaycastHit@@IMIPBVNxGroupsMask@@PAPAVNxShape@@@Z 100d5830 f   SceneRaycast.obj
 0001:000d4fd0       ?raycastAnyBounds@Scene@@UBE_NABVNxRay@@W4NxShapesType@@IMPBVNxGroupsMask@@@Z 100d5fd0 f   SceneRaycast.obj
 0001:000d5250       ?raycastAllBounds@Scene@@UBEIABVNxRay@@AAVNxUserRaycastReport@@W4NxShapesType@@IMIPBVNxGroupsMask@@@Z 100d6250 f   SceneRaycast.obj
 0001:000d54e0       ?raycastClosestBounds@Scene@@UBEPAVNvShape@@ABVNxRay@@W4NxShapesType@@AAUNxRaycastHit@@IMIPBVNxGroupsMask@@@Z 100d64e0 f   SceneRaycast.obj
 0001:000d5830       ??0SceneStats@@QAE@XZ      100d6830 f   SceneStats.obj
 0001:000d5870       ?startStep@SceneStats@@QAEXXZ 100d6870 f   SceneStats.obj
 0001:000d5890       ?endStep@SceneStats@@QAEXXZ 100d6890 f   SceneStats.obj
 0001:000d58d0       ?readOut@SceneStats@@QBEXAAVNxSceneStats@@@Z 100d68d0 f   SceneStats.obj
 0001:000d5940       ?malloc@NxAllocatorDefault@@QAEPAXIW4NxMemoryType@@@Z 100d6940 f i SceneStats2.obj
 0001:000d5960       ?realloc@NxAllocatorDefault@@QAEPAXPAXI@Z 100d6960 f i SceneStats2.obj
 0001:000d5980       ??0?$NxArray@UNxSceneStatistic@@VNxAllocatorDefault@@@@QAE@XZ 100d6980 f i SceneStats2.obj
 0001:000d5990       ??A?$NxArray@UNxSceneStatistic@@VNxAllocatorDefault@@@@QBEABUNxSceneStatistic@@I@Z 100d6990 f i SceneStats2.obj
 0001:000d59b0       ??0?$NxArray@IVNxAllocatorDefault@@@@QAE@XZ 100d69b0 f i SceneStats2.obj
 0001:000d59c0       ?begin@?$NxArray@UNxSceneStatistic@@VNxAllocatorDefault@@@@QAEPAUNxSceneStatistic@@XZ 100d69c0 f i SceneStats2.obj
 0001:000d59d0       ?end@?$NxArray@UNxSceneStatistic@@VNxAllocatorDefault@@@@QAEPAUNxSceneStatistic@@XZ 100d69d0 f i SceneStats2.obj
 0001:000d59e0       ?reallocate@?$NxArray@UNxSceneStatistic@@VNxAllocatorDefault@@@@AAEPAUNxSceneStatistic@@IPAU2@@Z 100d69e0 f i SceneStats2.obj
 0001:000d5a00       ?size@?$NxArray@IVNxAllocatorDefault@@@@QBEIXZ 100d6a00 f i SceneStats2.obj
 0001:000d5a10       ?begin@?$NxArray@IVNxAllocatorDefault@@@@QAEPAIXZ 100d6a10 f i SceneStats2.obj
 0001:000d5a20       ?end@?$NxArray@IVNxAllocatorDefault@@@@QAEPAIXZ 100d6a20 f i SceneStats2.obj
 0001:000d5a30       ?reallocate@?$NxArray@IVNxAllocatorDefault@@@@AAEPAIIPAI@Z 100d6a30 f i SceneStats2.obj
 0001:000d5a60       ?capacity@?$NxArray@UNxSceneStatistic@@VNxAllocatorDefault@@@@QBEIXZ 100d6a60 f i SceneStats2.obj
 0001:000d5a80       ?fill@?$NxArray@UNxSceneStatistic@@VNxAllocatorDefault@@@@AAEXPAUNxSceneStatistic@@IABU2@@Z 100d6a80 f i SceneStats2.obj
 0001:000d5ad0       ?copy@?$NxArray@UNxSceneStatistic@@VNxAllocatorDefault@@@@AAEPAUNxSceneStatistic@@PBU2@0PAU2@@Z 100d6ad0 f i SceneStats2.obj
 0001:000d5b20       ?capacity@?$NxArray@IVNxAllocatorDefault@@@@QBEIXZ 100d6b20 f i SceneStats2.obj
 0001:000d5b40       ?fill@?$NxArray@IVNxAllocatorDefault@@@@AAEXPAIIABI@Z 100d6b40 f i SceneStats2.obj
 0001:000d5b70       ?copy@?$NxArray@IVNxAllocatorDefault@@@@AAEPAIPBI0PAI@Z 100d6b70 f i SceneStats2.obj
 0001:000d5ba0       ?allocate@?$NxArray@UNxSceneStatistic@@VNxAllocatorDefault@@@@AAEPAUNxSceneStatistic@@I@Z 100d6ba0 f i SceneStats2.obj
 0001:000d5bc0       ?allocate@?$NxArray@IVNxAllocatorDefault@@@@AAEPAII@Z 100d6bc0 f i SceneStats2.obj
 0001:000d5be0       ?startStep@SceneStats2@@QAEXXZ 100d6be0 f   SceneStats2.obj
 0001:000d5d90       ?endStep@SceneStats2@@QAEXXZ 100d6d90 f   SceneStats2.obj
 0001:000d5de0       ?readOut@SceneStats2@@QBEXAAVNxSceneStats2@@@Z 100d6de0 f   SceneStats2.obj
 0001:000d5e60       ?createStat@SceneStats2@@QAEXW4SceneStatisticEnum@@PBDI@Z 100d6e60 f   SceneStats2.obj
 0001:000d5ef0       ?erase@?$NxArray@UNxSceneStatistic@@VNxAllocatorDefault@@@@QAEXPAUNxSceneStatistic@@0@Z 100d6ef0 f i SceneStats2.obj
 0001:000d5f70       ?erase@?$NxArray@IVNxAllocatorDefault@@@@QAEXPAI0@Z 100d6f70 f i SceneStats2.obj
 0001:000d5fd0       ?reserve@?$NxArray@UNxSceneStatistic@@VNxAllocatorDefault@@@@QAEXI@Z 100d6fd0 f i SceneStats2.obj
 0001:000d60a0       ?reserve@?$NxArray@IVNxAllocatorDefault@@@@QAEXI@Z 100d70a0 f i SceneStats2.obj
 0001:000d6140       ?insert@?$NxArray@UNxSceneStatistic@@VNxAllocatorDefault@@@@QAEXPAUNxSceneStatistic@@IABU2@@Z 100d7140 f i SceneStats2.obj
 0001:000d6320       ?insert@?$NxArray@IVNxAllocatorDefault@@@@QAEXPAIIABI@Z 100d7320 f i SceneStats2.obj
 0001:000d6470       ?resize@?$NxArray@UNxSceneStatistic@@VNxAllocatorDefault@@@@QAEXIABUNxSceneStatistic@@@Z 100d7470 f i SceneStats2.obj
 0001:000d66d0       ?resize@?$NxArray@IVNxAllocatorDefault@@@@QAEXIABI@Z 100d76d0 f i SceneStats2.obj
 0001:000d68a0       ??0SceneStats2@@QAE@XZ     100d78a0 f   SceneStats2.obj
 0001:000d6cd0       ?Add@Container@IceCore@@QAEAAV12@M@Z 100d7cd0 f i SeparatingAxes.obj
 0001:000d6d10       ?AddVertex@Vertices@@QAEAAV1@ABVPoint@IceMaths@@@Z 100d7d10 f i SeparatingAxes.obj
 0001:000d6dc0       ?AddAxis@SeparatingAxes@@QAE_NABVPoint@IceMaths@@@Z 100d7dc0 f   SeparatingAxes.obj
 0001:000d6e90       ?flip@@YAGPBG@Z            100d7e90 f i Serialize.obj
 0001:000d6eb0       ?flip@@YAIPBI@Z            100d7eb0 f i Serialize.obj
 0001:000d6ee0       ?flip@@YAMPBM@Z            100d7ee0 f i Serialize.obj
 0001:000d6f20       ?storeByte@NxStream@@QAEAAV1@C@Z 100d7f20 f i Serialize.obj
 0001:000d6f30       ?littleEndian@@YADXZ       100d7f30 f i Serialize.obj
 0001:000d6f40       ?saveChunk@@YAXCCCCAAVNxStream@@@Z 100d7f40 f   Serialize.obj
 0001:000d6f80       ?readChunk@@YAXAAC000ABVNxStream@@@Z 100d7f80 f   Serialize.obj
 0001:000d6fd0       ?readWord@@YAG_NABVNxStream@@@Z 100d7fd0 f   Serialize.obj
 0001:000d7000       ?readDword@@YAI_NABVNxStream@@@Z 100d8000 f   Serialize.obj
 0001:000d7050       ?readFloat@@YAM_NABVNxStream@@@Z 100d8050 f   Serialize.obj
 0001:000d70a0       ?writeWord@@YAXG_NAAVNxStream@@@Z 100d80a0 f   Serialize.obj
 0001:000d70d0       ?writeDword@@YAXI_NAAVNxStream@@@Z 100d80d0 f   Serialize.obj
 0001:000d7110       ?writeFloat@@YAXM_NAAVNxStream@@@Z 100d8110 f   Serialize.obj
 0001:000d7150       ?readFloatBuffer@@YA_NPAMI_NABVNxStream@@@Z 100d8150 f   Serialize.obj
 0001:000d72b0       ?writeWordBuffer@@YAXPBGI_NAAVNxStream@@@Z 100d82b0 f   Serialize.obj
 0001:000d7310       ?writeFloatBuffer@@YAXPBMI_NAAVNxStream@@@Z 100d8310 f   Serialize.obj
 0001:000d7390       ?writeHeader@@YA_NCCCCI_NAAVNxStream@@@Z 100d8390 f   Serialize.obj
 0001:000d7460       ?readHeader@@YA_NCCCCAAIAA_NABVNxStream@@@Z 100d8460 f   Serialize.obj
 0001:000d7550       ?computeMaxIndex@@YAIPBII@Z 100d8550 f   Serialize.obj
 0001:000d7580       ?readIntBuffer@@YA_NPAII_NABVNxStream@@@Z 100d8580 f i Serialize.obj
 0001:000d7590       ?writeIntBuffer@@YAXPBII_NAAVNxStream@@@Z 100d8590 f i Serialize.obj
 0001:000d75a0       ?storeIndices@@YAXIIPBIAAVNxStream@@_N@Z 100d85a0 f   Serialize.obj
 0001:000d7680       ?readIndices@@YAXIIPAIABVNxStream@@_N@Z 100d8680 f   Serialize.obj
 0001:000d7750       ?SetCallback@PruningInterface@Opcode@@QAEXP6AXPAXAAVSphere@IceMaths@@@Z@Z 100d8750 f i Shape.obj
 0001:000d7760       ?SetCallback@PruningInterface@Opcode@@QAEXP6AXPAXAAVAABB@IceMaths@@@Z@Z 100d8760 f i Shape.obj
 0001:000d7770       ?SetUserData@PruningInterface@Opcode@@QAEXPAX@Z 100d8770 f i Shape.obj
 0001:000d7780       ?SetCullingGroups@Prunable@Opcode@@QAEXI@Z 100d8780 f i Shape.obj
 0001:000d7790       ??1NvShape@@IAE@XZ         100d8790 f i Shape.obj
 0001:000d77a0       ?getMemoryNeeds@SourceCCDSkeleton@@QAEXAAI00@Z 100d87a0 f i Shape.obj
 0001:000d7820       ?getPruningEngine@Scene@@QBEAAVPruningEngine@Opcode@@XZ 100d8820 f i Shape.obj
 0001:000d7830       ?forceManagerUpdate@ShapeInstancePair@@QAEXXZ 100d8830 f i Shape.obj
 0001:000d7880       ??0StaticActor@@QAE@AAVScene@@PAVShape@@@Z 100d8880 f   Shape.obj
 0001:000d78c0       ??1StaticActor@@EAE@XZ     100d88c0 f   Shape.obj
 0001:000d78d0       ?canDeactivate@StaticActor@@UBE_NXZ 100d88d0 f   Shape.obj
 0001:000d78e0       ?onActivate@StaticActor@@MAEXXZ 100d88e0 f   Shape.obj
 0001:000d78f0       ?onDeactivate@StaticActor@@MAEXXZ 100d88f0 f   Shape.obj
 0001:000d7900       ??0NvShape@@QAE@XZ         100d8900 f i Shape.obj
 0001:000d7910       ?release@Shape@@UAEXXZ     100d8910 f   Shape.obj
 0001:000d79b0       ?removeFromBroadPhase@Shape@@UAEXXZ 100d89b0 f   Shape.obj
 0001:000d7a20       ?getShape2ActorP@Shape@@UBE?AVNxVec3@@XZ 100d8a20 f   Shape.obj
 0001:000d7a50       ?getShape2ActorQ@Shape@@UBE?AVNxQuat@@XZ 100d8a50 f   Shape.obj
 0001:000d7a80       ?getCCDSkeleton@Shape@@UBEPAVNvCCDSkeleton@@XZ 100d8a80 f   Shape.obj
 0001:000d7a90       ?sizeChangeNotify@Shape@@QAEXXZ 100d8a90 f   Shape.obj
 0001:000d7b00       ?updateLowLevelShapeTransform@Shape@@UAEXXZ 100d8b00 f   Shape.obj
 0001:000d8580       ?getNvBody@Shape@@UBEPAVNvBody@@XZ 100d9580 f   Shape.obj
 0001:000d8590       ?getCCDSkeletonMemoryNeeds@Shape@@QBEXAAI00@Z 100d9590 f   Shape.obj
 0001:000d8650       ?getDebugColor@Shape@@QBEIXZ 100d9650 f   Shape.obj
 0001:000d8670       ?isValid@Shape@@UBE_NXZ    100d9670 f   Shape.obj
 0001:000d86d0       ?updateOnRelPoseChange@Shape@@QAEXXZ 100d96d0 f   Shape.obj
 0001:000d8720       ?removeSubShape@ShapeInstancePair@@QAEXPBVShape@@@Z 100d9720 f i Shape.obj
 0001:000d8870       ??_GStaticActor@@EAEPAXI@Z 100d9870 f i Shape.obj
 0001:000d8870       ??_EStaticActor@@EAEPAXI@Z 100d9870 f i Shape.obj
 0001:000d88a0       ??1Shape@@MAE@XZ           100d98a0 f   Shape.obj
 0001:000d8960       ?checkOverlapSphere@Shape@@UBE_NABVNxSphere@@@Z 100d9960 f i Shape.obj
 0001:000d8970       ?checkOverlapOBB@Shape@@UBE_NABVNxBox@@@Z 100d9970 f i Shape.obj
 0001:000d8980       ?checkOverlapAABB@Shape@@UBE_NABVNxBounds3@@@Z 100d9980 f i Shape.obj
 0001:000d8990       ?checkOverlapCapsule@Shape@@UBE_NABVNxCapsule@@@Z 100d9990 f i Shape.obj
 0001:000d89a0       ?setShape2ActorP@Shape@@UAEXABVNxVec3@@@Z 100d99a0 f   Shape.obj
 0001:000d8a50       ?setShape2ActorQ@Shape@@UAEXABVNxQuat@@@Z 100d9a50 f   Shape.obj
 0001:000d8bf0       ?setShape2ActorPQ@Shape@@UAEXABVNxVec3@@ABVNxQuat@@@Z 100d9bf0 f   Shape.obj
 0001:000d8de0       ?setCCDSkeleton@Shape@@UAEXPAVNvCCDSkeleton@@@Z 100d9de0 f   Shape.obj
 0001:000d8f40       ?updateBroadPhase@Shape@@UAEXXZ 100d9f40 f   Shape.obj
 0001:000d9050       ?visualize@Shape@@UBEXAAVDebugRenderable@NxFoundation@@@Z 100da050 f   Shape.obj
 0001:000d90a0       ?appendToCCDSkeleton@Shape@@QBEXAAVCCDSkeleton@@AAVNxQP@@@Z 100da0a0 f   Shape.obj
 0001:000d91e0       ?appendToCCDSkeleton2@Shape@@QBEXAAVCCDSkeleton2@@AAVNxQP@@ABVNxVec3@@2@Z 100da1e0 f   Shape.obj
 0001:000d9330       ?noEarlyPairFiltering@Shape@@QAE_NXZ 100da330 f   Shape.obj
 0001:000d93d0       ?getInteractions@Shape@@QAE?AV?$PxIterator@QAVPxInteraction@@@@XZ 100da3d0 f   Shape.obj
 0001:000d9440       ??_EShape@@MAEPAXI@Z       100da440 f i Shape.obj
 0001:000d9440       ??_GShape@@MAEPAXI@Z       100da440 f i Shape.obj
 0001:000d9470       ?computeWorldOBB@Shape@@QBEXAAVNxBox@@@Z 100da470 f   Shape.obj
 0001:000d9780       ?setShapeInstancePairsDirty@Shape@@QAEXPBV1@_N@Z 100da780 f   Shape.obj
 0001:000d9880       ?removeFromShapeInstancePairs@Shape@@QAEXXZ 100da880 f   Shape.obj
 0001:000d9a50       ?setGroupNonvirtual@Shape@@QAEXG@Z 100daa50 f   Shape.obj
 0001:000d9ad0       ?setGroupsMask@Shape@@UAEXABVNxGroupsMask@@@Z 100daad0 f   Shape.obj
 0001:000d9b10       ?setFlag@Shape@@QAEXW4NxShapeFlag@@_N@Z 100dab10 f   Shape.obj
 0001:000d9bd0       ?setMaterial@Shape@@UAEXG@Z 100dabd0 f   Shape.obj
 0001:000d9bf0       ?setSkinWidth@Shape@@UAEXM@Z 100dabf0 f   Shape.obj
 0001:000d9c10       ?setActorPublicFlags@Shape@@UAEXI@Z 100dac10 f   Shape.obj
 0001:000d9c30       ?setActorGroup@Shape@@UAEXG@Z 100dac30 f   Shape.obj
 0001:000d9c50       ??0Shape@@IAE@ABVNvShapeDesc@@PAVScene@@I@Z 100dac50 f   Shape.obj
 0001:000da180       ?setNotUsed@NxVec3@@QAEXXZ 100db180 f i ShapeInstancePair.obj
 0001:000da190       ??3NxAllocateable@NxFoundation@@SAXPAX0@Z 100db190 f i ShapeInstancePair.obj
 0001:000da1a0       ??AContainer@IceCore@@QAEAAII@Z 100db1a0 f i ShapeInstancePair.obj
 0001:000da1b0       ?GetNbHits@RadixSort@IceCore@@QBEIXZ 100db1b0 f i ShapeInstancePair.obj
 0001:000da1c0       ??0PxInteractionMarker@@QAE@AAVPxActor@@@Z 100db1c0 f i ShapeInstancePair.obj
 0001:000da1e0       ??1PxInteractionMarker@@QAE@XZ 100db1e0 f i ShapeInstancePair.obj
 0001:000da1f0       ?registerInteraction@PxInteraction@@IAEXXZ 100db1f0 f i ShapeInstancePair.obj
 0001:000da200       ?unregisterInteraction@PxInteraction@@IAEXXZ 100db200 f i ShapeInstancePair.obj
 0001:000da210       ?getMaterials@InternalTriangleMesh@@QAEPAGXZ 100db210 f i ShapeInstancePair.obj
 0001:000da220       ?getSkinWidthFast@Shape@@QBEMXZ 100db220 f i ShapeInstancePair.obj
 0001:000da230       ?different@@YA_NABVNxVec3@@0@Z 100db230 f i ShapeInstancePair.obj
 0001:000da260       ?output@ContactStream@@AAEXPBVNxShape@@@Z 100db260 f i ShapeInstancePair.obj
 0001:000da2a0       ?output@ContactStream@@AAEXI@Z 100db2a0 f i ShapeInstancePair.obj
 0001:000da2e0       ?output@ContactStream@@AAEXM@Z 100db2e0 f i ShapeInstancePair.obj
 0001:000da320       ?output@ContactStream@@AAEXABVNxVec3@@@Z 100db320 f i ShapeInstancePair.obj
 0001:000da370       ?increaseSlot@ContactStream@@AAEXI@Z 100db370 f i ShapeInstancePair.obj
 0001:000da390       ?increaseSlotLow16@ContactStream@@AAEXI@Z 100db390 f i ShapeInstancePair.obj
 0001:000da3b0       ??2ShapeInstancePair@@SAPAXIPAX@Z 100db3b0 f i ShapeInstancePair.obj
 0001:000da3c0       ??0OverlapMarkerPair@SIPPoolManager@@QAE@AAVPxActor@@0@Z 100db3c0 f i ShapeInstancePair.obj
 0001:000da400       ?getQP0@ShapeInstancePair@@ABE?BVNxQP@@XZ 100db400 f i ShapeInstancePair.obj
 0001:000da490       ?getQP1@ShapeInstancePair@@ABE?BVNxQP@@XZ 100db490 f i ShapeInstancePair.obj
 0001:000da520       ?getHeightFieldFast@HeightFieldShape@@QAEAAVHeightField@@XZ 100db520 f i ShapeInstancePair.obj
 0001:000da530       ?isActive@ShapeInstancePair@@UBE_NXZ 100db530 f   ShapeInstancePair.obj
 0001:000da560       ?updateActivityTransfer@ShapeInstancePair@@AAEXXZ 100db560 f   ShapeInstancePair.obj
 0001:000da640       ??0SIPPool@@QAE@PAVSIPPoolManager@@@Z 100db640 f   ShapeInstancePair.obj
 0001:000da660       ??1SIPPool@@QAE@XZ         100db660 f   ShapeInstancePair.obj
 0001:000da670       ?deallocateSIP@SIPPool@@QAEXPAVShapeInstancePair@@@Z 100db670 f   ShapeInstancePair.obj
 0001:000da6c0       ??_GSIPPool@@QAEPAXI@Z     100db6c0 f i ShapeInstancePair.obj
 0001:000da6f0       ?sortPools@SIPPoolManager@@QAEXXZ 100db6f0 f   ShapeInstancePair.obj
 0001:000da900       ?deleteInstance@SIPPoolManager@@QAEXPAVShapeInstancePair@@@Z 100db900 f   ShapeInstancePair.obj
 0001:000da9a0       ??0NxContactCallbackData@NxUserContactModify@@QAE@XZ 100db9a0 f i ShapeInstancePair.obj
 0001:000da9b0       ??0CombinedMaterial@MaterialCombiner@@QAE@XZ 100db9b0 f i ShapeInstancePair.obj
 0001:000da9c0       ??0ContactPoint@ShapeInstancePair@@QAE@XZ 100db9c0 f i ShapeInstancePair.obj
 0001:000da9d0       ??0PersistentContact@ShapeInstancePair@@QAE@XZ 100db9d0 f i ShapeInstancePair.obj
 0001:000da9e0       ?processWheelContact@ShapeInstancePair@@AAEXABVShape@@0MABVNxVec3@@1GGII@Z 100db9e0 f   ShapeInstancePair.obj
 0001:000daa90       ?updateAnisotropicContactConstraint@ShapeInstancePair@@AAEXAAVScene@@IPAPBVShape@@PAPBVNxMaterialDesc@@@Z 100dba90 f   ShapeInstancePair.obj
 0001:000db890       ?isManagerForcedSW@ShapeInstancePair@@QBE_NPAVTriangleMeshShape@@@Z 100dc890 f   ShapeInstancePair.obj
 0001:000db8e0       ?visualize@ShapeInstancePair@@QAEXAAVDebugRenderable@NxFoundation@@@Z 100dc8e0 f   ShapeInstancePair.obj
 0001:000dbc50       ??0?$NxArray@UPersistentContact@ShapeInstancePair@@VUserAllocatorAccess@NxFoundation@@@@QAE@XZ 100dcc50 f i ShapeInstancePair.obj
 0001:000dbc60       ?size@?$NxArray@UPersistentContact@ShapeInstancePair@@VUserAllocatorAccess@NxFoundation@@@@QBEIXZ 100dcc60 f i ShapeInstancePair.obj
 0001:000dbc80       ??A?$NxArray@UPersistentContact@ShapeInstancePair@@VUserAllocatorAccess@NxFoundation@@@@QAEAAUPersistentContact@ShapeInstancePair@@I@Z 100dcc80 f i ShapeInstancePair.obj
 0001:000dbca0       ??0?$NxArray@UContactPoint@ShapeInstancePair@@VUserAllocatorAccess@NxFoundation@@@@QAE@XZ 100dcca0 f i ShapeInstancePair.obj
 0001:000dbcb0       ?size@?$NxArray@UContactPoint@ShapeInstancePair@@VUserAllocatorAccess@NxFoundation@@@@QBEIXZ 100dccb0 f i ShapeInstancePair.obj
 0001:000dbcd0       ??A?$NxArray@UContactPoint@ShapeInstancePair@@VUserAllocatorAccess@NxFoundation@@@@QAEAAUContactPoint@ShapeInstancePair@@I@Z 100dccd0 f i ShapeInstancePair.obj
 0001:000dbcf0       ??4PersistentContact@ShapeInstancePair@@QAEAAU01@ABU01@@Z 100dccf0 f i ShapeInstancePair.obj
 0001:000dbe20       ??1OverlapMarkerPair@SIPPoolManager@@QAE@XZ 100dce20 f i ShapeInstancePair.obj
 0001:000dbe30       ??0?$SortedSet@PAX@@QAE@XZ 100dce30 f i ShapeInstancePair.obj
 0001:000dbe70       ??1?$SortedSet@PAX@@QAE@XZ 100dce70 f i ShapeInstancePair.obj
 0001:000dbea0       ?popBack@?$NxArray@UPersistentContact@ShapeInstancePair@@VUserAllocatorAccess@NxFoundation@@@@QAEXXZ 100dcea0 f i ShapeInstancePair.obj
 0001:000dbeb0       ?begin@?$NxArray@UPersistentContact@ShapeInstancePair@@VUserAllocatorAccess@NxFoundation@@@@QAEPAUPersistentContact@ShapeInstancePair@@XZ 100dceb0 f i ShapeInstancePair.obj
 0001:000dbec0       ?end@?$NxArray@UPersistentContact@ShapeInstancePair@@VUserAllocatorAccess@NxFoundation@@@@QAEPAUPersistentContact@ShapeInstancePair@@XZ 100dcec0 f i ShapeInstancePair.obj
 0001:000dbed0       ?back@?$NxArray@UPersistentContact@ShapeInstancePair@@VUserAllocatorAccess@NxFoundation@@@@QAEAAUPersistentContact@ShapeInstancePair@@XZ 100dced0 f i ShapeInstancePair.obj
 0001:000dbee0       ?deallocate@?$NxArray@UPersistentContact@ShapeInstancePair@@VUserAllocatorAccess@NxFoundation@@@@AAEXPAUPersistentContact@ShapeInstancePair@@@Z 100dcee0 f i ShapeInstancePair.obj
 0001:000dbf00       ?destroy@?$NxArray@UPersistentContact@ShapeInstancePair@@VUserAllocatorAccess@NxFoundation@@@@AAEXPAUPersistentContact@ShapeInstancePair@@0@Z 100dcf00 f i ShapeInstancePair.obj
 0001:000dbf10       ?deallocate@?$NxArray@UContactPoint@ShapeInstancePair@@VUserAllocatorAccess@NxFoundation@@@@AAEXPAUContactPoint@ShapeInstancePair@@@Z 100dcf10 f i ShapeInstancePair.obj
 0001:000dbf30       ?freeElement@?$SimplePool@VManagerData@ShapeInstancePair@@@@IAEXPAX@Z 100dcf30 f i ShapeInstancePair.obj
 0001:000dbf50       ?freeElement@?$SimplePool@UManagerDataPoolX2@SIPPoolManager@@@@IAEXPAX@Z 100dcf50 f i ShapeInstancePair.obj
 0001:000dbf70       ?freeElement@?$SimplePool@UManagerDataPoolX4@SIPPoolManager@@@@IAEXPAX@Z 100dcf70 f i ShapeInstancePair.obj
 0001:000dbf90       ?freeElement@?$SimplePool@UOverlapMarkerPair@SIPPoolManager@@@@IAEXPAX@Z 100dcf90 f i ShapeInstancePair.obj
 0001:000dbfb0       ??4ContactPoint@ShapeInstancePair@@QAEAAU01@ABU01@@Z 100dcfb0 f i ShapeInstancePair.obj
 0001:000dc020       ?getSize@?$SortedSet@PAX@@QBEIXZ 100dd020 f i ShapeInstancePair.obj
 0001:000dc030       ?get@?$SortedSet@PAX@@QAEAAPAXI@Z 100dd030 f i ShapeInstancePair.obj
 0001:000dc040       ?release@?$SortedSet@PAX@@QAEXXZ 100dd040 f i ShapeInstancePair.obj
 0001:000dc080       ?getIndexOf@?$SortedSet@PAX@@QBEIABQAX@Z 100dd080 f i ShapeInstancePair.obj
 0001:000dc0d0       ?grow@?$SortedSet@PAX@@AAEXI@Z 100dd0d0 f i ShapeInstancePair.obj
 0001:000dc150       ?capacity@?$NxArray@UPersistentContact@ShapeInstancePair@@VUserAllocatorAccess@NxFoundation@@@@QBEIXZ 100dd150 f i ShapeInstancePair.obj
 0001:000dc180       ?copy@?$NxArray@UPersistentContact@ShapeInstancePair@@VUserAllocatorAccess@NxFoundation@@@@AAEPAUPersistentContact@ShapeInstancePair@@PBU23@0PAU23@@Z 100dd180 f i ShapeInstancePair.obj
 0001:000dc1d0       ?allocate@?$NxArray@UPersistentContact@ShapeInstancePair@@VUserAllocatorAccess@NxFoundation@@@@AAEPAUPersistentContact@ShapeInstancePair@@I@Z 100dd1d0 f i ShapeInstancePair.obj
 0001:000dc200       ?capacity@?$NxArray@UContactPoint@ShapeInstancePair@@VUserAllocatorAccess@NxFoundation@@@@QBEIXZ 100dd200 f i ShapeInstancePair.obj
 0001:000dc230       ?copy@?$NxArray@UContactPoint@ShapeInstancePair@@VUserAllocatorAccess@NxFoundation@@@@AAEPAUContactPoint@ShapeInstancePair@@PBU23@0PAU23@@Z 100dd230 f i ShapeInstancePair.obj
 0001:000dc2e0       ?allocate@?$NxArray@UContactPoint@ShapeInstancePair@@VUserAllocatorAccess@NxFoundation@@@@AAEPAUContactPoint@ShapeInstancePair@@I@Z 100dd2e0 f i ShapeInstancePair.obj
 0001:000dc310       ?submitShapes@ContactStream@@QAEXPBVShape@@0I@Z 100dd310 f i ShapeInstancePair.obj
 0001:000dc420       ?submitNormal@ContactStream@@QAEXABVNxVec3@@@Z 100dd420 f i ShapeInstancePair.obj
 0001:000dc4e0       ?submitPoint@ContactStream@@QAEXMABVNxVec3@@IIM@Z 100dd4e0 f i ShapeInstancePair.obj
 0001:000dc680       ?submitContact@ContactStream@@QAEXPBVShape@@0MABVNxVec3@@1IIM@Z 100dd680 f i ShapeInstancePair.obj
 0001:000dca10       ?incDecPairStat@@YAXPAVScene@@PBVShape@@1_N2222@Z 100dda10 f   ShapeInstancePair.obj
 0001:000dd6b0       ?handleContactCallback@@YAXAAIPAVNxUserContactModify@@PBVNxShape@@2@Z 100de6b0 f   ShapeInstancePair.obj
 0001:000ddbf0       ?processContacts@ShapeInstancePair@@QAEXXZ 100debf0 f   ShapeInstancePair.obj
 0001:000de200       ?setupSolverConstraints@ShapeInstancePair@@QAEXM@Z 100df200 f   ShapeInstancePair.obj
 0001:000dead0       ?processUserNotification@ShapeInstancePair@@QAEXXZ 100dfad0 f   ShapeInstancePair.obj
 0001:000e0010       ?resetWheelConstraints@ShapeInstancePair@@AAEXXZ 100e1010 f   ShapeInstancePair.obj
 0001:000e00f0       ??1?$NxArray@UPersistentContact@ShapeInstancePair@@VUserAllocatorAccess@NxFoundation@@@@QAE@XZ 100e10f0 f i ShapeInstancePair.obj
 0001:000e0130       ?clear@?$NxArray@UPersistentContact@ShapeInstancePair@@VUserAllocatorAccess@NxFoundation@@@@QAEXXZ 100e1130 f i ShapeInstancePair.obj
 0001:000e0140       ?replaceWithLast@?$NxArray@UPersistentContact@ShapeInstancePair@@VUserAllocatorAccess@NxFoundation@@@@QAEXI@Z 100e1140 f i ShapeInstancePair.obj
 0001:000e01b0       ??1?$NxArray@UContactPoint@ShapeInstancePair@@VUserAllocatorAccess@NxFoundation@@@@QAE@XZ 100e11b0 f i ShapeInstancePair.obj
 0001:000e01f0       ??0?$SimplePool@VManagerData@ShapeInstancePair@@@@QAE@I@Z 100e11f0 f i ShapeInstancePair.obj
 0001:000e0250       ?destroy@?$SimplePool@VManagerData@ShapeInstancePair@@@@QAEXQAVManagerData@ShapeInstancePair@@@Z 100e1250 f i ShapeInstancePair.obj
 0001:000e0270       ??0?$SimplePool@UManagerDataPoolX2@SIPPoolManager@@@@QAE@I@Z 100e1270 f i ShapeInstancePair.obj
 0001:000e02d0       ?destroy@?$SimplePool@UManagerDataPoolX2@SIPPoolManager@@@@QAEXQAUManagerDataPoolX2@SIPPoolManager@@@Z 100e12d0 f i ShapeInstancePair.obj
 0001:000e02f0       ??0?$SimplePool@UManagerDataPoolX4@SIPPoolManager@@@@QAE@I@Z 100e12f0 f i ShapeInstancePair.obj
 0001:000e0350       ?destroy@?$SimplePool@UManagerDataPoolX4@SIPPoolManager@@@@QAEXQAUManagerDataPoolX4@SIPPoolManager@@@Z 100e1350 f i ShapeInstancePair.obj
 0001:000e0370       ??0?$SimplePool@UOverlapMarkerPair@SIPPoolManager@@@@QAE@I@Z 100e1370 f i ShapeInstancePair.obj
 0001:000e03d0       ??_GOverlapMarkerPair@SIPPoolManager@@QAEPAXI@Z 100e13d0 f i ShapeInstancePair.obj
 0001:000e03f0       ??A?$SortedSet@PAX@@QAEAAPAXI@Z 100e13f0 f i ShapeInstancePair.obj
 0001:000e0400       ?contains@?$SortedSet@PAX@@QAE_NABQAX@Z 100e1400 f i ShapeInstancePair.obj
 0001:000e0460       ?insert@?$SortedSet@PAX@@QAE_NABQAXPAI@Z 100e1460 f i ShapeInstancePair.obj
 0001:000e05a0       ?reserve@?$NxArray@UPersistentContact@ShapeInstancePair@@VUserAllocatorAccess@NxFoundation@@@@QAEXI@Z 100e15a0 f i ShapeInstancePair.obj
 0001:000e06a0       ?reserve@?$NxArray@UContactPoint@ShapeInstancePair@@VUserAllocatorAccess@NxFoundation@@@@QAEXI@Z 100e16a0 f i ShapeInstancePair.obj
 0001:000e07f0       ?allocateSlab@?$SimplePool@VManagerData@ShapeInstancePair@@@@IAEXXZ 100e17f0 f i ShapeInstancePair.obj
 0001:000e0940       ?freeAllSlabs@?$SimplePool@VManagerData@ShapeInstancePair@@@@IAEXXZ 100e1940 f i ShapeInstancePair.obj
 0001:000e09b0       ?allocateSlab@?$SimplePool@UManagerDataPoolX2@SIPPoolManager@@@@IAEXXZ 100e19b0 f i ShapeInstancePair.obj
 0001:000e0b00       ?freeAllSlabs@?$SimplePool@UManagerDataPoolX2@SIPPoolManager@@@@IAEXXZ 100e1b00 f i ShapeInstancePair.obj
 0001:000e0b70       ?allocateSlab@?$SimplePool@UManagerDataPoolX4@SIPPoolManager@@@@IAEXXZ 100e1b70 f i ShapeInstancePair.obj
 0001:000e0cc0       ?freeAllSlabs@?$SimplePool@UManagerDataPoolX4@SIPPoolManager@@@@IAEXXZ 100e1cc0 f i ShapeInstancePair.obj
 0001:000e0d30       ?freeAllSlabs@?$SimplePool@UOverlapMarkerPair@SIPPoolManager@@@@IAEXXZ 100e1d30 f i ShapeInstancePair.obj
 0001:000e0da0       ?allocateSlab@?$SimplePool@UOverlapMarkerPair@SIPPoolManager@@@@IAEXXZ 100e1da0 f i ShapeInstancePair.obj
 0001:000e0ef0       ??0?$NxArraySDK@UPersistentContact@ShapeInstancePair@@@NxFoundation@@QAE@XZ 100e1ef0 f i ShapeInstancePair.obj
 0001:000e0f00       ??1?$NxArraySDK@UPersistentContact@ShapeInstancePair@@@NxFoundation@@QAE@XZ 100e1f00 f i ShapeInstancePair.obj
 0001:000e0f40       ??0?$NxArraySDK@UContactPoint@ShapeInstancePair@@@NxFoundation@@QAE@XZ 100e1f40 f i ShapeInstancePair.obj
 0001:000e0f50       ??1?$NxArraySDK@UContactPoint@ShapeInstancePair@@@NxFoundation@@QAE@XZ 100e1f50 f i ShapeInstancePair.obj
 0001:000e0f90       ?deactivateManagers@ShapeInstancePair@@QAEXXZ 100e1f90 f i ShapeInstancePair.obj
 0001:000e1020       ?resetManagers@ShapeInstancePair@@AAEXXZ 100e2020 f i ShapeInstancePair.obj
 0001:000e14c0       ?updateManagers@ShapeInstancePair@@AAEXXZ 100e24c0 f i ShapeInstancePair.obj
 0001:000e1a40       ?destroyManagers@ShapeInstancePair@@AAEXXZ 100e2a40 f i ShapeInstancePair.obj
 0001:000e1b00       ?onActivate@ShapeInstancePair@@UAEXXZ 100e2b00 f   ShapeInstancePair.obj
 0001:000e1c20       ?onDeactivate@ShapeInstancePair@@UAEXXZ 100e2c20 f   ShapeInstancePair.obj
 0001:000e1cc0       ?deallocateManagerData@SIPPoolManager@@QAEXPAVManagerData@ShapeInstancePair@@I@Z 100e2cc0 f   ShapeInstancePair.obj
 0001:000e1d40       ?pruneOldContacts@ShapeInstancePair@@AAEXXZ 100e2d40 f   ShapeInstancePair.obj
 0001:000e1e50       ?updateState@ShapeInstancePair@@QAEXXZ 100e2e50 f   ShapeInstancePair.obj
 0001:000e3540       ?clearPersistentContacts@ShapeInstancePair@@AAEXXZ 100e4540 f   ShapeInstancePair.obj
 0001:000e35c0       ?forceManagerSW@ShapeInstancePair@@QAEXPAVTriangleMeshShape@@_N@Z 100e45c0 f   ShapeInstancePair.obj
 0001:000e3ae0       ?destroy@?$SimplePool@UOverlapMarkerPair@SIPPoolManager@@@@QAEXQAUOverlapMarkerPair@SIPPoolManager@@@Z 100e4ae0 f i ShapeInstancePair.obj
 0001:000e3b00       ?pushBack@?$NxArray@UPersistentContact@ShapeInstancePair@@VUserAllocatorAccess@NxFoundation@@@@QAEXABUPersistentContact@ShapeInstancePair@@@Z 100e4b00 f i ShapeInstancePair.obj
 0001:000e3c50       ?pushBack@?$NxArray@UContactPoint@ShapeInstancePair@@VUserAllocatorAccess@NxFoundation@@@@QAEXABUContactPoint@ShapeInstancePair@@@Z 100e4c50 f i ShapeInstancePair.obj
 0001:000e3de0       ?allocateElement@?$SimplePool@VManagerData@ShapeInstancePair@@@@IAEPAXXZ 100e4de0 f i ShapeInstancePair.obj
 0001:000e3f40       ?disposeElements@?$SimplePool@VManagerData@ShapeInstancePair@@@@IAEXXZ 100e4f40 f i ShapeInstancePair.obj
 0001:000e4210       ?allocateElement@?$SimplePool@UManagerDataPoolX2@SIPPoolManager@@@@IAEPAXXZ 100e5210 f i ShapeInstancePair.obj
 0001:000e4370       ?disposeElements@?$SimplePool@UManagerDataPoolX2@SIPPoolManager@@@@IAEXXZ 100e5370 f i ShapeInstancePair.obj
 0001:000e4640       ?allocateElement@?$SimplePool@UManagerDataPoolX4@SIPPoolManager@@@@IAEPAXXZ 100e5640 f i ShapeInstancePair.obj
 0001:000e47a0       ?disposeElements@?$SimplePool@UManagerDataPoolX4@SIPPoolManager@@@@IAEXXZ 100e57a0 f i ShapeInstancePair.obj
 0001:000e4a70       ?disposeElements@?$SimplePool@UOverlapMarkerPair@SIPPoolManager@@@@IAEXXZ 100e5a70 f i ShapeInstancePair.obj
 0001:000e4d40       ?allocateElement@?$SimplePool@UOverlapMarkerPair@SIPPoolManager@@@@IAEPAXXZ 100e5d40 f i ShapeInstancePair.obj
 0001:000e4ea0       ?onActorActiveChange@ShapeInstancePair@@UAEXPAVPxActor@@@Z 100e5ea0 f   ShapeInstancePair.obj
 0001:000e4fd0       ?deleteSIPMarkerPair@SIPPoolManager@@QAEXPAUOverlapMarkerPair@1@@Z 100e5fd0 f   ShapeInstancePair.obj
 0001:000e4ff0       ??1ShapeInstancePair@@UAE@XZ 100e5ff0 f   ShapeInstancePair.obj
 0001:000e5360       ?push_back@?$NxArray@UPersistentContact@ShapeInstancePair@@VUserAllocatorAccess@NxFoundation@@@@QAEXABUPersistentContact@ShapeInstancePair@@@Z 100e6360 f i ShapeInstancePair.obj
 0001:000e54b0       ?push_back@?$NxArray@UContactPoint@ShapeInstancePair@@VUserAllocatorAccess@NxFoundation@@@@QAEXABUContactPoint@ShapeInstancePair@@@Z 100e64b0 f i ShapeInstancePair.obj
 0001:000e5640       ??1?$SimplePool@VManagerData@ShapeInstancePair@@@@QAE@XZ 100e6640 f i ShapeInstancePair.obj
 0001:000e5940       ?construct@?$SimplePool@VManagerData@ShapeInstancePair@@@@QAEPAVManagerData@ShapeInstancePair@@XZ 100e6940 f i ShapeInstancePair.obj
 0001:000e5aa0       ??1?$SimplePool@UManagerDataPoolX2@SIPPoolManager@@@@QAE@XZ 100e6aa0 f i ShapeInstancePair.obj
 0001:000e5da0       ?construct@?$SimplePool@UManagerDataPoolX2@SIPPoolManager@@@@QAEPAUManagerDataPoolX2@SIPPoolManager@@XZ 100e6da0 f i ShapeInstancePair.obj
 0001:000e5f00       ??1?$SimplePool@UManagerDataPoolX4@SIPPoolManager@@@@QAE@XZ 100e6f00 f i ShapeInstancePair.obj
 0001:000e6210       ?construct@?$SimplePool@UManagerDataPoolX4@SIPPoolManager@@@@QAEPAUManagerDataPoolX4@SIPPoolManager@@XZ 100e7210 f i ShapeInstancePair.obj
 0001:000e6370       ??1?$SimplePool@UOverlapMarkerPair@SIPPoolManager@@@@QAE@XZ 100e7370 f i ShapeInstancePair.obj
 0001:000e6670       ??$construct@VPxActor@@V1@@?$SimplePool@UOverlapMarkerPair@SIPPoolManager@@@@QAEPAUOverlapMarkerPair@SIPPoolManager@@AAVPxActor@@0@Z 100e7670 f i ShapeInstancePair.obj
 0001:000e6830       ??_GShapeInstancePair@@UAEPAXI@Z 100e7830 f i ShapeInstancePair.obj
 0001:000e6830       ??_EShapeInstancePair@@UAEPAXI@Z 100e7830 f i ShapeInstancePair.obj
 0001:000e6860       ??0SIPPoolManager@@QAE@XZ  100e7860 f   ShapeInstancePair.obj
 0001:000e69a0       ??1SIPPoolManager@@QAE@XZ  100e79a0 f   ShapeInstancePair.obj
 0001:000e6a70       ?createSIPMarkerPair@SIPPoolManager@@QAEPAUOverlapMarkerPair@1@AAVShape@@0@Z 100e7a70 f   ShapeInstancePair.obj
 0001:000e6ae0       ?allocateManagerData@SIPPoolManager@@QAEPAVManagerData@ShapeInstancePair@@I@Z 100e7ae0 f   ShapeInstancePair.obj
 0001:000e6f50       ?contact@ShapeInstancePair@@QAEXABVShape@@0MABVNxVec3@@1GGII@Z 100e7f50 f   ShapeInstancePair.obj
 0001:000e7b10       ?contact@ShapeInstancePair@@QAEXABVShape@@0MABVNxVec3@@1GG@Z 100e8b10 f   ShapeInstancePair.obj
 0001:000e7b50       ?setupNewPersistentConstraints@ShapeInstancePair@@AAEXXZ 100e8b50 f   ShapeInstancePair.obj
 0001:000e8af0       ??0ShapeInstancePair@@QAE@PAVShape@@0IPAVSIPPool@@@Z 100e9af0 f i ShapeInstancePair.obj
 0001:000e8d80       ?allocateSIP@SIPPool@@QAEPAVShapeInstancePair@@AAVShape@@0I@Z 100e9d80 f   ShapeInstancePair.obj
 0001:000e90b0       ?createInstance@SIPPoolManager@@QAEPAVShapeInstancePair@@AAVShape@@0I@Z 100ea0b0 f   ShapeInstancePair.obj
 0001:000e9180       ?finishContacts@ShapeInstancePair@@QAEXXZ 100ea180 f   ShapeInstancePair.obj
 0001:000ea190       ??0SphereShape@@IAE@ABVNvShapeDesc@@PAVScene@@I@Z 100eb190 f   SphereShape.obj
 0001:000eacf0       ?getShape@SphereShape@@UAEAAVShape@@XZ 100ebcf0 f i SphereShape.obj
 0001:000ead00       ?getShape@SphereShape@@UBEABVShape@@XZ 100ebd00 f i SphereShape.obj
 0001:000ead10       ??BSphereShape@@UAEAAVShape@@XZ 100ebd10 f i SphereShape.obj
 0001:000ead20       ?getRadius@SphereShape@@UBEMXZ 100ebd20 f i SphereShape.obj
 0001:000ead30       ??1SphereShape@@MAE@XZ     100ebd30 f   SphereShape.obj
 0001:000ead40       ?setRadius@SphereShape@@UAEXM@Z 100ebd40 f   SphereShape.obj
 0001:000eadc0       ?computeLocalSphere@SphereShape@@EBEXAAVNxSphere@@@Z 100ebdc0 f   SphereShape.obj
 0001:000eade0       ?computeLocalBounds@SphereShape@@UBEXAAVNxBounds3@@@Z 100ebde0 f   SphereShape.obj
 0001:000eae50       ??_GSphereShape@@MAEPAXI@Z 100ebe50 f i SphereShape.obj
 0001:000eae50       ??_ESphereShape@@MAEPAXI@Z 100ebe50 f i SphereShape.obj
 0001:000eae80       ?computeWorldBounds@SphereShape@@EBEXAAVNxBounds3@@@Z 100ebe80 f   SphereShape.obj
 0001:000eaef0       ?computeWorldSphere@SphereShape@@EBEXAAVNxSphere@@@Z 100ebef0 f   SphereShape.obj
 0001:000eaf30       ?visualize@SphereShape@@UBEXAAVDebugRenderable@NxFoundation@@@Z 100ebf30 f   SphereShape.obj
 0001:000eb110       ?raycast@SphereShape@@UBE_NABVNxRay@@MIAAUNxRaycastHit@@_N@Z 100ec110 f   SphereShape.obj
 0001:000eb260       ?checkOverlapSphere@SphereShape@@UBE_NABVNxSphere@@@Z 100ec260 f   SphereShape.obj
 0001:000eb2c0       ?checkOverlapOBB@SphereShape@@UBE_NABVNxBox@@@Z 100ec2c0 f   SphereShape.obj
 0001:000eb320       ?checkOverlapAABB@SphereShape@@UBE_NABVNxBounds3@@@Z 100ec320 f   SphereShape.obj
 0001:000eb470       ?checkOverlapCapsule@SphereShape@@UBE_NABVNxCapsule@@@Z 100ec470 f   SphereShape.obj
 0001:000eb4d0       ?atan2@NxMath@@SAMMM@Z     100ec4d0 f i SphericalJoint.obj
 0001:000eb4e0       ?setSwingLimit@SphericalJoint@@UAEXABVNxJointLimitDesc@@@Z 100ec4e0 f i SphericalJoint.obj
 0001:000eb530       ?setSwingAxis@SphericalJoint@@UAEXABVNxVec3@@@Z 100ec530 f i SphericalJoint.obj
 0001:000eb660       ?loadFromDesc@SphericalJoint@@UAEXABVNvJointDesc@@ABVNvJointSphereicalDesc@@@Z 100ec660 f   SphericalJoint.obj
 0001:000eb790       ?release@SphericalJoint@@UAEXXZ 100ec790 f   SphericalJoint.obj
 0001:000eb7b0       ?disableAxCons@SphericalJoint@@UAEXXZ 100ec7b0 f   SphericalJoint.obj
 0001:000eb820       ?projectPose@SphericalJoint@@UAEXPAVBody@@@Z 100ec820 f   SphericalJoint.obj
 0001:000eb9e0       ??0SphericalJoint@@QAE@ABVNvJointDesc@@ABVNvJointSphereicalDesc@@@Z 100ec9e0 f   SphericalJoint.obj
 0001:000ebd30       ?setFlags@SphericalJoint@@UAEXI@Z 100ecd30 f i SphericalJoint.obj
 0001:000ebd50       ?getFlags@SphericalJoint@@UBEIXZ 100ecd50 f i SphericalJoint.obj
 0001:000ebd60       ?setSphereTwistLimit@SphericalJoint@@UAEXABVNxJointLimitPairDesc@@@Z 100ecd60 f i SphericalJoint.obj
 0001:000ebdb0       ?getSphereTwistLimit@SphericalJoint@@UBE?AVNxJointLimitPairDesc@@XZ 100ecdb0 f i SphericalJoint.obj
 0001:000ebdf0       ?getSwingLimit@SphericalJoint@@UBE?AVNxJointLimitDesc@@XZ 100ecdf0 f i SphericalJoint.obj
 0001:000ebe20       ?setTwistSpring@SphericalJoint@@UAEXABVNxSpringDesc@@@Z 100ece20 f i SphericalJoint.obj
 0001:000ebe50       ?setSwingSpring@SphericalJoint@@UAEXABVNxSpringDesc@@@Z 100ece50 f i SphericalJoint.obj
 0001:000ebe80       ?setJointSpring@SphericalJoint@@UAEXABVNxSpringDesc@@@Z 100ece80 f i SphericalJoint.obj
 0001:000ebeb0       ?getTwistSpring@SphericalJoint@@UBE?AVNxSpringDesc@@XZ 100eceb0 f i SphericalJoint.obj
 0001:000ebee0       ?getSwingSpring@SphericalJoint@@UBE?AVNxSpringDesc@@XZ 100ecee0 f i SphericalJoint.obj
 0001:000ebf10       ?getJointSpring@SphericalJoint@@UBE?AVNxSpringDesc@@XZ 100ecf10 f i SphericalJoint.obj
 0001:000ebf40       ?getSwingAxis@SphericalJoint@@UBE?AVNxVec3@@XZ 100ecf40 f i SphericalJoint.obj
 0001:000ebf70       ?setProjectionDistance@SphericalJoint@@UAEXM@Z 100ecf70 f i SphericalJoint.obj
 0001:000ebf90       ?getProjectionDistance@SphericalJoint@@UBEMXZ 100ecf90 f i SphericalJoint.obj
 0001:000ebfa0       ??1SphericalJoint@@UAE@XZ  100ecfa0 f   SphericalJoint.obj
 0001:000ec010       ?getTwist@SphericalJoint@@QAEMAAVNxVec3@@AAM@Z 100ed010 f   SphericalJoint.obj
 0001:000ec900       ?processToAxisConstraints@SphericalJoint@@UAEXM@Z 100ed900 f   SphericalJoint.obj
 0001:000ed2e0       ?processLimitsToAxisConstraints@SphericalJoint@@UAEXM@Z 100ee2e0 f   SphericalJoint.obj
 0001:000ed2f0       ?visualize@SphericalJoint@@UAEXAAVDebugRenderable@NxFoundation@@@Z 100ee2f0 f   SphericalJoint.obj
 0001:000ef5a0       ??_ESphericalJoint@@UAEPAXI@Z 100f05a0 f i SphericalJoint.obj
 0001:000ef5a0       ??_GSphericalJoint@@UAEPAXI@Z 100f05a0 f i SphericalJoint.obj
 0001:000ef5d0       ??0SpringAndDamperEffector@@QAE@AAVScene@@@Z 100f05d0 f   SpringAndDamperEffector.obj
 0001:000ef640       ??1SpringAndDamperEffector@@UAE@XZ 100f0640 f   SpringAndDamperEffector.obj
 0001:000ef660       ?saveToDesc@SpringAndDamperEffector@@UAEXAAVNxSpringAndDamperEffectorDesc@@@Z 100f0660 f   SpringAndDamperEffector.obj
 0001:000ef6e0       ?setBodies@SpringAndDamperEffector@@UAEXPAVNvBody@@ABVNxVec3@@01@Z 100f06e0 f   SpringAndDamperEffector.obj
 0001:000efa50       ?getBodies@SpringAndDamperEffector@@UAEXPAPAVNvBody@@AAVNxVec3@@01@Z 100f0a50 f   SpringAndDamperEffector.obj
 0001:000efd60       ?setLinearSpring@SpringAndDamperEffector@@UAEXMMMMM@Z 100f0d60 f   SpringAndDamperEffector.obj
 0001:000efd90       ?setLinearDamper@SpringAndDamperEffector@@UAEXMMMM@Z 100f0d90 f   SpringAndDamperEffector.obj
 0001:000efdc0       ?linearSpringForce@SpringAndDamperEffector@@AAEMM@Z 100f0dc0 f   SpringAndDamperEffector.obj
 0001:000efe80       ?linearDamperForce@SpringAndDamperEffector@@AAEMM@Z 100f0e80 f   SpringAndDamperEffector.obj
 0001:000eff20       ?getLinearSpring@SpringAndDamperEffector@@UAEXAAM0000@Z 100f0f20 f   SpringAndDamperEffector.obj
 0001:000eff60       ?getLinearDamper@SpringAndDamperEffector@@UAEXAAM000@Z 100f0f60 f   SpringAndDamperEffector.obj
 0001:000eff90       ?release@SpringAndDamperEffector@@UAEXXZ 100f0f90 f   SpringAndDamperEffector.obj
 0001:000effa0       ?computePointVelocity@Body@@QBEXABVNxVec3@@AAV2@@Z 100f0fa0 f i SpringAndDamperEffector.obj
 0001:000f0050       ??_GSpringAndDamperEffector@@UAEPAXI@Z 100f1050 f i SpringAndDamperEffector.obj
 0001:000f0050       ??_ESpringAndDamperEffector@@UAEPAXI@Z 100f1050 f i SpringAndDamperEffector.obj
 0001:000f0080       ?applyToPair@SpringAndDamperEffector@@UAEXPAVBody@@0@Z 100f1080 f   SpringAndDamperEffector.obj
 0001:000f07a0       ?ForceSize@ContainerSizeT@IceCore@@QAEXI@Z 100f17a0 f i SweepCache.obj
 0001:000f07b0       ??0SignatureState@IceCore@@QAE@XZ 100f17b0 f i SweepCache.obj
 0001:000f07d0       ??1SignatureState@IceCore@@QAE@XZ 100f17d0 f i SweepCache.obj
 0001:000f07e0       ??4SignatureState@IceCore@@QAEXABVSignature@1@@Z 100f17e0 f i SweepCache.obj
 0001:000f0800       ??9SignatureState@IceCore@@QBEHABVSignature@1@@Z 100f1800 f i SweepCache.obj
 0001:000f0830       ?AddPrunable@PrunedObjects@Opcode@@QAEXPBVPrunable@2@@Z 100f1830 f i SweepCache.obj
 0001:000f0860       ?GetSignature@Pruner@Opcode@@QBEABVSignature@IceCore@@XZ 100f1860 f i SweepCache.obj
 0001:000f0870       ?GetStaticPruner@PruningEngine@Opcode@@QAEPAVPruner@2@XZ 100f1870 f i SweepCache.obj
 0001:000f0880       ?GetDynamicPruner@PruningEngine@Opcode@@QAEPAVPruner@2@XZ 100f1880 f i SweepCache.obj
 0001:000f0890       ?setEmpty@NxBox@@QAEXXZ    100f1890 f i SweepCache.obj
 0001:000f08e0       ??0NxSweepCache@@IAE@XZ    100f18e0 f i SweepCache.obj
 0001:000f08f0       ??1NxSweepCache@@MAE@XZ    100f18f0 f i SweepCache.obj
 0001:000f0900       ??_ENxSweepCache@@MAEPAXI@Z 100f1900 f i SweepCache.obj
 0001:000f0900       ??_GNxSweepCache@@MAEPAXI@Z 100f1900 f i SweepCache.obj
 0001:000f0930       ??0ObjectCache@@QAE@PAVNvScene@@@Z 100f1930 f   SweepCache.obj
 0001:000f0a00       ??1ObjectCache@@UAE@XZ     100f1a00 f   SweepCache.obj
 0001:000f0a60       ?setVolume@ObjectCache@@UAEXABVNxBox@@@Z 100f1a60 f   SweepCache.obj
 0001:000f0a90       ?ICE_IsBoxAInsideBoxB@@YA_NABVNxBox@@0@Z 100f1a90 f   SweepCache.obj
 0001:000f0cc0       ?updateCache@Scene@@UAEXAAVObjectCache@@ABVNxBox@@1_N2@Z 100f1cc0 f   SweepCache.obj
 0001:000f1180       ?computeBasis@@YAXABVNxVec3@@AAV1@1@Z 100f2180 f i SweepCache.obj
 0001:000f12b0       ?createOBB@@YAXAAVNxBox@@ABV1@ABVNxVec3@@M@Z 100f22b0 f   SweepCache.obj
 0001:000f17e0       ??_EObjectCache@@UAEPAXI@Z 100f27e0 f i SweepCache.obj
 0001:000f17e0       ??_GObjectCache@@UAEPAXI@Z 100f27e0 f i SweepCache.obj
 0001:000f1810       ?updateCache@Scene@@UAEXAAVObjectCache@@ABVNxBox@@PBV3@@Z 100f2810 f   SweepCache.obj
 0001:000f19e0       ?SquareMagnitude@Point@IceMaths@@QBEMXZ 100f29e0 f i SweepTests.obj
 0001:000f1a10       ?IsZero@Point@IceMaths@@QBEHXZ 100f2a10 f i SweepTests.obj
 0001:000f1a40       ?SetLength@Point@IceMaths@@QAEAAV12@M@Z 100f2a40 f i SweepTests.obj
 0001:000f1a90       ?Dot@Point@IceMaths@@QBEMABV12@@Z 100f2a90 f i SweepTests.obj
 0001:000f1ac0       ??8Point@IceMaths@@QBE_NABV01@@Z 100f2ac0 f i SweepTests.obj
 0001:000f1af0       ?SetTrans@Matrix4x4@IceMaths@@QAEXABVPoint@2@@Z 100f2af0 f i SweepTests.obj
 0001:000f1b10       ?ComputeLocalDirection@IceMaths@@YAXAAVPoint@1@ABV21@ABVMatrix4x4@1@@Z 100f2b10 f i SweepTests.obj
 0001:000f1b80       ?ComputeLocalPoint@IceMaths@@YAXAAVPoint@1@ABV21@ABVMatrix4x4@1@@Z 100f2b80 f i SweepTests.obj
 0001:000f1be0       ??0Triangle@IceMaths@@QAE@ABV01@@Z 100f2be0 f i SweepTests.obj
 0001:000f1c60       ?PlaneEquation@Triangle@IceMaths@@QBE?AVPlane@2@XZ 100f2c60 f i SweepTests.obj
 0001:000f1c90       ?DenormalizedNormal@Triangle@IceMaths@@QBEXAAVPoint@2@@Z 100f2c90 f i SweepTests.obj
 0001:000f1d00       ?SetMinMax@AABB@IceMaths@@QAEXABVPoint@2@0@Z 100f2d00 f i SweepTests.obj
 0001:000f1d40       ??0OBB@IceMaths@@QAE@ABVPoint@1@0ABVMatrix3x3@1@@Z 100f2d40 f i SweepTests.obj
 0001:000f1d90       ??0Segment@IceMaths@@QAE@ABVPoint@1@0@Z 100f2d90 f i SweepTests.obj
 0001:000f1dd0       ??0Segment@IceMaths@@QAE@ABV01@@Z 100f2dd0 f i SweepTests.obj
 0001:000f1e10       ?GetOrigin@Segment@IceMaths@@QBEABVPoint@2@XZ 100f2e10 f i SweepTests.obj
 0001:000f1e20       ?ComputeDirection@Segment@IceMaths@@QBE?AVPoint@2@XZ 100f2e20 f i SweepTests.obj
 0001:000f1e40       ?ComputeDirection@Segment@IceMaths@@QBEXAAVPoint@2@@Z 100f2e40 f i SweepTests.obj
 0001:000f1e80       ?ComputePoint@Segment@IceMaths@@QBEXAAVPoint@2@M@Z 100f2e80 f i SweepTests.obj
 0001:000f1ef0       ??0LSS@IceMaths@@QAE@ABVSegment@1@M@Z 100f2ef0 f i SweepTests.obj
 0001:000f2480       ?OBBOBBOverlap@@YA_NABVOBB@IceMaths@@0_N@Z 100f3480 f i SweepTests.obj
 0001:000f2fe0       ?MakeFatEdge@@YAXAAVPoint@IceMaths@@0M@Z 100f3fe0 f i SweepTests.obj
 0001:000f30a0       ??0SE_Vector2@@QAE@XZ      100f40a0 f i SweepTests.obj
 0001:000f30b0       ??0SE_Vector2@@QAE@MM@Z    100f40b0 f i SweepTests.obj
 0001:000f30d0       ??1SE_Vector2@@QAE@XZ      100f40d0 f i SweepTests.obj
 0001:000f30e0       ??HSE_Vector2@@QBE?AV0@ABV0@@Z 100f40e0 f i SweepTests.obj
 0001:000f3100       ??GSE_Vector2@@QBE?AV0@ABV0@@Z 100f4100 f i SweepTests.obj
 0001:000f3120       ??DSE_Vector2@@QBE?AV0@M@Z 100f4120 f i SweepTests.obj
 0001:000f3140       ?Dot@SE_Vector2@@QBEMABV1@@Z 100f4140 f i SweepTests.obj
 0001:000f3160       ?GetLengthSquared@SE_Vector2@@QBEMXZ 100f4160 f i SweepTests.obj
 0001:000f3180       ??0SE_Vector3@@QAE@MMM@Z   100f4180 f i SweepTests.obj
 0001:000f31a0       ??HSE_Vector3@@QBE?AV0@ABV0@@Z 100f41a0 f i SweepTests.obj
 0001:000f31d0       ??GSE_Vector3@@QBE?AV0@ABV0@@Z 100f41d0 f i SweepTests.obj
 0001:000f3200       ??DSE_Vector3@@QBE?AV0@M@Z 100f4200 f i SweepTests.obj
 0001:000f3230       ?Dot@SE_Vector3@@QBEMABV1@@Z 100f4230 f i SweepTests.obj
 0001:000f3260       ?Cross@SE_Vector3@@QBE?AV1@ABV1@@Z 100f4260 f i SweepTests.obj
 0001:000f32b0       ?GetPerpendicular@SE_Vector3@@QBE?AV1@XZ 100f42b0 f i SweepTests.obj
 0001:000f3370       ?GetSignedDistance@SE_Plane@@QBEMABVSE_Vector3@@@Z 100f4370 f i SweepTests.obj
 0001:000f33a0       ?GetBasisVectors@SE_Plane@@QBEXAAVSE_Vector3@@0@Z 100f43a0 f i SweepTests.obj
 0001:000f34d0       ?sConvertWorldToPlane@SE_Plane@@SA?AVSE_Vector2@@ABVSE_Vector3@@00@Z 100f44d0 f i SweepTests.obj
 0001:000f3520       ?ConvertPlaneToWorld@SE_Plane@@QBE?AVSE_Vector3@@ABV2@0ABVSE_Vector2@@@Z 100f4520 f i SweepTests.obj
 0001:000f45e0       ??0OBB@IceMaths@@QAE@ABV01@@Z 100f55e0 f i SweepTests.obj
 0001:000f4630       ?BackfaceCulling@@YA_NABVPoint@IceMaths@@000@Z 100f5630 f i SweepTests.obj
 0001:000f72e0       ?SegmentRaySqrDist@@YAMABVSegment@IceMaths@@ABVRay@2@PAM2@Z 100f82e0 f i SweepTests.obj
 0001:000f8990       ?QuadraticFormula@@YA_NMMMAAM0@Z 100f9990 f i SweepTests.obj
 0001:000faf00       ?ComputeBarycentricPoint@@YAXAAVPoint@IceMaths@@ABV12@11MM@Z 100fbf00 f i SweepTests.obj
 0001:000fba00       ??0LSS@IceMaths@@QAE@ABV01@@Z 100fca00 f i SweepTests.obj
 0001:000fbb70       ?_ComputeBarycentricPoint@@YAXAAVNxVec3@@ABVPoint@IceMaths@@11MM@Z 100fcb70 f i SweepTests.obj
 0001:000fbc60       ?FindRealQuadraticRoots@@YAIMMMAAM0@Z 100fcc60 f i SweepTests.obj
 0001:00104100       ??1NvTriangleMesh@@IAE@XZ  10105100 f i TriangleMesh.obj
 0001:00104110       ?NxOpcodeError@@YA_NPBD0I@Z 10105110 f   TriangleMesh.obj
 0001:00104140       ??0NvTriangleMesh@@QAE@XZ  10105140 f i TriangleMesh.obj
 0001:00104150       ?releaseMemory@TriangleMesh@@IAEXXZ 10105150 f   TriangleMesh.obj
 0001:001041f0       ?updateHeightfieldData@TriangleMesh@@IAEXXZ 101051f0 f   TriangleMesh.obj
 0001:00104290       ?load@TriangleMesh@@UAE_NABVNxStream@@@Z 10105290 f   TriangleMesh.obj
 0001:00104ac0       ?saveToDesc@TriangleMesh@@UBE_NAAVNxTriangleMeshDesc@@@Z 10105ac0 f   TriangleMesh.obj
 0001:00104b30       ?getMassInfo@TriangleMesh@@QBEPBVMeshMassInfo@@XZ 10105b30 f   TriangleMesh.obj
 0001:00104b60       ?loadPMap@TriangleMesh@@UAE_NABVNxPMap@@@Z 10105b60 f   TriangleMesh.obj
 0001:00104d40       ?hasPMap@TriangleMesh@@UBE_NXZ 10105d40 f   TriangleMesh.obj
 0001:00104d60       ?getPMapSize@TriangleMesh@@UBEIXZ 10105d60 f   TriangleMesh.obj
 0001:00104e20       ?getPMapData@TriangleMesh@@UBE_NAAVNxPMap@@@Z 10105e20 f   TriangleMesh.obj
 0001:00104f40       ?getPMapDensity@TriangleMesh@@UBEIXZ 10105f40 f   TriangleMesh.obj
 0001:00104f60       ?getSubmeshCount@TriangleMesh@@UBEIXZ 10105f60 f   TriangleMesh.obj
 0001:00104f70       ?getCount@TriangleMesh@@UBEIIW4NxInternalArray@@@Z 10105f70 f   TriangleMesh.obj
 0001:00104fb0       ?getFormat@TriangleMesh@@UBE?AW4NxInternalFormat@@IW4NxInternalArray@@@Z 10105fb0 f   TriangleMesh.obj
 0001:00104ff0       ?getBase@TriangleMesh@@UBEPBXIW4NxInternalArray@@@Z 10105ff0 f   TriangleMesh.obj
 0001:00105050       ?getStride@TriangleMesh@@UBEIIW4NxInternalArray@@@Z 10106050 f   TriangleMesh.obj
 0001:00105080       ?getPageCount@TriangleMesh@@UBEIXZ 10106080 f   TriangleMesh.obj
 0001:00105090       ?getPageBBox@TriangleMesh@@UBE?AVNxBounds3@@I@Z 10106090 f   TriangleMesh.obj
 0001:001050e0       ?getPage@TriangleMesh@@UBEPAXIAAI@Z 101060e0 f   TriangleMesh.obj
 0001:00105120       ??1TriangleMesh@@QAE@XZ    10106120 f   TriangleMesh.obj
 0001:00105190       ?getNpTriangleMesh@TriangleMesh@@UAEPAVNpTriangleMesh@@XZ 10106190 f i TriangleMesh.obj
 0001:001051a0       ?setNpTriangleMesh@TriangleMesh@@UAEXPAVNpTriangleMesh@@@Z 101061a0 f i TriangleMesh.obj
 0001:001051b0       ?getNumVertices@TriangleMesh@@UBEIXZ 101061b0 f i TriangleMesh.obj
 0001:001051c0       ?getNumTriangles@TriangleMesh@@UBEIXZ 101061c0 f i TriangleMesh.obj
 0001:001051d0       ?getTriangles@TriangleMesh@@UBEPBUNxTriangle32@@XZ 101061d0 f i TriangleMesh.obj
 0001:001051e0       ?getVertices@TriangleMesh@@UBEPBVNxVec3@@XZ 101061e0 f i TriangleMesh.obj
 0001:001051f0       ?getTriangleMaterial@TriangleMesh@@UBEGI@Z 101061f0 f i TriangleMesh.obj
 0001:00105210       ?getMassInformation@TriangleMesh@@UBE?AVMeshMassInfo@@XZ 10106210 f   TriangleMesh.obj
 0001:00105250       ??_GTriangleMesh@@QAEPAXI@Z 10106250 f i TriangleMesh.obj
 0001:00105280       ??0TriangleMesh@@QAE@XZ    10106280 f   TriangleMesh.obj
 0001:00105370       ?release@TriangleMesh@@UAEXXZ 10106370 f   TriangleMesh.obj
 0001:00105390       ?id@NxMat34@@QAEXXZ        10106390 f i TriangleMeshShape.obj
 0001:001053d0       ?fatten@NxBounds3@@QAEXM@Z 101063d0 f i TriangleMeshShape.obj
 0001:00105420       ??XPoint@IceMaths@@QAEAAV01@M@Z 10106420 f i TriangleMeshShape.obj
 0001:00105450       ?GetRow@Matrix4x4@IceMaths@@QBEXIAAVPoint@2@@Z 10106450 f i TriangleMeshShape.obj
 0001:00105480       ?Rotate@AABB@IceMaths@@QBEXABVMatrix4x4@2@AAV12@@Z 10106480 f i TriangleMeshShape.obj
 0001:001056d0       ??0CollisionAABB@Opcode@@QAE@ABVAABB@IceMaths@@@Z 101066d0 f i TriangleMeshShape.obj
 0001:00105700       ?getAdjacencies@InternalTriangleMesh@@QBEPBVAdjacenciesBuilder@@XZ 10106700 f i TriangleMeshShape.obj
 0001:00105730       ?getConvexTags@InternalTriangleMesh@@QBEPBGXZ 10106730 f i TriangleMeshShape.obj
 0001:00105740       ?getTrigSharedEdgeFlags@InternalTriangleMesh@@QBEII@Z 10106740 f i TriangleMeshShape.obj
 0001:00105760       ?getTrigSharedEdgeFlags@TriangleMesh@@QBEII@Z 10106760 f i TriangleMeshShape.obj
 0001:00105780       ?getAdjacencies@TriangleMesh@@QBEPBVAdjacenciesBuilder@@XZ 10106780 f i TriangleMeshShape.obj
 0001:001057c0       ?getGeomEpsilon@TriangleMesh@@QBEMXZ 101067c0 f i TriangleMeshShape.obj
 0001:001057d0       ?getLocalSphere@TriangleMesh@@QBEABVNxSphere@@XZ 101067d0 f i TriangleMeshShape.obj
 0001:001057e0       ?getConvexTags@TriangleMesh@@QBEPBGXZ 101067e0 f i TriangleMeshShape.obj
 0001:001057f0       ?getPageIndex@PageBoundsActor@@QBEIXZ 101067f0 f i TriangleMeshShape.obj
 0001:00105800       ?isPageMapped@PageBoundsInteraction@@QBE_NXZ 10106800 f i TriangleMeshShape.obj
 0001:00105810       ?isHwMapped@PageBoundsInteraction@@QBE_NXZ 10106810 f i TriangleMeshShape.obj
 0001:00105820       ?clearHwMapped@PageBoundsInteraction@@QAEXXZ 10106820 f i TriangleMeshShape.obj
 0001:00105830       ?getShapeInstancePair@PageBoundsInteraction@@QBEPAVShapeInstancePair@@XZ 10106830 f i TriangleMeshShape.obj
 0001:00105840       ?setSip@PageBoundsInteraction@@QAEXPAVShapeInstancePair@@@Z 10106840 f i TriangleMeshShape.obj
 0001:00105850       ?setPageMapped@PageBoundsInteraction@@AAEX_N@Z 10106850 f i TriangleMeshShape.obj
 0001:00105880       ?setHwMapped@PageBoundsInteraction@@AAEX_N@Z 10106880 f i TriangleMeshShape.obj
 0001:001058b0       ?setMeshFlags@TriangleMeshShape@@UAEXI@Z 101068b0 f i TriangleMeshShape.obj
 0001:001058c0       ?GetAdjTri@AdjTriangle@@QBEIW4SharedEdgeIndex@@@Z 101068c0 f i TriangleMeshShape.obj
 0001:001058e0       ?IsBoundaryEdge@AdjTriangle@@QBEHW4SharedEdgeIndex@@@Z 101068e0 f i TriangleMeshShape.obj
 0001:00105900       ?HasActiveEdge01@AdjTriangle@@QBEHXZ 10106900 f i TriangleMeshShape.obj
 0001:00105910       ?HasActiveEdge20@AdjTriangle@@QBEHXZ 10106910 f i TriangleMeshShape.obj
 0001:00105920       ?HasActiveEdge12@AdjTriangle@@QBEHXZ 10106920 f i TriangleMeshShape.obj
 0001:00105930       ?mapPageShape@ShapeInstancePair@@QAE_NPAVTriangleMeshShape@@I@Z 10106930 f i TriangleMeshShape.obj
 0001:001059b0       ?unmapPageShape@ShapeInstancePair@@QAEXPAVTriangleMeshShape@@I@Z 101069b0 f i TriangleMeshShape.obj
 0001:00105a10       ??1PageBoundsActor@@EAE@XZ 10106a10 f   TriangleMeshShape.obj
 0001:00105a20       ?canDeactivate@PageBoundsActor@@UBE_NXZ 10106a20 f i TriangleMeshShape.obj
 0001:00105a30       ?isActive@PageBoundsActor@@UBE_NXZ 10106a30 f i TriangleMeshShape.obj
 0001:00105a40       ?onActivate@PageBoundsActor@@MAEXXZ 10106a40 f i TriangleMeshShape.obj
 0001:00105a50       ?onDeactivate@PageBoundsActor@@MAEXXZ 10106a50 f i TriangleMeshShape.obj
 0001:00105a60       ?isActive@PageBoundsInteraction@@UBE_NXZ 10106a60 f   TriangleMeshShape.obj
 0001:00105a70       ?computeLocalSphere@TriangleMeshShape@@EBEXAAVNxSphere@@@Z 10106a70 f   TriangleMeshShape.obj
 0001:00105ab0       ?computeLocalBounds@TriangleMeshShape@@UBEXAAVNxBounds3@@@Z 10106ab0 f   TriangleMeshShape.obj
 0001:00105af0       ?getTriangleMesh@TriangleMeshShape@@UAEPAVNpTriangleMesh@@XZ 10106af0 f   TriangleMeshShape.obj
 0001:00105b00       ?getNvTriangleMesh@TriangleMeshShape@@UAEPAVNvTriangleMesh@@XZ 10106b00 f   TriangleMeshShape.obj
 0001:00105b10       ?getNvTriangleMesh@TriangleMeshShape@@UBEPBVNvTriangleMesh@@XZ 10106b10 f   TriangleMeshShape.obj
 0001:00105b20       ??0?$NxArray@VPageData@TriangleMeshShape@@VUserAllocatorAccess@NxFoundation@@@@QAE@XZ 10106b20 f i TriangleMeshShape.obj
 0001:00105b30       ??A?$NxArray@VPageData@TriangleMeshShape@@VUserAllocatorAccess@NxFoundation@@@@QBEABVPageData@TriangleMeshShape@@I@Z 10106b30 f i TriangleMeshShape.obj
 0001:00105b50       ??A?$NxArray@VPageData@TriangleMeshShape@@VUserAllocatorAccess@NxFoundation@@@@QAEAAVPageData@TriangleMeshShape@@I@Z 10106b50 f i TriangleMeshShape.obj
 0001:00105b70       ?begin@?$NxArray@VPageData@TriangleMeshShape@@VUserAllocatorAccess@NxFoundation@@@@QAEPAVPageData@TriangleMeshShape@@XZ 10106b70 f i TriangleMeshShape.obj
 0001:00105b80       ?end@?$NxArray@VPageData@TriangleMeshShape@@VUserAllocatorAccess@NxFoundation@@@@QAEPAVPageData@TriangleMeshShape@@XZ 10106b80 f i TriangleMeshShape.obj
 0001:00105b90       ?reallocate@?$NxArray@VPageData@TriangleMeshShape@@VUserAllocatorAccess@NxFoundation@@@@AAEPAVPageData@TriangleMeshShape@@IPAV23@@Z 10106b90 f i TriangleMeshShape.obj
 0001:00105bc0       ?deallocate@?$NxArray@VPageData@TriangleMeshShape@@VUserAllocatorAccess@NxFoundation@@@@AAEXPAVPageData@TriangleMeshShape@@@Z 10106bc0 f i TriangleMeshShape.obj
 0001:00105be0       ?destroy@?$NxArray@VPageData@TriangleMeshShape@@VUserAllocatorAccess@NxFoundation@@@@AAEXPAVPageData@TriangleMeshShape@@0@Z 10106be0 f i TriangleMeshShape.obj
 0001:00105bf0       ?capacity@?$NxArray@PAVTriangleMeshShape@@VUserAllocatorAccess@NxFoundation@@@@QBEIXZ 10106bf0 f i TriangleMeshShape.obj
 0001:00105c10       ?copy@?$NxArray@PAVTriangleMeshShape@@VUserAllocatorAccess@NxFoundation@@@@AAEPAPAVTriangleMeshShape@@PBQAV2@0PAPAV2@@Z 10106c10 f i TriangleMeshShape.obj
 0001:00105c40       ?allocate@?$NxArray@PAVTriangleMeshShape@@VUserAllocatorAccess@NxFoundation@@@@AAEPAPAVTriangleMeshShape@@I@Z 10106c40 f i TriangleMeshShape.obj
 0001:00105c70       ?capacity@?$NxArray@VPageData@TriangleMeshShape@@VUserAllocatorAccess@NxFoundation@@@@QBEIXZ 10106c70 f i TriangleMeshShape.obj
 0001:00105c90       ?fill@?$NxArray@VPageData@TriangleMeshShape@@VUserAllocatorAccess@NxFoundation@@@@AAEXPAVPageData@TriangleMeshShape@@IABV23@@Z 10106c90 f i TriangleMeshShape.obj
 0001:00105ce0       ?copy@?$NxArray@VPageData@TriangleMeshShape@@VUserAllocatorAccess@NxFoundation@@@@AAEPAVPageData@TriangleMeshShape@@PBV23@0PAV23@@Z 10106ce0 f i TriangleMeshShape.obj
 0001:00105d30       ?allocate@?$NxArray@VPageData@TriangleMeshShape@@VUserAllocatorAccess@NxFoundation@@@@AAEPAVPageData@TriangleMeshShape@@I@Z 10106d30 f i TriangleMeshShape.obj
 0001:00105d60       ?getPageBodyShape@TriangleMeshShape@@QBEII@Z 10106d60 f i TriangleMeshShape.obj
 0001:00105d80       ?isPageInstanceMappedFast@TriangleMeshShape@@QBE_NI@Z 10106d80 f i TriangleMeshShape.obj
 0001:00105db0       ?incrementPageReference@TriangleMeshShape@@QAEXI_N@Z 10106db0 f i TriangleMeshShape.obj
 0001:00106d60       ??_EPageBoundsActor@@EAEPAXI@Z 10107d60 f i TriangleMeshShape.obj
 0001:00106d60       ??_GPageBoundsActor@@EAEPAXI@Z 10107d60 f i TriangleMeshShape.obj
 0001:00106d90       ?findShapeInstancePair@PageBoundsActor@@QAEPAVShapeInstancePair@@PBVShape@@@Z 10107d90 f i TriangleMeshShape.obj
 0001:00106e30       ?mapPageShape@PageBoundsInteraction@@QAE_NXZ 10107e30 f   TriangleMeshShape.obj
 0001:00106f30       ?unmapPageShape@PageBoundsInteraction@@QAEXXZ 10107f30 f   TriangleMeshShape.obj
 0001:00106ff0       ?isSipHwReady@PageBoundsInteraction@@QBE_NXZ 10107ff0 f   TriangleMeshShape.obj
 0001:00107080       ?setSipState@PageBoundsInteraction@@QAEX_N@Z 10108080 f   TriangleMeshShape.obj
 0001:00107140       ?computeWorldBounds@TriangleMeshShape@@EBEXAAVNxBounds3@@@Z 10108140 f   TriangleMeshShape.obj
 0001:001073d0       ?computeWorldSphere@TriangleMeshShape@@EBEXAAVNxSphere@@@Z 101083d0 f   TriangleMeshShape.obj
 0001:001074b0       ?visualize@TriangleMeshShape@@UBEXAAVDebugRenderable@NxFoundation@@@Z 101084b0 f   TriangleMeshShape.obj
 0001:001080f0       ?raycast@TriangleMeshShape@@UBE_NABVNxRay@@MIAAUNxRaycastHit@@_N@Z 101090f0 f   TriangleMeshShape.obj
 0001:001090a0       ?overlapAABBTriangles@TriangleMeshShape@@ABE_NVNxBounds3@@IAAIAAPBIAAVHybridAABBCollider@Opcode@@AAUAABBCache@4@@Z 1010a0a0 f   TriangleMeshShape.obj
 0001:00109390       ?checkOverlapSphere@TriangleMeshShape@@UBE_NABVNxSphere@@@Z 1010a390 f   TriangleMeshShape.obj
 0001:001097f0       ?checkOverlapOBB@TriangleMeshShape@@UBE_NABVNxBox@@@Z 1010a7f0 f   TriangleMeshShape.obj
 0001:00109c50       ?checkOverlapAABB@TriangleMeshShape@@UBE_NABVNxBounds3@@@Z 1010ac50 f   TriangleMeshShape.obj
 0001:0010a1d0       ?checkOverlapCapsule@TriangleMeshShape@@UBE_NABVNxCapsule@@@Z 1010b1d0 f   TriangleMeshShape.obj
 0001:0010a630       ?getTriangle@TriangleMeshShape@@UBEIAAVNxTriangle@@PAV2@PAII_N3@Z 1010b630 f   TriangleMeshShape.obj
 0001:0010c1e0       ?isPageInstanceMapped@TriangleMeshShape@@UBE_NI@Z 1010d1e0 f   TriangleMeshShape.obj
 0001:0010c230       ?remapPagesToSip@TriangleMeshShape@@QAEXPAVShapeInstancePair@@@Z 1010d230 f   TriangleMeshShape.obj
 0001:0010c310       ?updatePageTransforms@TriangleMeshShape@@QAEXABVNxQP@@@Z 1010d310 f   TriangleMeshShape.obj
 0001:0010c3f0       ?getPageWorldBounds@TriangleMeshShape@@QBE?AVNxBounds3@@I@Z 1010d3f0 f   TriangleMeshShape.obj
 0001:0010c650       ?updateSipsHwState@TriangleMeshShape@@AAEXI@Z 1010d650 f   TriangleMeshShape.obj
 0001:0010c6f0       ??1?$NxArray@VPageData@TriangleMeshShape@@VUserAllocatorAccess@NxFoundation@@@@QAE@XZ 1010d6f0 f i TriangleMeshShape.obj
 0001:0010c730       ?reserve@?$NxArray@PAVTriangleMeshShape@@VUserAllocatorAccess@NxFoundation@@@@QAEXI@Z 1010d730 f i TriangleMeshShape.obj
 0001:0010c7e0       ?erase@?$NxArray@VPageData@TriangleMeshShape@@VUserAllocatorAccess@NxFoundation@@@@QAEXPAVPageData@TriangleMeshShape@@0@Z 1010d7e0 f i TriangleMeshShape.obj
 0001:0010c860       ?reserve@?$NxArray@VPageData@TriangleMeshShape@@VUserAllocatorAccess@NxFoundation@@@@QAEXI@Z 1010d860 f i TriangleMeshShape.obj
 0001:0010c940       ?updateBroadPhase@PageBoundsActor@@QAEXXZ 1010d940 f i TriangleMeshShape.obj
 0001:0010caa0       ??0PageBoundsActor@@QAE@AAVScene@@AAVTriangleMeshShape@@II@Z 1010daa0 f   TriangleMeshShape.obj
 0001:0010cd20       ?destroy@PageBoundsActor@@UAEXXZ 1010dd20 f   TriangleMeshShape.obj
 0001:0010cd80       ?acquirePage@PageBoundsInteraction@@QAE_NXZ 1010dd80 f   TriangleMeshShape.obj
 0001:0010ee10       ?onActivate@PageBoundsInteraction@@MAEXXZ 1010fe10 f   TriangleMeshShape.obj
 0001:0010ee20       ??0?$NxArraySDK@VPageData@TriangleMeshShape@@@NxFoundation@@QAE@XZ 1010fe20 f i TriangleMeshShape.obj
 0001:0010ee30       ??1?$NxArraySDK@VPageData@TriangleMeshShape@@@NxFoundation@@QAE@XZ 1010fe30 f i TriangleMeshShape.obj
 0001:0010ee70       ??1TriangleMeshShape@@MAE@XZ 1010fe70 f   TriangleMeshShape.obj
 0001:0010ef70       ?getShape@TriangleMeshShape@@UAEAAVShape@@XZ 1010ff70 f i TriangleMeshShape.obj
 0001:0010ef80       ?getShape@TriangleMeshShape@@UBEABVShape@@XZ 1010ff80 f i TriangleMeshShape.obj
 0001:0010ef90       ??BTriangleMeshShape@@UAEAAVShape@@XZ 1010ff90 f i TriangleMeshShape.obj
 0001:0010efa0       ?hasSpecialBroadphase@TriangleMeshShape@@UBE_NXZ 1010ffa0 f i TriangleMeshShape.obj
 0001:0010efb0       ?getMeshFlags@TriangleMeshShape@@UBEIXZ 1010ffb0 f i TriangleMeshShape.obj
 0001:0010efc0       ?getMeshPagingMode@TriangleMeshShape@@UBE?AW4NxMeshPagingMode@@XZ 1010ffc0 f i TriangleMeshShape.obj
 0001:0010efd0       ?setMeshPagingMode@TriangleMeshShape@@UAEXW4NxMeshPagingMode@@@Z 1010ffd0 f i TriangleMeshShape.obj
 0001:0010efe0       ?overlapAABBTriangles@TriangleMeshShape@@UBE_NVNxBounds3@@IAAIAAPBI@Z 1010ffe0 f   TriangleMeshShape.obj
 0001:0010f0e0       ?updateBroadPhase@TriangleMeshShape@@UAEXXZ 101100e0 f   TriangleMeshShape.obj
 0001:0010f140       ?updateLowLevelShapeTransform@TriangleMeshShape@@UAEXXZ 10110140 f   TriangleMeshShape.obj
 0001:0010fae0       ?pushBack@?$NxArray@PAVTriangleMeshShape@@VUserAllocatorAccess@NxFoundation@@@@QAEXABQAVTriangleMeshShape@@@Z 10110ae0 f i TriangleMeshShape.obj
 0001:0010fbb0       ?insert@?$NxArray@VPageData@TriangleMeshShape@@VUserAllocatorAccess@NxFoundation@@@@QAEXPAVPageData@TriangleMeshShape@@IABV23@@Z 10110bb0 f i TriangleMeshShape.obj
 0001:0010fd90       ?addToPageUnmapList@Scene@@QAEXPAVTriangleMeshShape@@@Z 10110d90 f i TriangleMeshShape.obj
 0001:0010fe90       ?decrementPageReference@TriangleMeshShape@@QAEXI_N@Z 10110e90 f i TriangleMeshShape.obj
 0001:00110010       ?mapManagerPageShapes@PageBoundsActor@@QAEXXZ 10111010 f i TriangleMeshShape.obj
 0001:00110050       ??0PageBoundsInteraction@@QAE@AAVPageBoundsActor@@AAVPxActor@@@Z 10111050 f   TriangleMeshShape.obj
 0001:001101a0       ?releasePage@PageBoundsInteraction@@QAE_NXZ 101111a0 f   TriangleMeshShape.obj
 0001:00110380       ?onDeactivate@PageBoundsInteraction@@MAEXXZ 10111380 f   TriangleMeshShape.obj
 0001:00110390       ?doDeactivate@PageBoundsInteraction@@QAEX_N@Z 10111390 f   TriangleMeshShape.obj
 0001:00110580       ??_ETriangleMeshShape@@MAEPAXI@Z 10111580 f i TriangleMeshShape.obj
 0001:00110580       ??_GTriangleMeshShape@@MAEPAXI@Z 10111580 f i TriangleMeshShape.obj
 0001:001105b0       ?resize@?$NxArray@VPageData@TriangleMeshShape@@VUserAllocatorAccess@NxFoundation@@@@QAEXIABVPageData@TriangleMeshShape@@@Z 101115b0 f i TriangleMeshShape.obj
 0001:00110830       ?mapPageInstanceFast@TriangleMeshShape@@QAE_NI@Z 10111830 f i TriangleMeshShape.obj
 0001:00111730       ?unmapManagerPageShapes@PageBoundsActor@@QAEXXZ 10112730 f i TriangleMeshShape.obj
 0001:00111760       ??1PageBoundsInteraction@@UAE@XZ 10112760 f   TriangleMeshShape.obj
 0001:00111800       ?mapPageInstance@TriangleMeshShape@@UAE_NI@Z 10112800 f   TriangleMeshShape.obj
 0001:00113740       ?unmapPageInstanceFast@TriangleMeshShape@@QAEXI@Z 10114740 f i TriangleMeshShape.obj
 0001:001137e0       ??_EPageBoundsInteraction@@UAEPAXI@Z 101147e0 f i TriangleMeshShape.obj
 0001:001137e0       ??_GPageBoundsInteraction@@UAEPAXI@Z 101147e0 f i TriangleMeshShape.obj
 0001:00113810       ?release@TriangleMeshShape@@UAEXXZ 10114810 f   TriangleMeshShape.obj
 0001:00113910       ?unmapPageInstance@TriangleMeshShape@@UAEXI@Z 10114910 f   TriangleMeshShape.obj
 0001:00113b60       ?unmapPages@TriangleMeshShape@@QAEXXZ 10114b60 f   TriangleMeshShape.obj
 0001:00113c60       ?destroyPages@TriangleMeshShape@@QAEXXZ 10114c60 f   TriangleMeshShape.obj
 0001:00113da0       ?removeFromBroadPhase@TriangleMeshShape@@UAEXXZ 10114da0 f   TriangleMeshShape.obj
 0001:00113dc0       ?recreatePages@TriangleMeshShape@@QAEXXZ 10114dc0 f   TriangleMeshShape.obj
 0001:00113f80       ?setTriangleMesh@TriangleMeshShape@@UAEXPAVNvTriangleMesh@@@Z 10114f80 f   TriangleMeshShape.obj
 0001:001143d0       ??0TriangleMeshShape@@IAE@ABVNvShapeDesc@@PAVScene@@I@Z 101153d0 f   TriangleMeshShape.obj
 0001:00115010       ??0Valencies@@QAE@XZ       10116010 f   Valency.obj
 0001:00115030       ??1Valencies@@QAE@XZ       10116030 f   Valency.obj
 0001:00115090       ?CreateOffsets@Valencies@@IAEXXZ 10116090 f   Valency.obj
 0001:001150e0       ?GetUsedRam@Valencies@@QBEIXZ 101160e0 f   Valency.obj
 0001:00115100       ?Load@Valencies@@QAE_NABVStream@IceCore@@@Z 10116100 f   Valency.obj
 0001:001152a0       _asinf                     101162a0 f i WheelShape.obj
 0001:001152b0       ?asin@NxMath@@SAMM@Z       101162b0 f i WheelShape.obj
 0001:00115300       ?rotY@NxMat33@@QAEXM@Z     10116300 f i WheelShape.obj
 0001:00115350       ?rotZ@NxMat33@@QAEXM@Z     10116350 f i WheelShape.obj
 0001:001153a0       ?is@NxShape@@QAEPAXW4NxShapeType@@@Z 101163a0 f i WheelShape.obj
 0001:001153d0       ?isWheel@NxShape@@QAEPAVNxWheelShape@@XZ 101163d0 f i WheelShape.obj
 0001:001153f0       ??1NxShapeDesc@@UAE@XZ     101163f0 f i WheelShape.obj
 0001:00115400       ?setToDefault@NxShapeDesc@@UAEXXZ 10116400 f i WheelShape.obj
 0001:00115480       ?isValid@NxShapeDesc@@UBE_NXZ 10116480 f i WheelShape.obj
 0001:00115670       ??1NxTireFunctionDesc@@UAE@XZ 10116670 f i WheelShape.obj
 0001:00115680       ??1NxWheelShapeDesc@@UAE@XZ 10116680 f i WheelShape.obj
 0001:001156a0       ?hermiteEval@NxTireFunctionDesc@@QBEMM@Z 101166a0 f i WheelShape.obj
 0001:00115770       ?setToDefault@NxWheelShapeDesc@@UAEX_N@Z 10116770 f i WheelShape.obj
 0001:00115860       ?getSuspension@WheelShape@@QBEABVNxSpringDesc@@XZ 10116860 f i WheelShape.obj
 0001:00115870       ?getRadiusFast@WheelShape@@QBEMXZ 10116870 f i WheelShape.obj
 0001:00115880       ?getSuspensionTravelFast@WheelShape@@QBEMXZ 10116880 f i WheelShape.obj
 0001:00115890       ??0WheelContact@WheelShape@@QAE@XZ 10116890 f i WheelShape.obj
 0001:001158a0       ?getContact@WheelShape@@UBEPAVNvShape@@AAVNxWheelContactData@@@Z 101168a0 f   WheelShape.obj
 0001:001159a0       ?disableAxCons@WheelShape@@QAEXXZ 101169a0 f   WheelShape.obj
 0001:001159e0       ?disableSusCons@WheelShape@@QAEXXZ 101169e0 f   WheelShape.obj
 0001:00115a30       ?raycast@WheelShape@@UBE_NABVNxRay@@MIAAUNxRaycastHit@@_N@Z 10116a30 f   WheelShape.obj
 0001:00115a40       ?computeLocalBounds@WheelShape@@UBEXAAVNxBounds3@@@Z 10116a40 f   WheelShape.obj
 0001:00115a80       ?computeLocalSphere@WheelShape@@UBEXAAVNxSphere@@@Z 10116a80 f   WheelShape.obj
 0001:00115ab0       ??0NxShapeDesc@@IAE@W4NxShapeType@@@Z 10116ab0 f i WheelShape.obj
 0001:00115b50       ??_GNxShapeDesc@@UAEPAXI@Z 10116b50 f i WheelShape.obj
 0001:00115b50       ??_ENxShapeDesc@@UAEPAXI@Z 10116b50 f i WheelShape.obj
 0001:00115b80       ??0NxTireFunctionDesc@@QAE@XZ 10116b80 f i WheelShape.obj
 0001:00115bc0       ??0NxWheelShapeDesc@@QAE@XZ 10116bc0 f i WheelShape.obj
 0001:00115da0       ??_GNxWheelShapeDesc@@UAEPAXI@Z 10116da0 f i WheelShape.obj
 0001:00115da0       ??_ENxWheelShapeDesc@@UAEPAXI@Z 10116da0 f i WheelShape.obj
 0001:00115dd0       ?isValid@NxWheelShapeDesc@@UBE_NXZ 10116dd0 f i WheelShape.obj
 0001:00116160       ??0WheelShape@@IAE@ABVNvShapeDesc@@PAVScene@@I@Z 10117160 f   WheelShape.obj
 0001:00116680       ?getShape@WheelShape@@UAEAAVShape@@XZ 10117680 f i WheelShape.obj
 0001:00116690       ?getShape@WheelShape@@UBEABVShape@@XZ 10117690 f i WheelShape.obj
 0001:001166a0       ??BWheelShape@@UAEAAVShape@@XZ 101176a0 f i WheelShape.obj
 0001:001166b0       ?hasSpecialBroadphase@WheelShape@@UBE_NXZ 101176b0 f i WheelShape.obj
 0001:001166c0       ?isValid@WheelShape@@UBE_NXZ 101176c0 f i WheelShape.obj
 0001:001166d0       ?setWheelRadius@WheelShape@@UAEXM@Z 101176d0 f i WheelShape.obj
 0001:001166e0       ?getWheelRadius@WheelShape@@UBEMXZ 101176e0 f i WheelShape.obj
 0001:001166f0       ?setWheelSuspensionTravel@WheelShape@@UAEXM@Z 101176f0 f i WheelShape.obj
 0001:00116700       ?getWheelSuspensionTravel@WheelShape@@UBEMXZ 10117700 f i WheelShape.obj
 0001:00116710       ?setWheelInverseMass@WheelShape@@UAEXM@Z 10117710 f i WheelShape.obj
 0001:00116720       ?getWheelInverseMass@WheelShape@@UBEMXZ 10117720 f i WheelShape.obj
 0001:00116730       ?setWheelFlags@WheelShape@@UAEXI@Z 10117730 f i WheelShape.obj
 0001:00116740       ?getWheelFlags@WheelShape@@UBEIXZ 10117740 f i WheelShape.obj
 0001:00116750       ?setWheelMotorTorque@WheelShape@@UAEXM@Z 10117750 f i WheelShape.obj
 0001:00116760       ?getWheelMotorTorque@WheelShape@@UBEMXZ 10117760 f i WheelShape.obj
 0001:00116770       ?setWheelBrakeTorque@WheelShape@@UAEXM@Z 10117770 f i WheelShape.obj
 0001:00116780       ?getWheelBrakeTorque@WheelShape@@UBEMXZ 10117780 f i WheelShape.obj
 0001:00116790       ?setWheelSteerAngle@WheelShape@@UAEXM@Z 10117790 f i WheelShape.obj
 0001:001167a0       ?getWheelSteerAngle@WheelShape@@UBEMXZ 101177a0 f i WheelShape.obj
 0001:001167b0       ?setWheelSuspension@WheelShape@@UAEXVNxSpringDesc@@@Z 101177b0 f i WheelShape.obj
 0001:001167e0       ?getWheelSuspension@WheelShape@@UBE?AVNxSpringDesc@@XZ 101177e0 f i WheelShape.obj
 0001:00116810       ?setWheelLngImpulse@WheelShape@@UAEXM@Z 10117810 f i WheelShape.obj
 0001:00116820       ?getWheelLngImpulse@WheelShape@@UBEMXZ 10117820 f i WheelShape.obj
 0001:00116830       ?setWheelAxleSpeed@WheelShape@@UAEXM@Z 10117830 f i WheelShape.obj
 0001:00116860       ?getWheelAxleSpeed@WheelShape@@UBEMXZ 10117860 f i WheelShape.obj
 0001:00116870       ?setUserWheelContactModify@WheelShape@@UAEXPAVNxUserWheelContactModify@@@Z 10117870 f i WheelShape.obj
 0001:00116880       ?getUserWheelContactModify@WheelShape@@UAEPAVNxUserWheelContactModify@@XZ 10117880 f i WheelShape.obj
 0001:00116890       ?setWheelLongitudalTireForceFunction@WheelShape@@UAEXVNxTireFunctionDesc@@@Z 10117890 f i WheelShape.obj
 0001:001168e0       ?getWheelLongitudalTireForceFunction@WheelShape@@UBE?AVNxTireFunctionDesc@@XZ 101178e0 f i WheelShape.obj
 0001:00116940       ?setWheelLateralTireForceFunction@WheelShape@@UAEXVNxTireFunctionDesc@@@Z 10117940 f i WheelShape.obj
 0001:00116990       ?getWheelLateralTireForceFunction@WheelShape@@UBE?AVNxTireFunctionDesc@@XZ 10117990 f i WheelShape.obj
 0001:001169f0       ??1WheelShape@@MAE@XZ      101179f0 f   WheelShape.obj
 0001:00116a90       ?notifyContact@WheelShape@@QAEXPAPAVBody@@ABVNxVec3@@1MPAVShape@@GI@Z 10117a90 f   WheelShape.obj
 0001:00116c50       ?tick@WheelShape@@QAEXMM@Z 10117c50 f   WheelShape.obj
 0001:00116fe0       ?execTireModel@WheelShape@@QAEXI@Z 10117fe0 f   WheelShape.obj
 0001:0011b7c0       ?visualize@WheelShape@@UBEXAAVDebugRenderable@NxFoundation@@@Z 1011c7c0 f   WheelShape.obj
 0001:0011bd10       ?checkOverlapSphere@WheelShape@@UBE_NABVNxSphere@@@Z 1011cd10 f   WheelShape.obj
 0001:0011bef0       ?checkOverlapOBB@WheelShape@@UBE_NABVNxBox@@@Z 1011cef0 f   WheelShape.obj
 0001:0011c0d0       ?checkOverlapAABB@WheelShape@@UBE_NABVNxBounds3@@@Z 1011d0d0 f   WheelShape.obj
 0001:0011c220       ?checkOverlapCapsule@WheelShape@@UBE_NABVNxCapsule@@@Z 1011d220 f   WheelShape.obj
 0001:0011c410       ?computeWorldBounds@WheelShape@@UBEXAAVNxBounds3@@@Z 1011d410 f   WheelShape.obj
 0001:0011c750       ?computeWorldSphere@WheelShape@@UBEXAAVNxSphere@@@Z 1011d750 f   WheelShape.obj
 0001:0011c970       ??_EWheelShape@@MAEPAXI@Z  1011d970 f i WheelShape.obj
 0001:0011c970       ??_GWheelShape@@MAEPAXI@Z  1011d970 f i WheelShape.obj
 0001:0011c9a0       ?clamp@NxMath@@SAMMMM@Z    1011d9a0 f i Cloth.obj
 0001:0011c9e0       ?NxAlignedSize@@YAIPAX@Z   1011d9e0 f i Cloth.obj
 0001:0011c9f0       ?NxAlignedReAlloc@@YAPAXPAXII@Z 1011d9f0 f i Cloth.obj
 0001:0011caa0       ??1NxMeshData@@QAE@XZ      1011daa0 f i Cloth.obj
 0001:0011cab0       ?setToDefault@NxMeshData@@QAEXXZ 1011dab0 f i Cloth.obj
 0001:0011cb00       ?isValid@NxMeshData@@QBE_NXZ 1011db00 f i Cloth.obj
 0001:0011cbc0       ?init@ClothCollisionInfo@@QAEXABVNxVec3@@0M@Z 1011dbc0 f i Cloth.obj
 0001:0011cc20       ??MClothVertexRef@@QBE_NABU0@@Z 1011dc20 f i Cloth.obj
 0001:0011cc60       ?removeCoreShape@ClothMetal@@QAEXXZ 1011dc60 f i Cloth.obj
 0001:0011cc70       ?isActivated@ClothMetal@@QBE_NXZ 1011dc70 f i Cloth.obj
 0001:0011cc80       ?set@AdjTriangle@Cloth@@QAEXPAIII@Z 1011dc80 f i Cloth.obj
 0001:0011ccb0       ?matches@AdjTriangle@Cloth@@QAE_NIII@Z 1011dcb0 f i Cloth.obj
 0001:0011cd00       ?contains@AdjTriangle@Cloth@@QBE_NI@Z 1011dd00 f i Cloth.obj
 0001:0011cd30       ?otherIndex@AdjTriangle@Cloth@@QBEII@Z 1011dd30 f i Cloth.obj
 0001:0011cd50       ??0clothParticleForceUpdate@Cloth@@QAE@HM@Z 1011dd50 f i Cloth.obj
 0001:0011cd70       ?getScene@ClothManager@@QAEPAVScene@@XZ 1011dd70 f i Cloth.obj
 0001:0011cd80       ?getNvClothMesh@NpClothMesh@@QAEPAVNvClothMesh@@XZ 1011dd80 f i Cloth.obj
 0001:0011cd90       ?getFlagsFast@Shape@@QBEIXZ 1011dd90 f i Cloth.obj
 0001:0011cda0       ??0NvMirrorManagerMeshClient@@QAE@XZ 1011dda0 f i Cloth.obj
 0001:0011cdb0       ??0ClothParticle@@QAE@XZ   1011ddb0 f i Cloth.obj
 0001:0011cdc0       ?saveToDesc@Cloth@@UBE_NAAVNxClothDesc@@@Z 1011ddc0 f   Cloth.obj
 0001:0011cf60       ?getMeshData@Cloth@@UAEAAVNxMeshData@@XZ 1011df60 f   Cloth.obj
 0001:0011cf70       ?getClothMesh@Cloth@@UBEPAVNxClothMesh@@XZ 1011df70 f   Cloth.obj
 0001:0011cf80       ?setMeshData@Cloth@@UAEXAAVNxMeshData@@@Z 1011df80 f   Cloth.obj
 0001:0011d080       ?getOwnerScene@Cloth@@UBEPAVNvScene@@XZ 1011e080 f   Cloth.obj
 0001:0011d090       ?detachFromCore@Cloth@@UAEXPAVNvShape@@@Z 1011e090 f   Cloth.obj
 0001:0011d0c0       ?changedConnectivityLastStep@Cloth@@UAE_NXZ 1011e0c0 f   Cloth.obj
 0001:0011d0e0       ?getNumberOfTriangles@Cloth@@UAEIXZ 1011e0e0 f   Cloth.obj
 0001:0011d0f0       ?storeParticleToStream@@YAXAAUClothParticle@@AAVNxStream@@@Z 1011e0f0 f   Cloth.obj
 0001:0011d2c0       ?loadParticleFromStream@@YAXAAUClothParticle@@AAVNxStream@@@Z 1011e2c0 f   Cloth.obj
 0001:0011d460       ?isSleeping@Cloth@@UBE_NXZ 1011e460 f   Cloth.obj
 0001:0011d490       ?getSleepLinearVelocity@Cloth@@UBEMXZ 1011e490 f   Cloth.obj
 0001:0011d4a0       ?setSleepLinearVelocity@Cloth@@UAEXM@Z 1011e4a0 f   Cloth.obj
 0001:0011d4b0       ?wakeUp@Cloth@@UAEXM@Z     1011e4b0 f   Cloth.obj
 0001:0011d4d0       ?updateInertia@@YAXAAVNxMat33@@ABVNxVec3@@M@Z 1011e4d0 f i Cloth.obj
 0001:0011d5a0       ??0ClothCollisionInfo@@QAE@XZ 1011e5a0 f i Cloth.obj
 0001:0011d5b0       ?addToHash@Cloth@@QAEXAAVClothHash@@@Z 1011e5b0 f   Cloth.obj
 0001:0011d5c0       ?addSelfContacts@Cloth@@AAEXAAVClothHash@@@Z 1011e5c0 f   Cloth.obj
 0001:0011d5d0       ?projectSelfContacts@Cloth@@AAEXXZ 1011e5d0 f   Cloth.obj
 0001:0011d5e0       ?getWorldBoundsFast@Cloth@@UBEXAAVNxBounds3@@@Z 1011e5e0 f   Cloth.obj
 0001:0011d630       ?setValidBounds@Cloth@@UAEXABVNxBounds3@@@Z 1011e630 f   Cloth.obj
 0001:0011d680       ?getValidBounds@Cloth@@UBEXAAVNxBounds3@@@Z 1011e680 f   Cloth.obj
 0001:0011d6d0       ??0ClothParticle@@QAE@ABU0@@Z 1011e6d0 f i Cloth.obj
 0001:0011d7d0       ?cellIndex@@YAHHAAVNxVec3@@MMM@Z 1011e7d0 f   Cloth.obj
 0001:0011d9e0       ?copyFrom@SelfCollisionParticle@@QAEXIAAUClothParticle@@@Z 1011e9e0 f   Cloth.obj
 0001:0011da60       ?copyTo@SelfCollisionParticle@@QAEXAAUClothParticle@@@Z 1011ea60 f   Cloth.obj
 0001:0011da80       ??0SelfCollisionParticle@@QAE@XZ 1011ea80 f i Cloth.obj
 0001:0011da90       ?isEmpty@?$NxArray@IVUserAllocatorAccess@NxFoundation@@@@QBE_NXZ 1011ea90 f i Cloth.obj
 0001:0011dab0       ?begin@?$NxArray@IVUserAllocatorAccess@NxFoundation@@@@QBEPBIXZ 1011eab0 f i Cloth.obj
 0001:0011dac0       ?front@?$NxArray@IVUserAllocatorAccess@NxFoundation@@@@QAEAAIXZ 1011eac0 f i Cloth.obj
 0001:0011dad0       ?size@?$NxArray@UClothInternalConstraint@@VUserAllocatorAccess@NxFoundation@@@@QBEIXZ 1011ead0 f i Cloth.obj
 0001:0011dae0       ??A?$NxArray@UClothInternalConstraint@@VUserAllocatorAccess@NxFoundation@@@@QAEAAUClothInternalConstraint@@I@Z 1011eae0 f i Cloth.obj
 0001:0011db00       ?size@?$NxArray@VNxVec3@@VUserAllocatorAccess@NxFoundation@@@@QBEIXZ 1011eb00 f i Cloth.obj
 0001:0011db20       ??A?$NxArray@VNxVec3@@VUserAllocatorAccess@NxFoundation@@@@QAEAAVNxVec3@@I@Z 1011eb20 f i Cloth.obj
 0001:0011db40       ??A?$NxArray@MVUserAllocatorAccess@NxFoundation@@@@QAEAAMI@Z 1011eb40 f i Cloth.obj
 0001:0011db50       ??0?$NxArray@UClothGlobalInternalConstraint@@VUserAllocatorAccess@NxFoundation@@@@QAE@XZ 1011eb50 f i Cloth.obj
 0001:0011db60       ?size@?$NxArray@UClothGlobalInternalConstraint@@VUserAllocatorAccess@NxFoundation@@@@QBEIXZ 1011eb60 f i Cloth.obj
 0001:0011db80       ??A?$NxArray@UClothGlobalInternalConstraint@@VUserAllocatorAccess@NxFoundation@@@@QAEAAUClothGlobalInternalConstraint@@I@Z 1011eb80 f i Cloth.obj
 0001:0011dba0       ?begin@?$NxArray@UClothGlobalInternalConstraint@@VUserAllocatorAccess@NxFoundation@@@@QAEPAUClothGlobalInternalConstraint@@XZ 1011eba0 f i Cloth.obj
 0001:0011dbb0       ?end@?$NxArray@UClothGlobalInternalConstraint@@VUserAllocatorAccess@NxFoundation@@@@QAEPAUClothGlobalInternalConstraint@@XZ 1011ebb0 f i Cloth.obj
 0001:0011dbc0       ?size@?$NxArray@PAVClothSolverPacket@@VUserAllocatorAccess@NxFoundation@@@@QBEIXZ 1011ebc0 f i Cloth.obj
 0001:0011dbd0       ??A?$NxArray@PAVClothSolverPacket@@VUserAllocatorAccess@NxFoundation@@@@QAEAAPAVClothSolverPacket@@I@Z 1011ebd0 f i Cloth.obj
 0001:0011dbe0       ?begin@?$NxArray@PAVNxShape@@VUserAllocatorAccess@NxFoundation@@@@QAEPAPAVNxShape@@XZ 1011ebe0 f i Cloth.obj
 0001:0011dbf0       ??0?$NxArray@UClothParticle@@V?$UserAllocAccessAlign@$0IA@@NxFoundation@@@@QAE@XZ 1011ebf0 f i Cloth.obj
 0001:0011dc00       ?size@?$NxArray@UClothParticle@@V?$UserAllocAccessAlign@$0IA@@NxFoundation@@@@QBEIXZ 1011ec00 f i Cloth.obj
 0001:0011dc10       ??A?$NxArray@UClothParticle@@V?$UserAllocAccessAlign@$0IA@@NxFoundation@@@@QBEABUClothParticle@@I@Z 1011ec10 f i Cloth.obj
 0001:0011dc30       ??A?$NxArray@UClothParticle@@V?$UserAllocAccessAlign@$0IA@@NxFoundation@@@@QAEAAUClothParticle@@I@Z 1011ec30 f i Cloth.obj
 0001:0011dc50       ?begin@?$NxArray@UClothParticle@@V?$UserAllocAccessAlign@$0IA@@NxFoundation@@@@QAEPAUClothParticle@@XZ 1011ec50 f i Cloth.obj
 0001:0011dc60       ??0?$NxArray@UClothSelfContact@@VUserAllocatorAccess@NxFoundation@@@@QAE@XZ 1011ec60 f i Cloth.obj
 0001:0011dc70       ?size@?$NxArray@UClothSelfContact@@VUserAllocatorAccess@NxFoundation@@@@QBEIXZ 1011ec70 f i Cloth.obj
 0001:0011dc90       ??A?$NxArray@UClothSelfContact@@VUserAllocatorAccess@NxFoundation@@@@QAEAAUClothSelfContact@@I@Z 1011ec90 f i Cloth.obj
 0001:0011dcb0       ??0?$NxArray@UClothVertexRef@@VUserAllocatorAccess@NxFoundation@@@@QAE@XZ 1011ecb0 f i Cloth.obj
 0001:0011dcc0       ??A?$NxArray@UClothVertexRef@@VUserAllocatorAccess@NxFoundation@@@@QAEAAUClothVertexRef@@I@Z 1011ecc0 f i Cloth.obj
 0001:0011dcd0       ??0?$NxArray@UAdjTriangle@Cloth@@VUserAllocatorAccess@NxFoundation@@@@QAE@XZ 1011ecd0 f i Cloth.obj
 0001:0011dce0       ?size@?$NxArray@UAdjTriangle@Cloth@@VUserAllocatorAccess@NxFoundation@@@@QBEIXZ 1011ece0 f i Cloth.obj
 0001:0011dd00       ??A?$NxArray@UAdjTriangle@Cloth@@VUserAllocatorAccess@NxFoundation@@@@QAEAAUAdjTriangle@Cloth@@I@Z 1011ed00 f i Cloth.obj
 0001:0011dd20       ?begin@?$NxArray@UAdjTriangle@Cloth@@VUserAllocatorAccess@NxFoundation@@@@QAEPAUAdjTriangle@Cloth@@XZ 1011ed20 f i Cloth.obj
 0001:0011dd30       ?end@?$NxArray@UAdjTriangle@Cloth@@VUserAllocatorAccess@NxFoundation@@@@QAEPAUAdjTriangle@Cloth@@XZ 1011ed30 f i Cloth.obj
 0001:0011dd40       ??0?$NxArray@UclothParticleForceUpdate@Cloth@@VUserAllocatorAccess@NxFoundation@@@@QAE@XZ 1011ed40 f i Cloth.obj
 0001:0011dd50       ?size@?$NxArray@UclothParticleForceUpdate@Cloth@@VUserAllocatorAccess@NxFoundation@@@@QBEIXZ 1011ed50 f i Cloth.obj
 0001:0011dd60       ??A?$NxArray@UclothParticleForceUpdate@Cloth@@VUserAllocatorAccess@NxFoundation@@@@QAEAAUclothParticleForceUpdate@Cloth@@I@Z 1011ed60 f i Cloth.obj
 0001:0011dd70       ??0?$NxArray@USelfCollisionParticle@@VUserAllocatorAccess@NxFoundation@@@@QAE@XZ 1011ed70 f i Cloth.obj
 0001:0011dd80       ??A?$NxArray@USelfCollisionParticle@@VUserAllocatorAccess@NxFoundation@@@@QAEAAUSelfCollisionParticle@@I@Z 1011ed80 f i Cloth.obj
 0001:0011dda0       ?begin@?$NxArray@USelfCollisionParticle@@VUserAllocatorAccess@NxFoundation@@@@QAEPAUSelfCollisionParticle@@XZ 1011eda0 f i Cloth.obj
 0001:0011ddb0       ?end@?$NxArray@USelfCollisionParticle@@VUserAllocatorAccess@NxFoundation@@@@QAEPAUSelfCollisionParticle@@XZ 1011edb0 f i Cloth.obj
 0001:0011ddc0       ?end@?$NxArray@IVUserAllocatorAccess@NxFoundation@@@@QAEPAIXZ 1011edc0 f i Cloth.obj
 0001:0011ddd0       ?reallocate@?$NxArray@IVUserAllocatorAccess@NxFoundation@@@@AAEPAIIPAI@Z 1011edd0 f i Cloth.obj
 0001:0011de00       ?size@?$NxArray@MVUserAllocatorAccess@NxFoundation@@@@QBEIXZ 1011ee00 f i Cloth.obj
 0001:0011de10       ?deallocate@?$NxArray@UClothGlobalInternalConstraint@@VUserAllocatorAccess@NxFoundation@@@@AAEXPAUClothGlobalInternalConstraint@@@Z 1011ee10 f i Cloth.obj
 0001:0011de30       ?destroy@?$NxArray@UClothGlobalInternalConstraint@@VUserAllocatorAccess@NxFoundation@@@@AAEXPAUClothGlobalInternalConstraint@@0@Z 1011ee30 f i Cloth.obj
 0001:0011de40       ?end@?$NxArray@PAVNxShape@@VUserAllocatorAccess@NxFoundation@@@@QAEPAPAVNxShape@@XZ 1011ee40 f i Cloth.obj
 0001:0011de50       ?reallocate@?$NxArray@PAVNxShape@@VUserAllocatorAccess@NxFoundation@@@@AAEPAPAVNxShape@@IPAPAV2@@Z 1011ee50 f i Cloth.obj
 0001:0011de80       ?end@?$NxArray@UClothParticle@@V?$UserAllocAccessAlign@$0IA@@NxFoundation@@@@QAEPAUClothParticle@@XZ 1011ee80 f i Cloth.obj
 0001:0011de90       ?destroy@?$NxArray@UClothParticle@@V?$UserAllocAccessAlign@$0IA@@NxFoundation@@@@AAEXPAUClothParticle@@0@Z 1011ee90 f i Cloth.obj
 0001:0011dea0       ?begin@?$NxArray@UClothSelfContact@@VUserAllocatorAccess@NxFoundation@@@@QAEPAUClothSelfContact@@XZ 1011eea0 f i Cloth.obj
 0001:0011deb0       ?end@?$NxArray@UClothSelfContact@@VUserAllocatorAccess@NxFoundation@@@@QAEPAUClothSelfContact@@XZ 1011eeb0 f i Cloth.obj
 0001:0011dec0       ?deallocate@?$NxArray@UClothSelfContact@@VUserAllocatorAccess@NxFoundation@@@@AAEXPAUClothSelfContact@@@Z 1011eec0 f i Cloth.obj
 0001:0011dee0       ?destroy@?$NxArray@UClothSelfContact@@VUserAllocatorAccess@NxFoundation@@@@AAEXPAUClothSelfContact@@0@Z 1011eee0 f i Cloth.obj
 0001:0011def0       ?deallocate@?$NxArray@UClothVertexRef@@VUserAllocatorAccess@NxFoundation@@@@AAEXPAUClothVertexRef@@@Z 1011eef0 f i Cloth.obj
 0001:0011df10       ?destroy@?$NxArray@UClothVertexRef@@VUserAllocatorAccess@NxFoundation@@@@AAEXPAUClothVertexRef@@0@Z 1011ef10 f i Cloth.obj
 0001:0011df20       ?deallocate@?$NxArray@UAdjTriangle@Cloth@@VUserAllocatorAccess@NxFoundation@@@@AAEXPAUAdjTriangle@Cloth@@@Z 1011ef20 f i Cloth.obj
 0001:0011df40       ?destroy@?$NxArray@UAdjTriangle@Cloth@@VUserAllocatorAccess@NxFoundation@@@@AAEXPAUAdjTriangle@Cloth@@0@Z 1011ef40 f i Cloth.obj
 0001:0011df50       ?begin@?$NxArray@UclothParticleForceUpdate@Cloth@@VUserAllocatorAccess@NxFoundation@@@@QAEPAUclothParticleForceUpdate@Cloth@@XZ 1011ef50 f i Cloth.obj
 0001:0011df60       ?end@?$NxArray@UclothParticleForceUpdate@Cloth@@VUserAllocatorAccess@NxFoundation@@@@QAEPAUclothParticleForceUpdate@Cloth@@XZ 1011ef60 f i Cloth.obj
 0001:0011df70       ?deallocate@?$NxArray@UclothParticleForceUpdate@Cloth@@VUserAllocatorAccess@NxFoundation@@@@AAEXPAUclothParticleForceUpdate@Cloth@@@Z 1011ef70 f i Cloth.obj
 0001:0011df90       ?destroy@?$NxArray@UclothParticleForceUpdate@Cloth@@VUserAllocatorAccess@NxFoundation@@@@AAEXPAUclothParticleForceUpdate@Cloth@@0@Z 1011ef90 f i Cloth.obj
 0001:0011dfa0       ?size@?$NxArray@USelfCollisionParticle@@VUserAllocatorAccess@NxFoundation@@@@QBEIXZ 1011efa0 f i Cloth.obj
 0001:0011dfc0       ?reallocate@?$NxArray@USelfCollisionParticle@@VUserAllocatorAccess@NxFoundation@@@@AAEPAUSelfCollisionParticle@@IPAU2@@Z 1011efc0 f i Cloth.obj
 0001:0011dff0       ?deallocate@?$NxArray@USelfCollisionParticle@@VUserAllocatorAccess@NxFoundation@@@@AAEXPAUSelfCollisionParticle@@@Z 1011eff0 f i Cloth.obj
 0001:0011e010       ?destroy@?$NxArray@USelfCollisionParticle@@VUserAllocatorAccess@NxFoundation@@@@AAEXPAUSelfCollisionParticle@@0@Z 1011f010 f i Cloth.obj
 0001:0011e020       ??4ClothParticle@@QAEAAU0@ABU0@@Z 1011f020 f i Cloth.obj
 0001:0011e120       ??0SelfCollisionParticle@@QAE@ABU0@@Z 1011f120 f i Cloth.obj
 0001:0011e190       ?fill@?$NxArray@IVUserAllocatorAccess@NxFoundation@@@@AAEXPAIIABI@Z 1011f190 f i Cloth.obj
 0001:0011e1c0       ?fill@?$NxArray@PAVNxShape@@VUserAllocatorAccess@NxFoundation@@@@AAEXPAPAVNxShape@@IABQAV2@@Z 1011f1c0 f i Cloth.obj
 0001:0011e1f0       ?capacity@?$NxArray@UClothParticle@@V?$UserAllocAccessAlign@$0IA@@NxFoundation@@@@QBEIXZ 1011f1f0 f i Cloth.obj
 0001:0011e210       ?fill@?$NxArray@UClothParticle@@V?$UserAllocAccessAlign@$0IA@@NxFoundation@@@@AAEXPAUClothParticle@@IABU2@@Z 1011f210 f i Cloth.obj
 0001:0011e250       ?copy@?$NxArray@UClothParticle@@V?$UserAllocAccessAlign@$0IA@@NxFoundation@@@@AAEPAUClothParticle@@PBU2@0PAU2@@Z 1011f250 f i Cloth.obj
 0001:0011e2a0       ?realloc@?$UserAllocAccessAlign@$0IA@@NxFoundation@@QAEPAXPAXI@Z 1011f2a0 f i Cloth.obj
 0001:0011e350       ?free@?$UserAllocAccessAlign@$0IA@@NxFoundation@@QAEXPAX@Z 1011f350 f i Cloth.obj
 0001:0011e380       ?capacity@?$NxArray@USelfCollisionParticle@@VUserAllocatorAccess@NxFoundation@@@@QBEIXZ 1011f380 f i Cloth.obj
 0001:0011e3b0       ??4SelfCollisionParticle@@QAEAAU0@ABU0@@Z 1011f3b0 f i Cloth.obj
 0001:0011e420       ?capacity@?$NxArray@UClothGlobalInternalConstraint@@VUserAllocatorAccess@NxFoundation@@@@QBEIXZ 1011f420 f i Cloth.obj
 0001:0011e450       ?copy@?$NxArray@UClothGlobalInternalConstraint@@VUserAllocatorAccess@NxFoundation@@@@AAEPAUClothGlobalInternalConstraint@@PBU2@0PAU2@@Z 1011f450 f i Cloth.obj
 0001:0011e490       ?allocate@?$NxArray@UClothGlobalInternalConstraint@@VUserAllocatorAccess@NxFoundation@@@@AAEPAUClothGlobalInternalConstraint@@I@Z 1011f490 f i Cloth.obj
 0001:0011e4c0       ?capacity@?$NxArray@UAdjTriangle@Cloth@@VUserAllocatorAccess@NxFoundation@@@@QBEIXZ 1011f4c0 f i Cloth.obj
 0001:0011e4f0       ?copy@?$NxArray@UAdjTriangle@Cloth@@VUserAllocatorAccess@NxFoundation@@@@AAEPAUAdjTriangle@Cloth@@PBU23@0PAU23@@Z 1011f4f0 f i Cloth.obj
 0001:0011e550       ?allocate@?$NxArray@UAdjTriangle@Cloth@@VUserAllocatorAccess@NxFoundation@@@@AAEPAUAdjTriangle@Cloth@@I@Z 1011f550 f i Cloth.obj
 0001:0011e580       ?capacity@?$NxArray@UclothParticleForceUpdate@Cloth@@VUserAllocatorAccess@NxFoundation@@@@QBEIXZ 1011f580 f i Cloth.obj
 0001:0011e5a0       ?copy@?$NxArray@UclothParticleForceUpdate@Cloth@@VUserAllocatorAccess@NxFoundation@@@@AAEPAUclothParticleForceUpdate@Cloth@@PBU23@0PAU23@@Z 1011f5a0 f i Cloth.obj
 0001:0011e5e0       ?allocate@?$NxArray@UclothParticleForceUpdate@Cloth@@VUserAllocatorAccess@NxFoundation@@@@AAEPAUclothParticleForceUpdate@Cloth@@I@Z 1011f5e0 f i Cloth.obj
 0001:0011e610       ?allocate@?$NxArray@USelfCollisionParticle@@VUserAllocatorAccess@NxFoundation@@@@AAEPAUSelfCollisionParticle@@I@Z 1011f610 f i Cloth.obj
 0001:0011e640       ?malloc@?$UserAllocAccessAlign@$0IA@@NxFoundation@@QAEPAXIW4NxMemoryType@@@Z 1011f640 f i Cloth.obj
 0001:0011e690       ??0NxMeshData@@QAE@XZ      1011f690 f i Cloth.obj
 0001:0011e6e0       ??0NvMirrorManagerClient@@QAE@XZ 1011f6e0 f i Cloth.obj
 0001:0011e6f0       ?swapSDKBfr@Cloth@@QAEXXZ  1011f6f0 f   Cloth.obj
 0001:0011ec50       ?addForceAtVertex@Cloth@@UAEXABVNxVec3@@IW4NxForceMode@@@Z 1011fc50 f   Cloth.obj
 0001:0011edf0       ?getCollidingShapeIndex@Cloth@@QAEHPBVNvShape@@@Z 1011fdf0 f   Cloth.obj
 0001:0011ee90       ?attachToShape@Cloth@@UAEXPBVNvShape@@I@Z 1011fe90 f   Cloth.obj
 0001:0011f0b0       ?detachFromShape@Cloth@@UAEXPBVNvShape@@@Z 101200b0 f   Cloth.obj
 0001:0011f150       ?clearAttachments@Cloth@@QAEXXZ 10120150 f   Cloth.obj
 0001:0011f1d0       ?attachVertexToGlobalPosition@Cloth@@UAEXIABVNxVec3@@@Z 101201d0 f   Cloth.obj
 0001:0011f270       ?attachVertexToShape@Cloth@@UAEXIPBVNvShape@@ABVNxVec3@@I@Z 10120270 f   Cloth.obj
 0001:0011f370       ?freeVertex@Cloth@@UAEXI@Z 10120370 f   Cloth.obj
 0001:0011f3d0       ?setPositions@Cloth@@UAEXPAXI@Z 101203d0 f   Cloth.obj
 0001:0011f460       ?getPositions@Cloth@@UAEXPAXI@Z 10120460 f   Cloth.obj
 0001:0011f4f0       ?setVelocities@Cloth@@UAEXPAXI@Z 101204f0 f   Cloth.obj
 0001:0011f580       ?getVelocities@Cloth@@UAEXPAXI@Z 10120580 f   Cloth.obj
 0001:0011f610       ?getNumberOfParticles@Cloth@@UAEIXZ 10120610 f   Cloth.obj
 0001:0011f630       ?getTriangles@Cloth@@UAEPAIXZ 10120630 f   Cloth.obj
 0001:0011f640       ?getStateByteSize@Cloth@@UAEIXZ 10120640 f   Cloth.obj
 0001:0011f660       ?getShapePointers@Cloth@@UAEXPAPAVNxShape@@@Z 10120660 f   Cloth.obj
 0001:0011f6c0       ?saveStateToStream@Cloth@@UAEXAAVNxStream@@@Z 101206c0 f   Cloth.obj
 0001:0011f900       ?putToSleep@Cloth@@UAEXXZ  10120900 f   Cloth.obj
 0001:0011f970       ?projectInternalConstraints@Cloth@@AAEXXZ 10120970 f   Cloth.obj
 0001:00121530       ?projectVelocities@Cloth@@AAEXXZ 10122530 f   Cloth.obj
 0001:00121680       ?dampCOM@Cloth@@AAEXXZ     10122680 f   Cloth.obj
 0001:00121ed0       ?resetAttachmentImpulses@Cloth@@AAEXXZ 10122ed0 f   Cloth.obj
 0001:00121f50       ?projectAttachmentConstraints@Cloth@@AAEXM@Z 10122f50 f   Cloth.obj
 0001:00122300       ?projectContacts@Cloth@@AAEXMI@Z 10123300 f   Cloth.obj
 0001:00122490       ?updateConstraints@Cloth@@AAEXXZ 10123490 f   Cloth.obj
 0001:00122930       ?collisionDetection@Cloth@@AAEXABVNxVec3@@@Z 10123930 f   Cloth.obj
 0001:00122db0       ?updateCollision@Cloth@@QAEXXZ 10123db0 f   Cloth.obj
 0001:00123040       ?solverStep@Cloth@@QAEXM@Z 10124040 f   Cloth.obj
 0001:00123090       ?updateNormals@Cloth@@AAEXXZ 10124090 f   Cloth.obj
 0001:00123350       ?updateBounds@Cloth@@AAEXM@Z 10124350 f   Cloth.obj
 0001:00123700       ?getMovingPoint@Cloth@@QAEXIAAUClothMovingPoint@@@Z 10124700 f   Cloth.obj
 0001:00123760       ?getNewPosition@Cloth@@QAEXIAAVNxVec3@@@Z 10124760 f   Cloth.obj
 0001:001237a0       ?setNewPosition@Cloth@@QAEXIABVNxVec3@@@Z 101247a0 f   Cloth.obj
 0001:001237f0       ?getInverseMass@Cloth@@QAEMI@Z 101247f0 f   Cloth.obj
 0001:00123810       ?getAreaAndVolume@Cloth@@AAEXAAM0@Z 10124810 f   Cloth.obj
 0001:001239a0       ?getNewAreaAndVolume@Cloth@@AAEXAAM0@Z 101249a0 f   Cloth.obj
 0001:00123b40       ?raycast@Cloth@@UAE_NABVNxRay@@AAVNxVec3@@AAI@Z 10124b40 f   Cloth.obj
 0001:00123e00       ?quickSortVertexRefs@Cloth@@AAEXHH@Z 10124e00 f   Cloth.obj
 0001:00123f20       ?getPointVelocity@Cloth@@AAE?AVNxVec3@@PBVBody@@ABV2@@Z 10124f20 f   Cloth.obj
 0001:001242d0       ?updateMetalSimulation@Cloth@@AAEXM@Z 101252d0 f   Cloth.obj
 0001:00124a80       ?clear@?$NxArray@IVUserAllocatorAccess@NxFoundation@@@@QAEXXZ 10125a80 f i Cloth.obj
 0001:00124a90       ?isEmpty@?$NxArray@MVUserAllocatorAccess@NxFoundation@@@@QBE_NXZ 10125a90 f i Cloth.obj
 0001:00124ab0       ??1?$NxArray@UClothGlobalInternalConstraint@@VUserAllocatorAccess@NxFoundation@@@@QAE@XZ 10125ab0 f i Cloth.obj
 0001:00124af0       ?clear@?$NxArray@UClothGlobalInternalConstraint@@VUserAllocatorAccess@NxFoundation@@@@QAEXXZ 10125af0 f i Cloth.obj
 0001:00124b00       ?clear@?$NxArray@PAVNxShape@@VUserAllocatorAccess@NxFoundation@@@@QAEXXZ 10125b00 f i Cloth.obj
 0001:00124b10       ?clear@?$NxArray@UClothParticle@@V?$UserAllocAccessAlign@$0IA@@NxFoundation@@@@QAEXXZ 10125b10 f i Cloth.obj
 0001:00124b20       ??1?$NxArray@UClothSelfContact@@VUserAllocatorAccess@NxFoundation@@@@QAE@XZ 10125b20 f i Cloth.obj
 0001:00124b60       ?clear@?$NxArray@UClothSelfContact@@VUserAllocatorAccess@NxFoundation@@@@QAEXXZ 10125b60 f i Cloth.obj
 0001:00124b70       ??1?$NxArray@UClothVertexRef@@VUserAllocatorAccess@NxFoundation@@@@QAE@XZ 10125b70 f i Cloth.obj
 0001:00124bb0       ??1?$NxArray@UAdjTriangle@Cloth@@VUserAllocatorAccess@NxFoundation@@@@QAE@XZ 10125bb0 f i Cloth.obj
 0001:00124bf0       ?clear@?$NxArray@UAdjTriangle@Cloth@@VUserAllocatorAccess@NxFoundation@@@@QAEXXZ 10125bf0 f i Cloth.obj
 0001:00124c00       ??1?$NxArray@UclothParticleForceUpdate@Cloth@@VUserAllocatorAccess@NxFoundation@@@@QAE@XZ 10125c00 f i Cloth.obj
 0001:00124c40       ?clear@?$NxArray@UclothParticleForceUpdate@Cloth@@VUserAllocatorAccess@NxFoundation@@@@QAEXXZ 10125c40 f i Cloth.obj
 0001:00124c50       ??1?$NxArray@USelfCollisionParticle@@VUserAllocatorAccess@NxFoundation@@@@QAE@XZ 10125c50 f i Cloth.obj
 0001:00124c90       ?insert@?$NxArray@IVUserAllocatorAccess@NxFoundation@@@@QAEXPAIIABI@Z 10125c90 f i Cloth.obj
 0001:00124df0       ?erase@?$NxArray@IVUserAllocatorAccess@NxFoundation@@@@QAEXPAI0@Z 10125df0 f i Cloth.obj
 0001:00124e50       ?erase@?$NxArray@PAVNxShape@@VUserAllocatorAccess@NxFoundation@@@@QAEXPAPAVNxShape@@0@Z 10125e50 f i Cloth.obj
 0001:00124eb0       ?erase@?$NxArray@UClothParticle@@V?$UserAllocAccessAlign@$0IA@@NxFoundation@@@@QAEXPAUClothParticle@@0@Z 10125eb0 f i Cloth.obj
 0001:00124f20       ?reallocate@?$NxArray@UClothParticle@@V?$UserAllocAccessAlign@$0IA@@NxFoundation@@@@AAEPAUClothParticle@@IPAU2@@Z 10125f20 f i Cloth.obj
 0001:00124fe0       ?deallocate@?$NxArray@UClothParticle@@V?$UserAllocAccessAlign@$0IA@@NxFoundation@@@@AAEXPAUClothParticle@@@Z 10125fe0 f i Cloth.obj
 0001:00125010       ?reserve@?$NxArray@UClothGlobalInternalConstraint@@VUserAllocatorAccess@NxFoundation@@@@QAEXI@Z 10126010 f i Cloth.obj
 0001:00125110       ?reserve@?$NxArray@UAdjTriangle@Cloth@@VUserAllocatorAccess@NxFoundation@@@@QAEXI@Z 10126110 f i Cloth.obj
 0001:00125220       ?reserve@?$NxArray@UclothParticleForceUpdate@Cloth@@VUserAllocatorAccess@NxFoundation@@@@QAEXI@Z 10126220 f i Cloth.obj
 0001:001252d0       ?fill@?$NxArray@USelfCollisionParticle@@VUserAllocatorAccess@NxFoundation@@@@AAEXPAUSelfCollisionParticle@@IABU2@@Z 101262d0 f i Cloth.obj
 0001:00125360       ?copy@?$NxArray@USelfCollisionParticle@@VUserAllocatorAccess@NxFoundation@@@@AAEPAUSelfCollisionParticle@@PBU2@0PAU2@@Z 10126360 f i Cloth.obj
 0001:00125400       ?allocate@?$NxArray@UClothParticle@@V?$UserAllocAccessAlign@$0IA@@NxFoundation@@@@AAEPAUClothParticle@@I@Z 10126400 f i Cloth.obj
 0001:00125450       ??0?$NxArraySDK@UClothGlobalInternalConstraint@@@NxFoundation@@QAE@XZ 10126450 f i Cloth.obj
 0001:00125460       ??1?$NxArraySDK@UClothGlobalInternalConstraint@@@NxFoundation@@QAE@XZ 10126460 f i Cloth.obj
 0001:001254a0       ??0NvCloth@@QAE@XZ         101264a0 f i Cloth.obj
 0001:001254b0       ??0?$NxArraySDK@UClothSelfContact@@@NxFoundation@@QAE@XZ 101264b0 f i Cloth.obj
 0001:001254c0       ??1?$NxArraySDK@UClothSelfContact@@@NxFoundation@@QAE@XZ 101264c0 f i Cloth.obj
 0001:00125500       ??0?$NxArraySDK@UClothVertexRef@@@NxFoundation@@QAE@XZ 10126500 f i Cloth.obj
 0001:00125510       ??1?$NxArraySDK@UClothVertexRef@@@NxFoundation@@QAE@XZ 10126510 f i Cloth.obj
 0001:00125550       ??0?$NxArraySDK@UAdjTriangle@Cloth@@@NxFoundation@@QAE@XZ 10126550 f i Cloth.obj
 0001:00125560       ??1?$NxArraySDK@UAdjTriangle@Cloth@@@NxFoundation@@QAE@XZ 10126560 f i Cloth.obj
 0001:001255a0       ??0?$NxArraySDK@UclothParticleForceUpdate@Cloth@@@NxFoundation@@QAE@XZ 101265a0 f i Cloth.obj
 0001:001255b0       ??1?$NxArraySDK@UclothParticleForceUpdate@Cloth@@@NxFoundation@@QAE@XZ 101265b0 f i Cloth.obj
 0001:001255f0       ??0?$NxArraySDK@USelfCollisionParticle@@@NxFoundation@@QAE@XZ 101265f0 f i Cloth.obj
 0001:00125600       ??1?$NxArraySDK@USelfCollisionParticle@@@NxFoundation@@QAE@XZ 10126600 f i Cloth.obj
 0001:00125640       ?clear@Cloth@@QAEXXZ       10126640 f   Cloth.obj
 0001:00125720       ?visualize@Cloth@@UAEXAAVDebugRenderable@NxFoundation@@@Z 10126720 f   Cloth.obj
 0001:00126120       ?initPhysics@Cloth@@AAEXXZ 10127120 f   Cloth.obj
 0001:001264d0       ?attachToCore@Cloth@@UAE_NPAVNvShape@@MM@Z 101274d0 f   Cloth.obj
 0001:00126580       ?loadStateFromStream@Cloth@@UAEXAAVNxStream@@@Z 10127580 f   Cloth.obj
 0001:00126760       ?projectPressure@Cloth@@AAEXM@Z 10127760 f   Cloth.obj
 0001:00126c80       ?contactFriction@Cloth@@AAEXXZ 10127c80 f   Cloth.obj
 0001:00126f30       ?generateContacts@Cloth@@QAEXAAVClothHash@@@Z 10127f30 f   Cloth.obj
 0001:00126fa0       ?addImpulseAtPos@Cloth@@AAEXPAVBody@@ABVNxVec3@@1@Z 10127fa0 f   Cloth.obj
 0001:00127280       ?resize@?$NxArray@IVUserAllocatorAccess@NxFoundation@@@@QAEXIABI@Z 10128280 f i Cloth.obj
 0001:00127480       ?push_back@?$NxArray@IVUserAllocatorAccess@NxFoundation@@@@QAEXABI@Z 10128480 f i Cloth.obj
 0001:00127550       ??1?$NxArray@UClothParticle@@V?$UserAllocAccessAlign@$0IA@@NxFoundation@@@@QAE@XZ 10128550 f i Cloth.obj
 0001:00127590       ?pushBack@?$NxArray@UClothGlobalInternalConstraint@@VUserAllocatorAccess@NxFoundation@@@@QAEXABUClothGlobalInternalConstraint@@@Z 10128590 f i Cloth.obj
 0001:001276d0       ?insert@?$NxArray@PAVNxShape@@VUserAllocatorAccess@NxFoundation@@@@QAEXPAPAVNxShape@@IABQAV2@@Z 101286d0 f i Cloth.obj
 0001:00127830       ?pushBack@?$NxArray@UAdjTriangle@Cloth@@VUserAllocatorAccess@NxFoundation@@@@QAEXABUAdjTriangle@Cloth@@@Z 10128830 f i Cloth.obj
 0001:001279a0       ?pushBack@?$NxArray@UclothParticleForceUpdate@Cloth@@VUserAllocatorAccess@NxFoundation@@@@QAEXABUclothParticleForceUpdate@Cloth@@@Z 101289a0 f i Cloth.obj
 0001:00127a80       ?erase@?$NxArray@USelfCollisionParticle@@VUserAllocatorAccess@NxFoundation@@@@QAEXPAUSelfCollisionParticle@@0@Z 10128a80 f i Cloth.obj
 0001:00127b50       ?reserve@?$NxArray@UClothParticle@@V?$UserAllocAccessAlign@$0IA@@NxFoundation@@@@QAEXI@Z 10128b50 f i Cloth.obj
 0001:00127c60       ?reserve@?$NxArray@USelfCollisionParticle@@VUserAllocatorAccess@NxFoundation@@@@QAEXI@Z 10128c60 f i Cloth.obj
 0001:00127da0       ??0?$NxArraySDKAlign@UClothParticle@@$0IA@@NxFoundation@@QAE@XZ 10128da0 f i Cloth.obj
 0001:00127db0       ??1?$NxArraySDKAlign@UClothParticle@@$0IA@@NxFoundation@@QAE@XZ 10128db0 f i Cloth.obj
 0001:00127df0       ??1Cloth@@MAE@XZ           10128df0 f   Cloth.obj
 0001:00128350       ?setStretchingStiffness@Cloth@@UAEXM@Z 10129350 f i Cloth.obj
 0001:00128360       ?getStretchingStiffness@Cloth@@UBEMXZ 10129360 f i Cloth.obj
 0001:00128370       ?setBendingStiffness@Cloth@@UAEXM@Z 10129370 f i Cloth.obj
 0001:00128380       ?getBendingStiffness@Cloth@@UBEMXZ 10129380 f i Cloth.obj
 0001:00128390       ?setPressure@Cloth@@UAEXM@Z 10129390 f i Cloth.obj
 0001:001283a0       ?getPressure@Cloth@@UBEMXZ 101293a0 f i Cloth.obj
 0001:001283b0       ?setTearFactor@Cloth@@UAEXM@Z 101293b0 f i Cloth.obj
 0001:001283c0       ?getTearFactor@Cloth@@UBEMXZ 101293c0 f i Cloth.obj
 0001:001283d0       ?setAttachmentTearFactor@Cloth@@UAEXM@Z 101293d0 f i Cloth.obj
 0001:001283e0       ?getAttachmentTearFactor@Cloth@@UBEMXZ 101293e0 f i Cloth.obj
 0001:001283f0       ?setFriction@Cloth@@UAEXM@Z 101293f0 f i Cloth.obj
 0001:00128400       ?getFriction@Cloth@@UBEMXZ 10129400 f i Cloth.obj
 0001:00128410       ?setSolverIterations@Cloth@@UAEXI@Z 10129410 f i Cloth.obj
 0001:00128420       ?getSolverIterations@Cloth@@UBEIXZ 10129420 f i Cloth.obj
 0001:00128430       ?setThickness@Cloth@@UAEXM@Z 10129430 f i Cloth.obj
 0001:00128450       ?getThickness@Cloth@@UBEMXZ 10129450 f i Cloth.obj
 0001:00128460       ?getDensity@Cloth@@UBEMXZ  10129460 f i Cloth.obj
 0001:00128470       ?setFlags@Cloth@@UAEXI@Z   10129470 f i Cloth.obj
 0001:00128480       ?getFlags@Cloth@@UBEIXZ    10129480 f i Cloth.obj
 0001:00128490       ?setDampingCoefficient@Cloth@@UAEXM@Z 10129490 f i Cloth.obj
 0001:001284a0       ?getDampingCoefficient@Cloth@@UBEMXZ 101294a0 f i Cloth.obj
 0001:001284b0       ?setCollisionResponseCoefficient@Cloth@@UAEXM@Z 101294b0 f i Cloth.obj
 0001:001284c0       ?getCollisionResponseCoefficient@Cloth@@UBEMXZ 101294c0 f i Cloth.obj
 0001:001284d0       ?setAttachmentResponseCoefficient@Cloth@@UAEXM@Z 101294d0 f i Cloth.obj
 0001:001284e0       ?getAttachmentResponseCoefficient@Cloth@@UBEMXZ 101294e0 f i Cloth.obj
 0001:001284f0       ?setExternalAcceleration@Cloth@@UAEXVNxVec3@@@Z 101294f0 f i Cloth.obj
 0001:00128510       ?getExternalAcceleration@Cloth@@UBE?AVNxVec3@@XZ 10129510 f i Cloth.obj
 0001:00128530       ?setNpCloth@Cloth@@UAEXPAVNpCloth@@@Z 10129530 f i Cloth.obj
 0001:00128540       ?getNpCloth@Cloth@@UAEPAVNpCloth@@XZ 10129540 f i Cloth.obj
 0001:00128550       ?setGroup@Cloth@@UAEXG@Z   10129550 f i Cloth.obj
 0001:00128570       ?getGroup@Cloth@@UBEGXZ    10129570 f i Cloth.obj
 0001:00128580       ?setGroupsMask@Cloth@@UAEXABVNxGroupsMask@@@Z 10129580 f i Cloth.obj
 0001:001285b0       ?getGroupsMask@Cloth@@UBE?AVNxGroupsMask@@XZ 101295b0 f i Cloth.obj
 0001:001285e0       ?addStaticShapeToRegion@Cloth@@UAEXAAVNvShape@@ABVNxBounds3@@@Z 101295e0 f i Cloth.obj
 0001:001285f0       ?removeStaticShapeFromRegion@Cloth@@UAEXAAVNvShape@@ABVNxBounds3@@@Z 101295f0 f i Cloth.obj
 0001:00128600       ?addDynamicShape@Cloth@@UAEXAAVNvShape@@@Z 10129600 f i Cloth.obj
 0001:00128610       ?isCompatibleWithStaticMesh@Cloth@@UBE_NAAVNvRawTriangleMesh@@@Z 10129610 f i Cloth.obj
 0001:00128620       ?getImpulseTransferSmoothingAlpha@Cloth@@UBEMXZ 10129620 f i Cloth.obj
 0001:00128630       ?getClientType@Cloth@@UBEIXZ 10129630 f i Cloth.obj
 0001:00128640       ?accessParentScene@Cloth@@UAEXXZ 10129640 f i Cloth.obj
 0001:00128650       ?overlapAABBTriangles@Cloth@@UBE_NABVNxBounds3@@AAIAAPBI@Z 10129650 f   Cloth.obj
 0001:00128b10       ?init@Cloth@@AAEXXZ        10129b10 f   Cloth.obj
 0001:00128ca0       ?rigidBodyResponseAndSleeping@Cloth@@AAEXM@Z 10129ca0 f   Cloth.obj
 0001:00129020       ?localUntangling@Cloth@@AAEXXZ 1012a020 f   Cloth.obj
 0001:00129ce0       ?push_back@?$NxArray@UClothGlobalInternalConstraint@@VUserAllocatorAccess@NxFoundation@@@@QAEXABUClothGlobalInternalConstraint@@@Z 1012ace0 f i Cloth.obj
 0001:00129e20       ?resize@?$NxArray@PAVNxShape@@VUserAllocatorAccess@NxFoundation@@@@QAEXIABQAVNxShape@@@Z 1012ae20 f i Cloth.obj
 0001:0012a020       ?push_back@?$NxArray@UAdjTriangle@Cloth@@VUserAllocatorAccess@NxFoundation@@@@QAEXABUAdjTriangle@Cloth@@@Z 1012b020 f i Cloth.obj
 0001:0012a190       ?push_back@?$NxArray@UclothParticleForceUpdate@Cloth@@VUserAllocatorAccess@NxFoundation@@@@QAEXABUclothParticleForceUpdate@Cloth@@@Z 1012b190 f i Cloth.obj
 0001:0012a270       ?pushBack@?$NxArray@UClothParticle@@V?$UserAllocAccessAlign@$0IA@@NxFoundation@@@@QAEXABUClothParticle@@@Z 1012b270 f i Cloth.obj
 0001:0012a3b0       ?insert@?$NxArray@UClothParticle@@V?$UserAllocAccessAlign@$0IA@@NxFoundation@@@@QAEXPAUClothParticle@@IABU2@@Z 1012b3b0 f i Cloth.obj
 0001:0012a5d0       ?insert@?$NxArray@USelfCollisionParticle@@VUserAllocatorAccess@NxFoundation@@@@QAEXPAUSelfCollisionParticle@@IABU2@@Z 1012b5d0 f i Cloth.obj
 0001:0012a8b0       ??0Cloth@@IAE@PAVClothManager@@I@Z 1012b8b0 f   Cloth.obj
 0001:0012aec0       ??_ECloth@@MAEPAXI@Z       1012bec0 f i Cloth.obj
 0001:0012aec0       ??_GCloth@@MAEPAXI@Z       1012bec0 f i Cloth.obj
 0001:0012aef0       ?addForceAtPos@Cloth@@UAEXABVNxVec3@@0MW4NxForceMode@@@Z 1012bef0 f   Cloth.obj
 0001:0012b500       ?attachToCollidingShapes@Cloth@@UAEXI@Z 1012c500 f   Cloth.obj
 0001:0012bcf0       ?queryShapePointers@Cloth@@UAEIXZ 1012ccf0 f   Cloth.obj
 0001:0012bf20       ?setShapePointers@Cloth@@UAEXPAPAVNxShape@@I@Z 1012cf20 f   Cloth.obj
 0001:0012c1a0       ?resize@?$NxArray@UClothParticle@@V?$UserAllocAccessAlign@$0IA@@NxFoundation@@@@QAEXIABUClothParticle@@@Z 1012d1a0 f i Cloth.obj
 0001:0012c500       ?push_back@?$NxArray@UClothParticle@@V?$UserAllocAccessAlign@$0IA@@NxFoundation@@@@QAEXABUClothParticle@@@Z 1012d500 f i Cloth.obj
 0001:0012c640       ?resize@?$NxArray@USelfCollisionParticle@@VUserAllocatorAccess@NxFoundation@@@@QAEXIABUSelfCollisionParticle@@@Z 1012d640 f i Cloth.obj
 0001:0012ca00       ?loadFromDesc@Cloth@@UAE_NABVNxClothDesc@@@Z 1012da00 f   Cloth.obj
 0001:0012dbd0       ?splitVertex@Cloth@@AAE_NHPBVNxVec3@@@Z 1012ebd0 f   Cloth.obj
 0001:0012eca0       ?tearMesh@Cloth@@AAE_NXZ   1012fca0 f   Cloth.obj
 0001:0012eea0       ?tearVertex@Cloth@@UAE_NIABVNxVec3@@@Z 1012fea0 f   Cloth.obj
 0001:0012eec0       ?intraSelfCollision@Cloth@@AAEXM@Z 1012fec0 f   Cloth.obj
 0001:00130030       ?computeNewState@Cloth@@QAEXM@Z 10131030 f   Cloth.obj
 0001:001303e0       ?integrateTimeStep@Cloth@@QAEXM@Z 101313e0 f   Cloth.obj
 0001:001305c0       ??0NxPlane@@QAE@ABV0@@Z    101315c0 f i ClothCollision.obj
 0001:001305f0       ?project@NxPlane@@QBE?AVNxVec3@@ABV2@@Z 101315f0 f i ClothCollision.obj
 0001:00130660       ?lerp@ClothCollisionInfo@@QBE?AVNxVec3@@M@Z 10131660 f i ClothCollision.obj
 0001:001306e0       ??0ClothMovingPoint@@QAE@XZ 101316e0 f i ClothCollision.obj
 0001:001306f0       ??0ClothMovingPoint@@QAE@ABVNxVec3@@0@Z 101316f0 f i ClothCollision.obj
 0001:00130730       ?lerp@ClothMovingPoint@@QBE?AVNxVec3@@M@Z 10131730 f i ClothCollision.obj
 0001:001307b0       ??0ClothMovingTriangle@@QAE@XZ 101317b0 f i ClothCollision.obj
 0001:001307c0       ?isPlane@Shape@@QBEPBVPlaneShape@@XZ 101317c0 f i ClothCollision.obj
 0001:001307e0       ?isSphere@Shape@@QBEPBVSphereShape@@XZ 101317e0 f i ClothCollision.obj
 0001:00130800       ?isBox@Shape@@QBEPBVBoxShape@@XZ 10131800 f i ClothCollision.obj
 0001:00130820       ?isCapsule@Shape@@QBEPBVCapsuleShape@@XZ 10131820 f i ClothCollision.obj
 0001:00130840       ?isConvex@Shape@@QBEPBVConvexShape@@XZ 10131840 f i ClothCollision.obj
 0001:00130860       ?isHeightField@Shape@@QBEPBVHeightFieldShape@@XZ 10131860 f i ClothCollision.obj
 0001:00130880       ?addDiscreteCollision@ClothCollisionInfo@@QAEXABVNxVec3@@0PBVShape@@@Z 10131880 f   ClothCollision.obj
 0001:00130a90       ?addContinuousCollision@ClothCollisionInfo@@QAE_NMABVNxVec3@@PBVShape@@@Z 10131a90 f   ClothCollision.obj
 0001:00130c30       ?addProximity@ClothCollisionInfo@@QAE_NMABVNxVec3@@0PBVShape@@@Z 10131c30 f   ClothCollision.obj
 0001:00130d60       ?addFluidContinuousCollision@ClothCollisionInfo@@QAE_NMABVNxVec3@@0@Z 10131d60 f   ClothCollision.obj
 0001:00130e70       ??0ClothCollision@@QAE@XZ  10131e70 f   ClothCollision.obj
 0001:00130e80       ??1ClothCollision@@QAE@XZ  10131e80 f   ClothCollision.obj
 0001:00130e90       ?discretePointPlane@ClothCollision@@CA_NPBVPlaneShape@@ABVNxVec3@@MAAV3@2@Z 10131e90 f   ClothCollision.obj
 0001:00130fc0       ?discretePointBox@ClothCollision@@CA_NPBVBoxShape@@ABVNxVec3@@MAAV3@2@Z 10131fc0 f   ClothCollision.obj
 0001:00131330       ?discretePointConvex@ClothCollision@@CA_NPBVConvexShape@@ABVNxVec3@@MAAV3@2@Z 10132330 f   ClothCollision.obj
 0001:001314d0       ??0CollisionZone@?1??discretePointTriangleMesh@ClothCollision@@CA_NPBVTriangleMeshShape@@ABVNxVec3@@MAAV4@2@Z@QAE@XZ 101324d0 f i ClothCollision.obj
 0001:001314e0       ?combinedSpherePlane@ClothCollision@@CA_NPBVPlaneShape@@AAUClothCollisionInfo@@@Z 101324e0 f   ClothCollision.obj
 0001:00131830       ?combinedSphereConvex@ClothCollision@@CA_NPBVConvexShape@@AAUClothCollisionInfo@@@Z 10132830 f   ClothCollision.obj
 0001:00131cb0       ??0ClothCollisionInfo@@QAE@ABU0@@Z 10132cb0 f i ClothCollision.obj
 0001:00131d40       ?smallerQuadraticSolution@ClothCollision@@CA_NMMMMMAAM@Z 10132d40 f   ClothCollision.obj
 0001:00131ea0       ?collisionMovingPointMovingTriangle@ClothCollision@@SA_NABUClothMovingPoint@@ABUClothMovingTriangle@@AAM@Z 10132ea0 f   ClothCollision.obj
 0001:00132380       ?collisionMovingSphereMovingPoint@ClothCollision@@CA_NABUClothMovingPoint@@M0AAM@Z 10133380 f   ClothCollision.obj
 0001:00132490       ?closestPointInTriangle@ClothCollision@@SA_NABVNxVec3@@000@Z 10133490 f   ClothCollision.obj
 0001:00132640       ?closestPointOnTriangle@ClothCollision@@SAXABVNxVec3@@000AAV2@@Z 10133640 f   ClothCollision.obj
 0001:00132b50       ?barycentricTriangleCoordinates@ClothCollision@@SAXABVNxVec3@@000AAV2@@Z 10133b50 f   ClothCollision.obj
 0001:00132eb0       ?raycastTriangle@ClothCollision@@SA_NABVNxRay@@ABVNxVec3@@11AAV3@AAM@Z 10133eb0 f   ClothCollision.obj
 0001:00133200       ?raycastBounds@ClothCollision@@SA_NABVNxRay@@ABVNxBounds3@@AAVNxVec3@@AAM@Z 10134200 f   ClothCollision.obj
 0001:00133490       ?collisionMovingSphereStaticEdge@ClothCollision@@CA_NABUClothMovingPoint@@MABVNxVec3@@1AAMAAV3@@Z 10134490 f   ClothCollision.obj
 0001:00133780       ?collisionMovingSphereStaticPoint@ClothCollision@@CA_NABUClothMovingPoint@@MABVNxVec3@@AAM@Z 10134780 f   ClothCollision.obj
 0001:00133830       ?raySphere@ClothCollision@@SA_NABVNxRay@@VNxVec3@@MAAM@Z 10134830 f   ClothCollision.obj
 0001:001338f0       ??0?$NxArray@VNxVec3@@VUserAllocatorAccess@NxFoundation@@@@QAE@XZ 101348f0 f i ClothCollision.obj
 0001:00133900       ?begin@?$NxArray@VNxVec3@@VUserAllocatorAccess@NxFoundation@@@@QAEPAVNxVec3@@XZ 10134900 f i ClothCollision.obj
 0001:00133910       ?end@?$NxArray@VNxVec3@@VUserAllocatorAccess@NxFoundation@@@@QAEPAVNxVec3@@XZ 10134910 f i ClothCollision.obj
 0001:00133920       ?deallocate@?$NxArray@VNxVec3@@VUserAllocatorAccess@NxFoundation@@@@AAEXPAVNxVec3@@@Z 10134920 f i ClothCollision.obj
 0001:00133940       ?destroy@?$NxArray@VNxVec3@@VUserAllocatorAccess@NxFoundation@@@@AAEXPAVNxVec3@@0@Z 10134940 f i ClothCollision.obj
 0001:00133950       ?capacity@?$NxArray@VNxVec3@@VUserAllocatorAccess@NxFoundation@@@@QBEIXZ 10134950 f i ClothCollision.obj
 0001:00133980       ?copy@?$NxArray@VNxVec3@@VUserAllocatorAccess@NxFoundation@@@@AAEPAVNxVec3@@PBV2@0PAV2@@Z 10134980 f i ClothCollision.obj
 0001:001339c0       ?allocate@?$NxArray@VNxVec3@@VUserAllocatorAccess@NxFoundation@@@@AAEPAVNxVec3@@I@Z 101349c0 f i ClothCollision.obj
 0001:001339f0       ?getBounds@ClothMovingTriangle@@QBEXAAVNxBounds3@@@Z 101349f0 f i ClothCollision.obj
 0001:00133f00       ?discretePointSphere@ClothCollision@@CA_NPBVSphereShape@@ABVNxVec3@@MAAV3@2@Z 10134f00 f   ClothCollision.obj
 0001:00134010       ?discretePointCapsule@ClothCollision@@CA_NPBVCapsuleShape@@ABVNxVec3@@MAAV3@2@Z 10135010 f   ClothCollision.obj
 0001:001341b0       ?combinedSphereBox@ClothCollision@@CA_NPBVBoxShape@@AAUClothCollisionInfo@@@Z 101351b0 f   ClothCollision.obj
 0001:00134a90       ?combinedSphereSphere@ClothCollision@@CA_NPBVSphereShape@@AAUClothCollisionInfo@@@Z 10135a90 f   ClothCollision.obj
 0001:00134e60       ?combinedSphereCapsule@ClothCollision@@CA_NPBVCapsuleShape@@AAUClothCollisionInfo@@@Z 10135e60 f   ClothCollision.obj
 0001:00135540       ?collisionMovingSphereMovingTriangle@ClothCollision@@SA_NABUClothMovingPoint@@MABUClothMovingTriangle@@AAM@Z 10136540 f   ClothCollision.obj
 0001:00135ba0       ?collisionMovingSphereMovingEdge@ClothCollision@@CA_NABUClothMovingPoint@@M00AAM@Z 10136ba0 f   ClothCollision.obj
 0001:00136100       ??1?$NxArray@VNxVec3@@VUserAllocatorAccess@NxFoundation@@@@QAE@XZ 10137100 f i ClothCollision.obj
 0001:00136140       ?clear@?$NxArray@VNxVec3@@VUserAllocatorAccess@NxFoundation@@@@QAEXXZ 10137140 f i ClothCollision.obj
 0001:00136150       ?reserve@?$NxArray@VNxVec3@@VUserAllocatorAccess@NxFoundation@@@@QAEXI@Z 10137150 f i ClothCollision.obj
 0001:00136230       ??0?$NxArraySDK@VNxVec3@@@NxFoundation@@QAE@XZ 10137230 f i ClothCollision.obj
 0001:00136240       ??1?$NxArraySDK@VNxVec3@@@NxFoundation@@QAE@XZ 10137240 f i ClothCollision.obj
 0001:00136280       ?discretePointTriangleMesh@ClothCollision@@CA_NPBVTriangleMeshShape@@ABVNxVec3@@MAAV3@2@Z 10137280 f   ClothCollision.obj
 0001:00136cb0       ?discreteContactPointShape@ClothCollision@@SA_NPBVShape@@ABVNxVec3@@MAAV3@2@Z 10137cb0 f   ClothCollision.obj
 0001:001371f0       ?combinedSphereTriangleMesh@ClothCollision@@CA_NPBVTriangleMeshShape@@AAUClothCollisionInfo@@@Z 101381f0 f   ClothCollision.obj
 0001:00137ee0       ?combinedSphereHeightField@ClothCollision@@CA_NPBVHeightFieldShape@@AAUClothCollisionInfo@@@Z 10138ee0 f   ClothCollision.obj
 0001:00138b40       ?combinedContactSphereShape@ClothCollision@@SA_NPBVShape@@AAUClothCollisionInfo@@@Z 10139b40 f   ClothCollision.obj
 0001:001394f0       ?pushBack@?$NxArray@VNxVec3@@VUserAllocatorAccess@NxFoundation@@@@QAEXABVNxVec3@@@Z 1013a4f0 f i ClothCollision.obj
 0001:00139620       ?push_back@?$NxArray@VNxVec3@@VUserAllocatorAccess@NxFoundation@@@@QAEXABVNxVec3@@@Z 1013a620 f i ClothCollision.obj
 0001:00139750       ?getLocalShapeVertices@ClothCollision@@CA_NPBVShape@@ABVNxBounds3@@AAV?$NxArraySDK@VNxVec3@@@NxFoundation@@2@Z 1013a750 f   ClothCollision.obj
 0001:0013c430       ?continuousContactTriangleShape@ClothCollision@@SA_NPBVShape@@ABUClothMovingTriangle@@MAAVNxPlane@@@Z 1013d430 f   ClothCollision.obj
 0001:0013e080       ?copyTo@ClothGlobalInternalConstraint@@QBEXAAUClothInternalConstraint@@@Z 1013f080 f i ClothCooker.obj
 0001:0013e0c0       ??0PermutationEntry@@QAE@XZ 1013f0c0 f i ClothCooker.obj
 0001:0013e0e0       ??0PermutationEntry@@QAE@HHH@Z 1013f0e0 f i ClothCooker.obj
 0001:0013e100       ??MPermutationEntry@@QAE_NABU0@@Z 1013f100 f i ClothCooker.obj
 0001:0013e140       ??0?$NxArray@UClothInternalConstraint@@VUserAllocatorAccess@NxFoundation@@@@QAE@XZ 1013f140 f i ClothCooker.obj
 0001:0013e150       ??A?$NxArray@VNxVec3@@VUserAllocatorAccess@NxFoundation@@@@QBEABVNxVec3@@I@Z 1013f150 f i ClothCooker.obj
 0001:0013e170       ??A?$NxArray@UClothGlobalInternalConstraint@@VUserAllocatorAccess@NxFoundation@@@@QBEABUClothGlobalInternalConstraint@@I@Z 1013f170 f i ClothCooker.obj
 0001:0013e190       ??0?$NxArray@HVUserAllocatorAccess@NxFoundation@@@@QAE@XZ 1013f190 f i ClothCooker.obj
 0001:0013e1a0       ??A?$NxArray@HVUserAllocatorAccess@NxFoundation@@@@QAEAAHI@Z 1013f1a0 f i ClothCooker.obj
 0001:0013e1b0       ??0?$NxArray@UPermutationEntry@@VUserAllocatorAccess@NxFoundation@@@@QAE@XZ 1013f1b0 f i ClothCooker.obj
 0001:0013e1c0       ?size@?$NxArray@UPermutationEntry@@VUserAllocatorAccess@NxFoundation@@@@QBEIXZ 1013f1c0 f i ClothCooker.obj
 0001:0013e1e0       ??A?$NxArray@UPermutationEntry@@VUserAllocatorAccess@NxFoundation@@@@QAEAAUPermutationEntry@@I@Z 1013f1e0 f i ClothCooker.obj
 0001:0013e200       ?deallocate@?$NxArray@UClothInternalConstraint@@VUserAllocatorAccess@NxFoundation@@@@AAEXPAUClothInternalConstraint@@@Z 1013f200 f i ClothCooker.obj
 0001:0013e220       ?destroy@?$NxArray@UClothInternalConstraint@@VUserAllocatorAccess@NxFoundation@@@@AAEXPAUClothInternalConstraint@@0@Z 1013f220 f i ClothCooker.obj
 0001:0013e230       ?deallocate@?$NxArray@PAVClothSolverPacket@@VUserAllocatorAccess@NxFoundation@@@@AAEXPAPAVClothSolverPacket@@@Z 1013f230 f i ClothCooker.obj
 0001:0013e250       ?destroy@?$NxArray@PAVClothSolverPacket@@VUserAllocatorAccess@NxFoundation@@@@AAEXPAPAVClothSolverPacket@@0@Z 1013f250 f i ClothCooker.obj
 0001:0013e260       ?begin@?$NxArray@HVUserAllocatorAccess@NxFoundation@@@@QAEPAHXZ 1013f260 f i ClothCooker.obj
 0001:0013e270       ?end@?$NxArray@HVUserAllocatorAccess@NxFoundation@@@@QAEPAHXZ 1013f270 f i ClothCooker.obj
 0001:0013e280       ?reallocate@?$NxArray@HVUserAllocatorAccess@NxFoundation@@@@AAEPAHIPAH@Z 1013f280 f i ClothCooker.obj
 0001:0013e2b0       ?deallocate@?$NxArray@HVUserAllocatorAccess@NxFoundation@@@@AAEXPAH@Z 1013f2b0 f i ClothCooker.obj
 0001:0013e2d0       ?destroy@?$NxArray@HVUserAllocatorAccess@NxFoundation@@@@AAEXPAH0@Z 1013f2d0 f i ClothCooker.obj
 0001:0013e2e0       ?deallocate@?$NxArray@UPermutationEntry@@VUserAllocatorAccess@NxFoundation@@@@AAEXPAUPermutationEntry@@@Z 1013f2e0 f i ClothCooker.obj
 0001:0013e300       ?destroy@?$NxArray@UPermutationEntry@@VUserAllocatorAccess@NxFoundation@@@@AAEXPAUPermutationEntry@@0@Z 1013f300 f i ClothCooker.obj
 0001:0013e310       ?capacity@?$NxArray@HVUserAllocatorAccess@NxFoundation@@@@QBEIXZ 1013f310 f i ClothCooker.obj
 0001:0013e330       ?fill@?$NxArray@HVUserAllocatorAccess@NxFoundation@@@@AAEXPAHIABH@Z 1013f330 f i ClothCooker.obj
 0001:0013e360       ?copy@?$NxArray@HVUserAllocatorAccess@NxFoundation@@@@AAEPAHPBH0PAH@Z 1013f360 f i ClothCooker.obj
 0001:0013e390       ?capacity@?$NxArray@UClothInternalConstraint@@VUserAllocatorAccess@NxFoundation@@@@QBEIXZ 1013f390 f i ClothCooker.obj
 0001:0013e3b0       ?copy@?$NxArray@UClothInternalConstraint@@VUserAllocatorAccess@NxFoundation@@@@AAEPAUClothInternalConstraint@@PBU2@0PAU2@@Z 1013f3b0 f i ClothCooker.obj
 0001:0013e3f0       ?allocate@?$NxArray@UClothInternalConstraint@@VUserAllocatorAccess@NxFoundation@@@@AAEPAUClothInternalConstraint@@I@Z 1013f3f0 f i ClothCooker.obj
 0001:0013e420       ?capacity@?$NxArray@PAVClothSolverPacket@@VUserAllocatorAccess@NxFoundation@@@@QBEIXZ 1013f420 f i ClothCooker.obj
 0001:0013e440       ?copy@?$NxArray@PAVClothSolverPacket@@VUserAllocatorAccess@NxFoundation@@@@AAEPAPAVClothSolverPacket@@PBQAV2@0PAPAV2@@Z 1013f440 f i ClothCooker.obj
 0001:0013e470       ?allocate@?$NxArray@PAVClothSolverPacket@@VUserAllocatorAccess@NxFoundation@@@@AAEPAPAVClothSolverPacket@@I@Z 1013f470 f i ClothCooker.obj
 0001:0013e4a0       ?allocate@?$NxArray@HVUserAllocatorAccess@NxFoundation@@@@AAEPAHI@Z 1013f4a0 f i ClothCooker.obj
 0001:0013e4d0       ?capacity@?$NxArray@UPermutationEntry@@VUserAllocatorAccess@NxFoundation@@@@QBEIXZ 1013f4d0 f i ClothCooker.obj
 0001:0013e500       ?copy@?$NxArray@UPermutationEntry@@VUserAllocatorAccess@NxFoundation@@@@AAEPAUPermutationEntry@@PBU2@0PAU2@@Z 1013f500 f i ClothCooker.obj
 0001:0013e550       ?allocate@?$NxArray@UPermutationEntry@@VUserAllocatorAccess@NxFoundation@@@@AAEPAUPermutationEntry@@I@Z 1013f550 f i ClothCooker.obj
 0001:0013e6f0       ??1?$NxArray@UClothInternalConstraint@@VUserAllocatorAccess@NxFoundation@@@@QAE@XZ 1013f6f0 f i ClothCooker.obj
 0001:0013e730       ??1?$NxArray@HVUserAllocatorAccess@NxFoundation@@@@QAE@XZ 1013f730 f i ClothCooker.obj
 0001:0013e770       ??1?$NxArray@UPermutationEntry@@VUserAllocatorAccess@NxFoundation@@@@QAE@XZ 1013f770 f i ClothCooker.obj
 0001:0013e7b0       ?erase@?$NxArray@HVUserAllocatorAccess@NxFoundation@@@@QAEXPAH0@Z 1013f7b0 f i ClothCooker.obj
 0001:0013e810       ?reserve@?$NxArray@UClothInternalConstraint@@VUserAllocatorAccess@NxFoundation@@@@QAEXI@Z 1013f810 f i ClothCooker.obj
 0001:0013e8e0       ?reserve@?$NxArray@PAVClothSolverPacket@@VUserAllocatorAccess@NxFoundation@@@@QAEXI@Z 1013f8e0 f i ClothCooker.obj
 0001:0013e990       ?reserve@?$NxArray@HVUserAllocatorAccess@NxFoundation@@@@QAEXI@Z 1013f990 f i ClothCooker.obj
 0001:0013ea40       ?reserve@?$NxArray@UPermutationEntry@@VUserAllocatorAccess@NxFoundation@@@@QAEXI@Z 1013fa40 f i ClothCooker.obj
 0001:0013eb40       ??0?$NxArraySDK@UClothInternalConstraint@@@NxFoundation@@QAE@XZ 1013fb40 f i ClothCooker.obj
 0001:0013eb50       ??1?$NxArraySDK@UClothInternalConstraint@@@NxFoundation@@QAE@XZ 1013fb50 f i ClothCooker.obj
 0001:0013eb90       ??0?$NxArraySDK@H@NxFoundation@@QAE@XZ 1013fb90 f i ClothCooker.obj
 0001:0013eba0       ??1?$NxArraySDK@H@NxFoundation@@QAE@XZ 1013fba0 f i ClothCooker.obj
 0001:0013ebe0       ?checkConstraint@ClothCooker@@AAEXHHPAV?$NxArraySDK@H@NxFoundation@@ABVNxBounds3@@AAHAAM2@Z 1013fbe0 f   ClothCooker.obj
 0001:0013f0d0       ??1ClothSolverPacket@@QAE@XZ 101400d0 f i ClothCooker.obj
 0001:0013f170       ??0?$NxArraySDK@UPermutationEntry@@@NxFoundation@@QAE@XZ 10140170 f i ClothCooker.obj
 0001:0013f180       ??1?$NxArraySDK@UPermutationEntry@@@NxFoundation@@QAE@XZ 10140180 f i ClothCooker.obj
 0001:0013f1c0       ?pushBack@?$NxArray@UClothInternalConstraint@@VUserAllocatorAccess@NxFoundation@@@@QAEXABUClothInternalConstraint@@@Z 101401c0 f i ClothCooker.obj
 0001:0013f2c0       ?pushBack@?$NxArray@PAVClothSolverPacket@@VUserAllocatorAccess@NxFoundation@@@@QAEXABQAVClothSolverPacket@@@Z 101402c0 f i ClothCooker.obj
 0001:0013f390       ?insert@?$NxArray@HVUserAllocatorAccess@NxFoundation@@@@QAEXPAHIABH@Z 10140390 f i ClothCooker.obj
 0001:0013f4f0       ?pushBack@?$NxArray@UPermutationEntry@@VUserAllocatorAccess@NxFoundation@@@@QAEXABUPermutationEntry@@@Z 101404f0 f i ClothCooker.obj
 0001:0013f640       ??0ClothSolverPacket@@QAE@XZ 10140640 f i ClothCooker.obj
 0001:0013f660       ??_GClothSolverPacket@@QAEPAXI@Z 10140660 f i ClothCooker.obj
 0001:0013f690       ?push_back@?$NxArray@UClothInternalConstraint@@VUserAllocatorAccess@NxFoundation@@@@QAEXABUClothInternalConstraint@@@Z 10140690 f i ClothCooker.obj
 0001:0013f790       ?push_back@?$NxArray@PAVClothSolverPacket@@VUserAllocatorAccess@NxFoundation@@@@QAEXABQAVClothSolverPacket@@@Z 10140790 f i ClothCooker.obj
 0001:0013f860       ?resize@?$NxArray@HVUserAllocatorAccess@NxFoundation@@@@QAEXIABH@Z 10140860 f i ClothCooker.obj
 0001:0013fa60       ?push_back@?$NxArray@UPermutationEntry@@VUserAllocatorAccess@NxFoundation@@@@QAEXABUPermutationEntry@@@Z 10140a60 f i ClothCooker.obj
 0001:0013fbb0       ?generateConstraintsOfVerticesList@ClothCooker@@AAEXXZ 10140bb0 f   ClothCooker.obj
 0001:00140340       ?generatePackets@ClothCooker@@QAEXXZ 10141340 f   ClothCooker.obj
 0001:00141a90       ?generatePermutationTable@ClothCooker@@QAEXXZ 10142a90 f   ClothCooker.obj
 0001:00141ff0       ??8ClothVertexRef@@QBE_NABU0@@Z 10142ff0 f i ClothHash.obj
 0001:00142020       ?hashFunction@ClothHash@@AAEIHHH@Z 10143020 f i ClothHash.obj
 0001:00142060       ?cellCoordOf@ClothHash@@AAEXABVNxVec3@@AAH11@Z 10143060 f i ClothHash.obj
 0001:00142100       ??0?$NxArray@UClothHashEntry@@VUserAllocatorAccess@NxFoundation@@@@QAE@XZ 10143100 f i ClothHash.obj
 0001:00142110       ?size@?$NxArray@UClothHashEntry@@VUserAllocatorAccess@NxFoundation@@@@QBEIXZ 10143110 f i ClothHash.obj
 0001:00142130       ??A?$NxArray@UClothHashEntry@@VUserAllocatorAccess@NxFoundation@@@@QAEAAUClothHashEntry@@I@Z 10143130 f i ClothHash.obj
 0001:00142150       ?size@?$NxArray@UClothVertexRef@@VUserAllocatorAccess@NxFoundation@@@@QBEIXZ 10143150 f i ClothHash.obj
 0001:00142160       ?begin@?$NxArray@UClothHashEntry@@VUserAllocatorAccess@NxFoundation@@@@QAEPAUClothHashEntry@@XZ 10143160 f i ClothHash.obj
 0001:00142170       ?end@?$NxArray@UClothHashEntry@@VUserAllocatorAccess@NxFoundation@@@@QAEPAUClothHashEntry@@XZ 10143170 f i ClothHash.obj
 0001:00142180       ?deallocate@?$NxArray@UClothHashEntry@@VUserAllocatorAccess@NxFoundation@@@@AAEXPAUClothHashEntry@@@Z 10143180 f i ClothHash.obj
 0001:001421a0       ?destroy@?$NxArray@UClothHashEntry@@VUserAllocatorAccess@NxFoundation@@@@AAEXPAUClothHashEntry@@0@Z 101431a0 f i ClothHash.obj
 0001:001421b0       ?popBack@?$NxArray@UClothVertexRef@@VUserAllocatorAccess@NxFoundation@@@@QAEXXZ 101431b0 f i ClothHash.obj
 0001:001421c0       ?begin@?$NxArray@UClothVertexRef@@VUserAllocatorAccess@NxFoundation@@@@QAEPAUClothVertexRef@@XZ 101431c0 f i ClothHash.obj
 0001:001421d0       ?end@?$NxArray@UClothVertexRef@@VUserAllocatorAccess@NxFoundation@@@@QAEPAUClothVertexRef@@XZ 101431d0 f i ClothHash.obj
 0001:001421e0       ?capacity@?$NxArray@UClothHashEntry@@VUserAllocatorAccess@NxFoundation@@@@QBEIXZ 101431e0 f i ClothHash.obj
 0001:00142210       ?copy@?$NxArray@UClothHashEntry@@VUserAllocatorAccess@NxFoundation@@@@AAEPAUClothHashEntry@@PBU2@0PAU2@@Z 10143210 f i ClothHash.obj
 0001:00142260       ?allocate@?$NxArray@UClothHashEntry@@VUserAllocatorAccess@NxFoundation@@@@AAEPAUClothHashEntry@@I@Z 10143260 f i ClothHash.obj
 0001:00142290       ?capacity@?$NxArray@UClothVertexRef@@VUserAllocatorAccess@NxFoundation@@@@QBEIXZ 10143290 f i ClothHash.obj
 0001:001422b0       ?copy@?$NxArray@UClothVertexRef@@VUserAllocatorAccess@NxFoundation@@@@AAEPAUClothVertexRef@@PBU2@0PAU2@@Z 101432b0 f i ClothHash.obj
 0001:001422f0       ?allocate@?$NxArray@UClothVertexRef@@VUserAllocatorAccess@NxFoundation@@@@AAEPAUClothVertexRef@@I@Z 101432f0 f i ClothHash.obj
 0001:00142320       ?quickSort@ClothHash@@AAEXAAV?$NxArraySDK@UClothVertexRef@@@NxFoundation@@HH@Z 10143320 f   ClothHash.obj
 0001:00142440       ??1?$NxArray@UClothHashEntry@@VUserAllocatorAccess@NxFoundation@@@@QAE@XZ 10143440 f i ClothHash.obj
 0001:00142480       ?clear@?$NxArray@UClothHashEntry@@VUserAllocatorAccess@NxFoundation@@@@QAEXXZ 10143480 f i ClothHash.obj
 0001:00142490       ?pop_back@?$NxArray@UClothVertexRef@@VUserAllocatorAccess@NxFoundation@@@@QAEXXZ 10143490 f i ClothHash.obj
 0001:001424a0       ?clear@?$NxArray@UClothVertexRef@@VUserAllocatorAccess@NxFoundation@@@@QAEXXZ 101434a0 f i ClothHash.obj
 0001:001424b0       ?reserve@?$NxArray@UClothHashEntry@@VUserAllocatorAccess@NxFoundation@@@@QAEXI@Z 101434b0 f i ClothHash.obj
 0001:001425b0       ?reserve@?$NxArray@UClothVertexRef@@VUserAllocatorAccess@NxFoundation@@@@QAEXI@Z 101435b0 f i ClothHash.obj
 0001:00142660       ??0?$NxArraySDK@UClothHashEntry@@@NxFoundation@@QAE@XZ 10143660 f i ClothHash.obj
 0001:00142670       ??1?$NxArraySDK@UClothHashEntry@@@NxFoundation@@QAE@XZ 10143670 f i ClothHash.obj
 0001:001426b0       ??1ClothHash@@QAE@XZ       101436b0 f   ClothHash.obj
 0001:00142700       ?reset@ClothHash@@QAEXXZ   10143700 f   ClothHash.obj
 0001:00142720       ?compressIndices@ClothHash@@AAEXAAV?$NxArraySDK@UClothVertexRef@@@NxFoundation@@@Z 10143720 f   ClothHash.obj
 0001:00142820       ?pushBack@?$NxArray@UClothHashEntry@@VUserAllocatorAccess@NxFoundation@@@@QAEXABUClothHashEntry@@@Z 10143820 f i ClothHash.obj
 0001:00142970       ?pushBack@?$NxArray@UClothVertexRef@@VUserAllocatorAccess@NxFoundation@@@@QAEXABUClothVertexRef@@@Z 10143970 f i ClothHash.obj
 0001:00142a50       ??0ClothHash@@QAE@XZ       10143a50 f   ClothHash.obj
 0001:00142ac0       ?setGridSpacing@ClothHash@@QAEXM@Z 10143ac0 f   ClothHash.obj
 0001:00142af0       ?push_back@?$NxArray@UClothHashEntry@@VUserAllocatorAccess@NxFoundation@@@@QAEXABUClothHashEntry@@@Z 10143af0 f i ClothHash.obj
 0001:00142c40       ?push_back@?$NxArray@UClothVertexRef@@VUserAllocatorAccess@NxFoundation@@@@QAEXABUClothVertexRef@@@Z 10143c40 f i ClothHash.obj
 0001:00142d20       ?add@ClothHash@@QAEXABVNxBounds3@@ABUClothVertexRef@@@Z 10143d20 f   ClothHash.obj
 0001:00143130       ?query@ClothHash@@QAEXABVNxBounds3@@AAV?$NxArraySDK@UClothVertexRef@@@NxFoundation@@H@Z 10144130 f   ClothHash.obj
 0001:001434b0       ?queryUnique@ClothHash@@QAEXABVNxBounds3@@AAV?$NxArraySDK@UClothVertexRef@@@NxFoundation@@H@Z 101444b0 f   ClothHash.obj
 0001:001434e0       ?getId@Cloth@@QAEIXZ       101444e0 f i ClothManager.obj
 0001:001434f0       ?pop_back@?$NxArray@IVUserAllocatorAccess@NxFoundation@@@@QAEXXZ 101444f0 f i ClothManager.obj
 0001:00143500       ??0?$NxArray@PAVCloth@@VUserAllocatorAccess@NxFoundation@@@@QAE@XZ 10144500 f i ClothManager.obj
 0001:00143510       ??A?$NxArray@PAVCloth@@VUserAllocatorAccess@NxFoundation@@@@QAEAAPAVCloth@@I@Z 10144510 f i ClothManager.obj
 0001:00143520       ?begin@?$NxArray@PAVCloth@@VUserAllocatorAccess@NxFoundation@@@@QAEPAPAVCloth@@XZ 10144520 f i ClothManager.obj
 0001:00143530       ?popBack@?$NxArray@PAVCloth@@VUserAllocatorAccess@NxFoundation@@@@QAEXXZ 10144530 f i ClothManager.obj
 0001:00143540       ?end@?$NxArray@PAVCloth@@VUserAllocatorAccess@NxFoundation@@@@QAEPAPAVCloth@@XZ 10144540 f i ClothManager.obj
 0001:00143550       ?back@?$NxArray@PAVCloth@@VUserAllocatorAccess@NxFoundation@@@@QAEAAPAVCloth@@XZ 10144550 f i ClothManager.obj
 0001:00143560       ?deallocate@?$NxArray@PAVCloth@@VUserAllocatorAccess@NxFoundation@@@@AAEXPAPAVCloth@@@Z 10144560 f i ClothManager.obj
 0001:00143580       ?destroy@?$NxArray@PAVCloth@@VUserAllocatorAccess@NxFoundation@@@@AAEXPAPAVCloth@@0@Z 10144580 f i ClothManager.obj
 0001:00143590       ?capacity@?$NxArray@PAVCloth@@VUserAllocatorAccess@NxFoundation@@@@QBEIXZ 10144590 f i ClothManager.obj
 0001:001435b0       ?copy@?$NxArray@PAVCloth@@VUserAllocatorAccess@NxFoundation@@@@AAEPAPAVCloth@@PBQAV2@0PAPAV2@@Z 101445b0 f i ClothManager.obj
 0001:001435e0       ?allocate@?$NxArray@PAVCloth@@VUserAllocatorAccess@NxFoundation@@@@AAEPAPAVCloth@@I@Z 101445e0 f i ClothManager.obj
 0001:00143610       ?simulate@ClothManager@@QAEXM@Z 10144610 f   ClothManager.obj
 0001:00143810       ?raycast@ClothManager@@QAE_NABVNxRay@@AAVNxVec3@@AAI2@Z 10144810 f   ClothManager.obj
 0001:00143890       ?getMovingPoint@ClothManager@@QAEXIIAAUClothMovingPoint@@@Z 10144890 f   ClothManager.obj
 0001:001438c0       ?getNewPosition@ClothManager@@QAEXIIAAVNxVec3@@@Z 101448c0 f   ClothManager.obj
 0001:001438f0       ?setNewPosition@ClothManager@@QAEXIIABVNxVec3@@@Z 101448f0 f   ClothManager.obj
 0001:00143920       ?getInverseMass@ClothManager@@QAEMII@Z 10144920 f   ClothManager.obj
 0001:00143950       ?visualize@ClothManager@@QAEXAAVDebugRenderable@NxFoundation@@@Z 10144950 f   ClothManager.obj
 0001:001439a0       ?swapSDKBfr@ClothManager@@QAEXXZ 101449a0 f   ClothManager.obj
 0001:001439e0       ?removeShape@ClothManager@@QAEXAAVShape@@@Z 101449e0 f   ClothManager.obj
 0001:00143a40       ?clear@?$NxArray@HVUserAllocatorAccess@NxFoundation@@@@QAEXXZ 10144a40 f i ClothManager.obj
 0001:00143a50       ??1?$NxArray@PAVCloth@@VUserAllocatorAccess@NxFoundation@@@@QAE@XZ 10144a50 f i ClothManager.obj
 0001:00143a90       ?pop_back@?$NxArray@PAVCloth@@VUserAllocatorAccess@NxFoundation@@@@QAEXXZ 10144a90 f i ClothManager.obj
 0001:00143aa0       ?clear@?$NxArray@PAVCloth@@VUserAllocatorAccess@NxFoundation@@@@QAEXXZ 10144aa0 f i ClothManager.obj
 0001:00143ab0       ?replaceWithLast@?$NxArray@PAVCloth@@VUserAllocatorAccess@NxFoundation@@@@QAEXI@Z 10144ab0 f i ClothManager.obj
 0001:00143af0       ?reserve@?$NxArray@PAVCloth@@VUserAllocatorAccess@NxFoundation@@@@QAEXI@Z 10144af0 f i ClothManager.obj
 0001:00143ba0       ??0?$NxArraySDK@PAVCloth@@@NxFoundation@@QAE@XZ 10144ba0 f i ClothManager.obj
 0001:00143bb0       ??1?$NxArraySDK@PAVCloth@@@NxFoundation@@QAE@XZ 10144bb0 f i ClothManager.obj
 0001:00143bf0       ??1ClothManager@@UAE@XZ    10144bf0 f   ClothManager.obj
 0001:00143d30       ?pushBack@?$NxArray@HVUserAllocatorAccess@NxFoundation@@@@QAEXABH@Z 10144d30 f i ClothManager.obj
 0001:00143e00       ?pushBack@?$NxArray@PAVCloth@@VUserAllocatorAccess@NxFoundation@@@@QAEXABQAVCloth@@@Z 10144e00 f i ClothManager.obj
 0001:00143ed0       ??0ClothManager@@QAE@PAVScene@@@Z 10144ed0 f   ClothManager.obj
 0001:00143f70       ??_GClothManager@@UAEPAXI@Z 10144f70 f i ClothManager.obj
 0001:00143f70       ??_EClothManager@@UAEPAXI@Z 10144f70 f i ClothManager.obj
 0001:00143fa0       ?releaseCloth@ClothManager@@QAEXAAVCloth@@@Z 10144fa0 f   ClothManager.obj
 0001:00144140       ?push_back@?$NxArray@HVUserAllocatorAccess@NxFoundation@@@@QAEXABH@Z 10145140 f i ClothManager.obj
 0001:00144210       ?push_back@?$NxArray@PAVCloth@@VUserAllocatorAccess@NxFoundation@@@@QAEXABQAVCloth@@@Z 10145210 f i ClothManager.obj
 0001:001442e0       ?createCloth@ClothManager@@QAEPAVCloth@@ABVNxClothDesc@@@Z 101452e0 f   ClothManager.obj
 0001:001446f0       ?isValid@NxSimpleTriangleMesh@@QBE_NXZ 101456f0 f i ClothMesh.obj
 0001:00144750       ?isValid@NxClothMeshDesc@@QBE_NXZ 10145750 f i ClothMesh.obj
 0001:001447e0       ?set@ClothEdge@@QAEXIIII@Z 101457e0 f i ClothMesh.obj
 0001:00144830       ??MClothEdge@@QAE_NABU0@@Z 10145830 f i ClothMesh.obj
 0001:00144870       ??8ClothEdge@@QAE_NABU0@@Z 10145870 f i ClothMesh.obj
 0001:001448a0       ?set@ClothTriangle@@QAEXIIII@Z 101458a0 f i ClothMesh.obj
 0001:00144960       ??MClothTriangle@@QAE_NABU0@@Z 10145960 f i ClothMesh.obj
 0001:001449b0       ??8ClothTriangle@@QAE_NABU0@@Z 101459b0 f i ClothMesh.obj
 0001:001449e0       ?begin@?$NxArray@VNxVec3@@VUserAllocatorAccess@NxFoundation@@@@QBEPBVNxVec3@@XZ 101459e0 f i ClothMesh.obj
 0001:001449f0       ??0?$NxArray@MVUserAllocatorAccess@NxFoundation@@@@QAE@XZ 101459f0 f i ClothMesh.obj
 0001:00144a00       ?begin@?$NxArray@MVUserAllocatorAccess@NxFoundation@@@@QBEPBMXZ 10145a00 f i ClothMesh.obj
 0001:00144a10       ??0?$NxArray@PAVClothSolverPacket@@VUserAllocatorAccess@NxFoundation@@@@QAE@XZ 10145a10 f i ClothMesh.obj
 0001:00144a20       ??0?$NxArray@UClothEdge@@VUserAllocatorAccess@NxFoundation@@@@QAE@XZ 10145a20 f i ClothMesh.obj
 0001:00144a30       ?size@?$NxArray@UClothEdge@@VUserAllocatorAccess@NxFoundation@@@@QBEIXZ 10145a30 f i ClothMesh.obj
 0001:00144a40       ??A?$NxArray@UClothEdge@@VUserAllocatorAccess@NxFoundation@@@@QAEAAUClothEdge@@I@Z 10145a40 f i ClothMesh.obj
 0001:00144a60       ??0?$NxArray@UClothTriangle@@VUserAllocatorAccess@NxFoundation@@@@QAE@XZ 10145a60 f i ClothMesh.obj
 0001:00144a70       ?size@?$NxArray@UClothTriangle@@VUserAllocatorAccess@NxFoundation@@@@QBEIXZ 10145a70 f i ClothMesh.obj
 0001:00144a80       ??A?$NxArray@UClothTriangle@@VUserAllocatorAccess@NxFoundation@@@@QAEAAUClothTriangle@@I@Z 10145a80 f i ClothMesh.obj
 0001:00144aa0       ?reallocate@?$NxArray@VNxVec3@@VUserAllocatorAccess@NxFoundation@@@@AAEPAVNxVec3@@IPAV2@@Z 10145aa0 f i ClothMesh.obj
 0001:00144ad0       ?begin@?$NxArray@MVUserAllocatorAccess@NxFoundation@@@@QAEPAMXZ 10145ad0 f i ClothMesh.obj
 0001:00144ae0       ?end@?$NxArray@MVUserAllocatorAccess@NxFoundation@@@@QAEPAMXZ 10145ae0 f i ClothMesh.obj
 0001:00144af0       ?reallocate@?$NxArray@MVUserAllocatorAccess@NxFoundation@@@@AAEPAMIPAM@Z 10145af0 f i ClothMesh.obj
 0001:00144b20       ?deallocate@?$NxArray@MVUserAllocatorAccess@NxFoundation@@@@AAEXPAM@Z 10145b20 f i ClothMesh.obj
 0001:00144b40       ?destroy@?$NxArray@MVUserAllocatorAccess@NxFoundation@@@@AAEXPAM0@Z 10145b40 f i ClothMesh.obj
 0001:00144b50       ?begin@?$NxArray@PAVClothSolverPacket@@VUserAllocatorAccess@NxFoundation@@@@QAEPAPAVClothSolverPacket@@XZ 10145b50 f i ClothMesh.obj
 0001:00144b60       ?end@?$NxArray@PAVClothSolverPacket@@VUserAllocatorAccess@NxFoundation@@@@QAEPAPAVClothSolverPacket@@XZ 10145b60 f i ClothMesh.obj
 0001:00144b70       ?reallocate@?$NxArray@PAVClothSolverPacket@@VUserAllocatorAccess@NxFoundation@@@@AAEPAPAVClothSolverPacket@@IPAPAV2@@Z 10145b70 f i ClothMesh.obj
 0001:00144ba0       ?capacity@?$NxArray@UClothEdge@@VUserAllocatorAccess@NxFoundation@@@@QBEIXZ 10145ba0 f i ClothMesh.obj
 0001:00144bc0       ?copy@?$NxArray@UClothEdge@@VUserAllocatorAccess@NxFoundation@@@@AAEPAUClothEdge@@PBU2@0PAU2@@Z 10145bc0 f i ClothMesh.obj
 0001:00144c10       ?allocate@?$NxArray@UClothEdge@@VUserAllocatorAccess@NxFoundation@@@@AAEPAUClothEdge@@I@Z 10145c10 f i ClothMesh.obj
 0001:00144c40       ?deallocate@?$NxArray@UClothEdge@@VUserAllocatorAccess@NxFoundation@@@@AAEXPAUClothEdge@@@Z 10145c40 f i ClothMesh.obj
 0001:00144c60       ?destroy@?$NxArray@UClothEdge@@VUserAllocatorAccess@NxFoundation@@@@AAEXPAUClothEdge@@0@Z 10145c60 f i ClothMesh.obj
 0001:00144c70       ?capacity@?$NxArray@UClothTriangle@@VUserAllocatorAccess@NxFoundation@@@@QBEIXZ 10145c70 f i ClothMesh.obj
 0001:00144c90       ?copy@?$NxArray@UClothTriangle@@VUserAllocatorAccess@NxFoundation@@@@AAEPAUClothTriangle@@PBU2@0PAU2@@Z 10145c90 f i ClothMesh.obj
 0001:00144ce0       ?allocate@?$NxArray@UClothTriangle@@VUserAllocatorAccess@NxFoundation@@@@AAEPAUClothTriangle@@I@Z 10145ce0 f i ClothMesh.obj
 0001:00144d10       ?deallocate@?$NxArray@UClothTriangle@@VUserAllocatorAccess@NxFoundation@@@@AAEXPAUClothTriangle@@@Z 10145d10 f i ClothMesh.obj
 0001:00144d30       ?destroy@?$NxArray@UClothTriangle@@VUserAllocatorAccess@NxFoundation@@@@AAEXPAUClothTriangle@@0@Z 10145d30 f i ClothMesh.obj
 0001:00144d40       ?fill@?$NxArray@VNxVec3@@VUserAllocatorAccess@NxFoundation@@@@AAEXPAVNxVec3@@IABV2@@Z 10145d40 f i ClothMesh.obj
 0001:00144d80       ?capacity@?$NxArray@MVUserAllocatorAccess@NxFoundation@@@@QBEIXZ 10145d80 f i ClothMesh.obj
 0001:00144da0       ?fill@?$NxArray@MVUserAllocatorAccess@NxFoundation@@@@AAEXPAMIABM@Z 10145da0 f i ClothMesh.obj
 0001:00144dd0       ?copy@?$NxArray@MVUserAllocatorAccess@NxFoundation@@@@AAEPAMPBM0PAM@Z 10145dd0 f i ClothMesh.obj
 0001:00144e00       ?allocate@?$NxArray@MVUserAllocatorAccess@NxFoundation@@@@AAEPAMI@Z 10145e00 f i ClothMesh.obj
 0001:00144e30       ?fill@?$NxArray@PAVClothSolverPacket@@VUserAllocatorAccess@NxFoundation@@@@AAEXPAPAVClothSolverPacket@@IABQAV2@@Z 10145e30 f i ClothMesh.obj
 0001:001451c0       ?saveToDesc@ClothMesh@@UBE_NAAVNxClothMeshDesc@@@Z 101461c0 f   ClothMesh.obj
 0001:00145260       ?save@ClothMesh@@QAE_NAAVNxStream@@_N@Z 10146260 f   ClothMesh.obj
 0001:001457e0       ??1?$NxArray@MVUserAllocatorAccess@NxFoundation@@@@QAE@XZ 101467e0 f i ClothMesh.obj
 0001:00145820       ?clear@?$NxArray@MVUserAllocatorAccess@NxFoundation@@@@QAEXXZ 10146820 f i ClothMesh.obj
 0001:00145830       ??1?$NxArray@PAVClothSolverPacket@@VUserAllocatorAccess@NxFoundation@@@@QAE@XZ 10146830 f i ClothMesh.obj
 0001:00145870       ?clear@?$NxArray@PAVClothSolverPacket@@VUserAllocatorAccess@NxFoundation@@@@QAEXXZ 10146870 f i ClothMesh.obj
 0001:00145880       ??1?$NxArray@UClothEdge@@VUserAllocatorAccess@NxFoundation@@@@QAE@XZ 10146880 f i ClothMesh.obj
 0001:001458c0       ?reserve@?$NxArray@UClothEdge@@VUserAllocatorAccess@NxFoundation@@@@QAEXI@Z 101468c0 f i ClothMesh.obj
 0001:001459a0       ??1?$NxArray@UClothTriangle@@VUserAllocatorAccess@NxFoundation@@@@QAE@XZ 101469a0 f i ClothMesh.obj
 0001:001459e0       ?reserve@?$NxArray@UClothTriangle@@VUserAllocatorAccess@NxFoundation@@@@QAEXI@Z 101469e0 f i ClothMesh.obj
 0001:00145ac0       ?erase@?$NxArray@VNxVec3@@VUserAllocatorAccess@NxFoundation@@@@QAEXPAVNxVec3@@0@Z 10146ac0 f i ClothMesh.obj
 0001:00145b40       ?reserve@?$NxArray@MVUserAllocatorAccess@NxFoundation@@@@QAEXI@Z 10146b40 f i ClothMesh.obj
 0001:00145bf0       ?insert@?$NxArray@MVUserAllocatorAccess@NxFoundation@@@@QAEXPAMIABM@Z 10146bf0 f i ClothMesh.obj
 0001:00145d50       ?erase@?$NxArray@MVUserAllocatorAccess@NxFoundation@@@@QAEXPAM0@Z 10146d50 f i ClothMesh.obj
 0001:00145db0       ?erase@?$NxArray@PAVClothSolverPacket@@VUserAllocatorAccess@NxFoundation@@@@QAEXPAPAVClothSolverPacket@@0@Z 10146db0 f i ClothMesh.obj
 0001:00145e10       ?pushBack@?$NxArray@UClothEdge@@VUserAllocatorAccess@NxFoundation@@@@QAEXABUClothEdge@@@Z 10146e10 f i ClothMesh.obj
 0001:00145f30       ?pushBack@?$NxArray@UClothTriangle@@VUserAllocatorAccess@NxFoundation@@@@QAEXABUClothTriangle@@@Z 10146f30 f i ClothMesh.obj
 0001:00146050       ??0?$NxArraySDK@M@NxFoundation@@QAE@XZ 10147050 f i ClothMesh.obj
 0001:00146060       ??1?$NxArraySDK@M@NxFoundation@@QAE@XZ 10147060 f i ClothMesh.obj
 0001:001460a0       ??0?$NxArraySDK@PAVClothSolverPacket@@@NxFoundation@@QAE@XZ 101470a0 f i ClothMesh.obj
 0001:001460b0       ??1?$NxArraySDK@PAVClothSolverPacket@@@NxFoundation@@QAE@XZ 101470b0 f i ClothMesh.obj
 0001:001460f0       ??0?$NxArraySDK@UClothTriangle@@@NxFoundation@@QAE@XZ 101470f0 f i ClothMesh.obj
 0001:00146100       ??1?$NxArraySDK@UClothTriangle@@@NxFoundation@@QAE@XZ 10147100 f i ClothMesh.obj
 0001:00146140       ??0?$NxArraySDK@UClothEdge@@@NxFoundation@@QAE@XZ 10147140 f i ClothMesh.obj
 0001:00146150       ??1?$NxArraySDK@UClothEdge@@@NxFoundation@@QAE@XZ 10147150 f i ClothMesh.obj
 0001:00146190       ?resize@?$NxArray@MVUserAllocatorAccess@NxFoundation@@@@QAEXIABM@Z 10147190 f i ClothMesh.obj
 0001:00146390       ?pushBack@?$NxArray@MVUserAllocatorAccess@NxFoundation@@@@QAEXABM@Z 10147390 f i ClothMesh.obj
 0001:00146460       ?push_back@?$NxArray@MVUserAllocatorAccess@NxFoundation@@@@QAEXABM@Z 10147460 f i ClothMesh.obj
 0001:00146530       ?push_back@?$NxArray@UClothEdge@@VUserAllocatorAccess@NxFoundation@@@@QAEXABUClothEdge@@@Z 10147530 f i ClothMesh.obj
 0001:00146650       ?push_back@?$NxArray@UClothTriangle@@VUserAllocatorAccess@NxFoundation@@@@QAEXABUClothTriangle@@@Z 10147650 f i ClothMesh.obj
 0001:00146770       ?insert@?$NxArray@VNxVec3@@VUserAllocatorAccess@NxFoundation@@@@QAEXPAVNxVec3@@IABV2@@Z 10147770 f i ClothMesh.obj
 0001:00146970       ?insert@?$NxArray@PAVClothSolverPacket@@VUserAllocatorAccess@NxFoundation@@@@QAEXPAPAVClothSolverPacket@@IABQAV2@@Z 10147970 f i ClothMesh.obj
 0001:00146ad0       ??0ClothCooker@@QAE@_NABV?$NxArraySDK@VNxVec3@@@NxFoundation@@ABV?$NxArraySDK@UClothGlobalInternalConstraint@@@2@AAV?$NxArraySDK@I@2@3AAV?$NxArraySDK@PAVClothSolverPacket@@@2@@Z 10147ad0 f i ClothMesh.obj
 0001:00146bc0       ??1ClothCooker@@QAE@XZ     10147bc0 f i ClothMesh.obj
 0001:00146ca0       ?clear@ClothMesh@@AAEXXZ   10147ca0 f   ClothMesh.obj
 0001:00146d80       ?findParentTriangles@ClothMesh@@AAEXXZ 10147d80 f   ClothMesh.obj
 0001:00147310       ?resize@?$NxArray@VNxVec3@@VUserAllocatorAccess@NxFoundation@@@@QAEXIABVNxVec3@@@Z 10148310 f i ClothMesh.obj
 0001:001475d0       ?resize@?$NxArray@PAVClothSolverPacket@@VUserAllocatorAccess@NxFoundation@@@@QAEXIABQAVClothSolverPacket@@@Z 101485d0 f i ClothMesh.obj
 0001:001477d0       ??1ClothMesh@@QAE@XZ       101487d0 f   ClothMesh.obj
 0001:00147a60       ?setNpClothMesh@ClothMesh@@UAEXPAVNpClothMesh@@@Z 10148a60 f i ClothMesh.obj
 0001:00147a70       ?getNpClothMesh@ClothMesh@@UAEPAVNpClothMesh@@XZ 10148a70 f i ClothMesh.obj
 0001:00147a80       ?load@ClothMesh@@UAE_NABVNxStream@@@Z 10148a80 f   ClothMesh.obj
 0001:00148aa0       ?generateConstraints@ClothMesh@@AAEXXZ 10149aa0 f   ClothMesh.obj
 0001:00149640       ?loadFromDesc@ClothMesh@@QAE_NABVNxClothMeshDesc@@@Z 1014a640 f   ClothMesh.obj
 0001:0014afd0       ?getDensity@Actor@@QBEMXZ  1014bfd0 f i ClothMetal.obj
 0001:0014afe0       ?setCoreShape@ClothMetal@@QAE_NPAVNvShape@@MM@Z 1014bfe0 f   ClothMetal.obj
 0001:0014b070       ?getBody@ClothMetal@@QBEPBVNvBody@@XZ 1014c070 f   ClothMetal.obj
 0001:0014b090       ?isSleeping@ClothMetal@@QBE_NXZ 1014c090 f   ClothMetal.obj
 0001:0014b0d0       ?coreContains@ClothMetal@@QAE_NPAVNvShape@@@Z 1014c0d0 f   ClothMetal.obj
 0001:0014b150       ??0?$NxArray@VNxBounds3@@VUserAllocatorAccess@NxFoundation@@@@QAE@XZ 1014c150 f i ClothMetal.obj
 0001:0014b160       ?size@?$NxArray@VNxBounds3@@VUserAllocatorAccess@NxFoundation@@@@QBEIXZ 1014c160 f i ClothMetal.obj
 0001:0014b180       ??A?$NxArray@VNxBounds3@@VUserAllocatorAccess@NxFoundation@@@@QAEAAVNxBounds3@@I@Z 1014c180 f i ClothMetal.obj
 0001:0014b1a0       ?begin@?$NxArray@VNxBounds3@@VUserAllocatorAccess@NxFoundation@@@@QAEPAVNxBounds3@@XZ 1014c1a0 f i ClothMetal.obj
 0001:0014b1b0       ?end@?$NxArray@VNxBounds3@@VUserAllocatorAccess@NxFoundation@@@@QAEPAVNxBounds3@@XZ 1014c1b0 f i ClothMetal.obj
 0001:0014b1c0       ?back@?$NxArray@VNxBounds3@@VUserAllocatorAccess@NxFoundation@@@@QAEAAVNxBounds3@@XZ 1014c1c0 f i ClothMetal.obj
 0001:0014b1d0       ?reallocate@?$NxArray@VNxBounds3@@VUserAllocatorAccess@NxFoundation@@@@AAEPAVNxBounds3@@IPAV2@@Z 1014c1d0 f i ClothMetal.obj
 0001:0014b200       ?deallocate@?$NxArray@VNxBounds3@@VUserAllocatorAccess@NxFoundation@@@@AAEXPAVNxBounds3@@@Z 1014c200 f i ClothMetal.obj
 0001:0014b220       ?popBack@?$NxArray@VNxVec3@@VUserAllocatorAccess@NxFoundation@@@@QAEXXZ 1014c220 f i ClothMetal.obj
 0001:0014b230       ?back@?$NxArray@VNxVec3@@VUserAllocatorAccess@NxFoundation@@@@QAEAAVNxVec3@@XZ 1014c230 f i ClothMetal.obj
 0001:0014b240       ?popBack@?$NxArray@MVUserAllocatorAccess@NxFoundation@@@@QAEXXZ 1014c240 f i ClothMetal.obj
 0001:0014b250       ?back@?$NxArray@MVUserAllocatorAccess@NxFoundation@@@@QAEAAMXZ 1014c250 f i ClothMetal.obj
 0001:0014b260       ??_GNxBounds3@@QAEPAXI@Z   1014c260 f i ClothMetal.obj
 0001:0014b280       ?capacity@?$NxArray@VNxBounds3@@VUserAllocatorAccess@NxFoundation@@@@QBEIXZ 1014c280 f i ClothMetal.obj
 0001:0014b2b0       ?fill@?$NxArray@VNxBounds3@@VUserAllocatorAccess@NxFoundation@@@@AAEXPAVNxBounds3@@IABV2@@Z 1014c2b0 f i ClothMetal.obj
 0001:0014b310       ?copy@?$NxArray@VNxBounds3@@VUserAllocatorAccess@NxFoundation@@@@AAEPAVNxBounds3@@PBV2@0PAV2@@Z 1014c310 f i ClothMetal.obj
 0001:0014b380       ?allocate@?$NxArray@VNxBounds3@@VUserAllocatorAccess@NxFoundation@@@@AAEPAVNxBounds3@@I@Z 1014c380 f i ClothMetal.obj
 0001:0014b3b0       ?getWorldBounds@ClothMetal@@QBEXAAVNxBounds3@@@Z 1014c3b0 f   ClothMetal.obj
 0001:0014b700       ?replaceWithLast@?$NxArray@VNxVec3@@VUserAllocatorAccess@NxFoundation@@@@QAEXI@Z 1014c700 f i ClothMetal.obj
 0001:0014b760       ?replaceWithLast@?$NxArray@MVUserAllocatorAccess@NxFoundation@@@@QAEXI@Z 1014c760 f i ClothMetal.obj
 0001:0014b7a0       ?popBack@?$NxArray@VNxBounds3@@VUserAllocatorAccess@NxFoundation@@@@QAEXXZ 1014c7a0 f i ClothMetal.obj
 0001:0014b7b0       ?erase@?$NxArray@VNxBounds3@@VUserAllocatorAccess@NxFoundation@@@@QAEXPAVNxBounds3@@0@Z 1014c7b0 f i ClothMetal.obj
 0001:0014b850       ?destroy@?$NxArray@VNxBounds3@@VUserAllocatorAccess@NxFoundation@@@@AAEXPAVNxBounds3@@0@Z 1014c850 f i ClothMetal.obj
 0001:0014b860       ?reserve@?$NxArray@VNxBounds3@@VUserAllocatorAccess@NxFoundation@@@@QAEXI@Z 1014c860 f i ClothMetal.obj
 0001:0014b970       ?getCollisionNormal@ClothMetal@@AAE_NAAVNxVec3@@0PAVNvShape@@0@Z 1014c970 f   ClothMetal.obj
 0001:0014bcb0       ?isStrongCollision@ClothMetal@@AAE_NPAVNvShape@@@Z 1014ccb0 f   ClothMetal.obj
 0001:0014beb0       ??1?$NxArray@VNxBounds3@@VUserAllocatorAccess@NxFoundation@@@@QAE@XZ 1014ceb0 f i ClothMetal.obj
 0001:0014bef0       ?replaceWithLast@?$NxArray@VNxBounds3@@VUserAllocatorAccess@NxFoundation@@@@QAEXI@Z 1014cef0 f i ClothMetal.obj
 0001:0014bf70       ?insert@?$NxArray@VNxBounds3@@VUserAllocatorAccess@NxFoundation@@@@QAEXPAVNxBounds3@@IABV2@@Z 1014cf70 f i ClothMetal.obj
 0001:0014c1c0       ??0?$NxArraySDK@VNxBounds3@@@NxFoundation@@QAE@XZ 1014d1c0 f i ClothMetal.obj
 0001:0014c1d0       ??1?$NxArraySDK@VNxBounds3@@@NxFoundation@@QAE@XZ 1014d1d0 f i ClothMetal.obj
 0001:0014c210       ??1ClothMetal@@QAE@XZ      1014d210 f   ClothMetal.obj
 0001:0014c300       ?updateNeeded@ClothMetal@@AAE_NXZ 1014d300 f   ClothMetal.obj
 0001:0014c360       ?timeStep@ClothMetal@@QAEXAA_NAAVNxVec3@@@Z 1014d360 f   ClothMetal.obj
 0001:0014c400       ?resize@?$NxArray@VNxBounds3@@VUserAllocatorAccess@NxFoundation@@@@QAEXIABVNxBounds3@@@Z 1014d400 f i ClothMetal.obj
 0001:0014c520       ??0ClothMetal@@QAE@XZ      1014d520 f   ClothMetal.obj
 0001:0014c5c0       ?updateCompound@ClothMetal@@AAEXPAXII@Z 1014d5c0 f   ClothMetal.obj
 0001:0014e130       ?updateCoreShape@ClothMetal@@QAEXPAXIIM@Z 1014f130 f   ClothMetal.obj
 0001:0014e660       ??1NxParticleData@@QAE@XZ  1014f660 f i ImplicitScreenMesh.obj
 0001:0014e670       ?setToDefault@NxParticleData@@QAEXXZ 1014f670 f i ImplicitScreenMesh.obj
 0001:0014e6b0       ??0NvImplicitScreenMesh@@QAE@XZ 1014f6b0 f i ImplicitScreenMesh.obj
 0001:0014e6c0       ?setParticles@ImplicitScreenMesh@@UAEXAAVNxParticleData@@@Z 1014f6c0 f   ImplicitScreenMesh.obj
 0001:0014e6e0       ?getMeshData@ImplicitScreenMesh@@UAEAAVNxMeshData@@XZ 1014f6e0 f   ImplicitScreenMesh.obj
 0001:0014e6f0       ?setMeshData@ImplicitScreenMesh@@UAEXAAVNxMeshData@@@Z 1014f6f0 f   ImplicitScreenMesh.obj
 0001:0014e720       ?getScreenSpacing@ImplicitScreenMesh@@UBEMXZ 1014f720 f   ImplicitScreenMesh.obj
 0001:0014e730       ?clampSpacing@ImplicitScreenMesh@@AAEMM@Z 1014f730 f   ImplicitScreenMesh.obj
 0001:0014ea70       ?getHierarchyLevels@ImplicitScreenMesh@@UBEIXZ 1014fa70 f   ImplicitScreenMesh.obj
 0001:0014ea80       ?setHierarchyLevels@ImplicitScreenMesh@@UAEXI@Z 1014fa80 f   ImplicitScreenMesh.obj
 0001:0014eab0       ?getParticleRadius@ImplicitScreenMesh@@UBEMXZ 1014fab0 f   ImplicitScreenMesh.obj
 0001:0014eac0       ?setParticleRadius@ImplicitScreenMesh@@UAEXM@Z 1014fac0 f   ImplicitScreenMesh.obj
 0001:0014eae0       ?getThreshold@ImplicitScreenMesh@@UBEMXZ 1014fae0 f   ImplicitScreenMesh.obj
 0001:0014eaf0       ?setThreshold@ImplicitScreenMesh@@UAEXM@Z 1014faf0 f   ImplicitScreenMesh.obj
 0001:0014eb00       ?getDepthSmoothing@ImplicitScreenMesh@@UBEIXZ 1014fb00 f   ImplicitScreenMesh.obj
 0001:0014eb10       ?setDepthSmoothing@ImplicitScreenMesh@@UAEXI@Z 1014fb10 f   ImplicitScreenMesh.obj
 0001:0014eb30       ?getSilhouetteSmoothing@ImplicitScreenMesh@@UBEIXZ 1014fb30 f   ImplicitScreenMesh.obj
 0001:0014eb40       ?setSilhouetteSmoothing@ImplicitScreenMesh@@UAEXI@Z 1014fb40 f   ImplicitScreenMesh.obj
 0001:0014eb60       ?setTriangleWinding@ImplicitScreenMesh@@UAEXE@Z 1014fb60 f   ImplicitScreenMesh.obj
 0001:0014eb80       ?getTriangleWinding@ImplicitScreenMesh@@UBEEXZ 1014fb80 f   ImplicitScreenMesh.obj
 0001:0014eb90       ?getProjectionMatrix@ImplicitScreenMesh@@UBEPBMXZ 1014fb90 f   ImplicitScreenMesh.obj
 0001:0014eba0       ?getWindowWidth@ImplicitScreenMesh@@UBEIXZ 1014fba0 f   ImplicitScreenMesh.obj
 0001:0014ebb0       ?getWindowHeight@ImplicitScreenMesh@@UBEIXZ 1014fbb0 f   ImplicitScreenMesh.obj
 0001:0014ebc0       ?setNpImplicitScreenMesh@ImplicitScreenMesh@@UAEXPAVNpImplicitScreenMesh@@@Z 1014fbc0 f   ImplicitScreenMesh.obj
 0001:0014ebd0       ?getNpImplicitScreenMesh@ImplicitScreenMesh@@UBEPAVNpImplicitScreenMesh@@XZ 1014fbd0 f   ImplicitScreenMesh.obj
 0001:0014ebe0       ?generateMeshIsDone@ImplicitScreenMesh@@UBE_NXZ 1014fbe0 f   ImplicitScreenMesh.obj
 0001:0014ec00       ?unProjectPos@ImplicitScreenMesh@@AAEXABVNxVec3@@AAV2@@Z 1014fc00 f   ImplicitScreenMesh.obj
 0001:0014ed90       ?interpolatePos@ImplicitScreenMesh@@AAEXVNxVec3@@0MMMAAV2@@Z 1014fd90 f   ImplicitScreenMesh.obj
 0001:0014eee0       ?det3x3@@YAMMMMMMMMMM@Z    1014fee0 f   ImplicitScreenMesh.obj
 0001:0014ef40       ?invert44@@YAXPAM0@Z       1014ff40 f   ImplicitScreenMesh.obj
 0001:0014f650       ??0?$NxArray@DVUserAllocatorAccess@NxFoundation@@@@QAE@XZ 10150650 f i ImplicitScreenMesh.obj
 0001:0014f660       ?size@?$NxArray@DVUserAllocatorAccess@NxFoundation@@@@QBEIXZ 10150660 f i ImplicitScreenMesh.obj
 0001:0014f670       ??A?$NxArray@DVUserAllocatorAccess@NxFoundation@@@@QAEAADI@Z 10150670 f i ImplicitScreenMesh.obj
 0001:0014f680       ?begin@?$NxArray@DVUserAllocatorAccess@NxFoundation@@@@QAEPADXZ 10150680 f i ImplicitScreenMesh.obj
 0001:0014f690       ?end@?$NxArray@DVUserAllocatorAccess@NxFoundation@@@@QAEPADXZ 10150690 f i ImplicitScreenMesh.obj
 0001:0014f6a0       ?reallocate@?$NxArray@DVUserAllocatorAccess@NxFoundation@@@@AAEPADIPAD@Z 101506a0 f i ImplicitScreenMesh.obj
 0001:0014f6c0       ?deallocate@?$NxArray@DVUserAllocatorAccess@NxFoundation@@@@AAEXPAD@Z 101506c0 f i ImplicitScreenMesh.obj
 0001:0014f6e0       ?destroy@?$NxArray@DVUserAllocatorAccess@NxFoundation@@@@AAEXPAD0@Z 101506e0 f i ImplicitScreenMesh.obj
 0001:0014f6f0       ?capacity@?$NxArray@DVUserAllocatorAccess@NxFoundation@@@@QBEIXZ 101506f0 f i ImplicitScreenMesh.obj
 0001:0014f710       ?fill@?$NxArray@DVUserAllocatorAccess@NxFoundation@@@@AAEXPADIABD@Z 10150710 f i ImplicitScreenMesh.obj
 0001:0014f740       ?copy@?$NxArray@DVUserAllocatorAccess@NxFoundation@@@@AAEPADPBD0PAD@Z 10150740 f i ImplicitScreenMesh.obj
 0001:0014f770       ?allocate@?$NxArray@DVUserAllocatorAccess@NxFoundation@@@@AAEPADI@Z 10150770 f i ImplicitScreenMesh.obj
 0001:0014f790       ??0NxParticleData@@QAE@XZ  10150790 f i ImplicitScreenMesh.obj
 0001:0014f7d0       ?setProjectionMatrix@ImplicitScreenMesh@@UAEXPBM@Z 101507d0 f   ImplicitScreenMesh.obj
 0001:0014f820       ?getMesh@ImplicitScreenMesh@@UAE_NXZ 10150820 f   ImplicitScreenMesh.obj
 0001:0014fb30       ?addSplat@ImplicitScreenMesh@@AAEXMMMMM@Z 10150b30 f   ImplicitScreenMesh.obj
 0001:0014ff80       ?unprojectVertices@ImplicitScreenMesh@@AAEXXZ 10150f80 f   ImplicitScreenMesh.obj
 0001:0014fff0       ??1?$NxArray@DVUserAllocatorAccess@NxFoundation@@@@QAE@XZ 10150ff0 f i ImplicitScreenMesh.obj
 0001:00150030       ?erase@?$NxArray@DVUserAllocatorAccess@NxFoundation@@@@QAEXPAD0@Z 10151030 f i ImplicitScreenMesh.obj
 0001:00150080       ?reserve@?$NxArray@DVUserAllocatorAccess@NxFoundation@@@@QAEXI@Z 10151080 f i ImplicitScreenMesh.obj
 0001:00150120       ??0?$NxArraySDK@D@NxFoundation@@QAE@XZ 10151120 f i ImplicitScreenMesh.obj
 0001:00150130       ??1?$NxArraySDK@D@NxFoundation@@QAE@XZ 10151130 f i ImplicitScreenMesh.obj
 0001:00150170       ??1ImplicitScreenMesh@@QAE@XZ 10151170 f   ImplicitScreenMesh.obj
 0001:00150410       ?insert@?$NxArray@DVUserAllocatorAccess@NxFoundation@@@@QAEXPADIABD@Z 10151410 f i ImplicitScreenMesh.obj
 0001:00150530       ?resize@?$NxArray@DVUserAllocatorAccess@NxFoundation@@@@QAEXIABD@Z 10151530 f i ImplicitScreenMesh.obj
 0001:001506d0       ?updateDerived@ImplicitScreenMesh@@AAEXXZ 101516d0 f   ImplicitScreenMesh.obj
 0001:00150c30       ?addVertex@ImplicitScreenMesh@@AAEIABVNxVec3@@@Z 10151c30 f   ImplicitScreenMesh.obj
 0001:00150dc0       ?computeNormals@ImplicitScreenMesh@@AAEXXZ 10151dc0 f   ImplicitScreenMesh.obj
 0001:00151460       ?smoothSilhouettes@ImplicitScreenMesh@@AAEXXZ 10152460 f   ImplicitScreenMesh.obj
 0001:00152360       ?smoothWorldMesh@ImplicitScreenMesh@@AAEXXZ 10153360 f   ImplicitScreenMesh.obj
 0001:00153050       ?smoothDepthsBinomial@ImplicitScreenMesh@@AAEXHM@Z 10154050 f   ImplicitScreenMesh.obj
 0001:00154430       ??0ImplicitScreenMesh@@QAE@ABVNvImplicitScreenMeshDesc@@@Z 10155430 f   ImplicitScreenMesh.obj
 0001:001546f0       ?setScreenSpacing@ImplicitScreenMesh@@UAEXM@Z 101556f0 f   ImplicitScreenMesh.obj
 0001:001547a0       ?setWindowWidth@ImplicitScreenMesh@@UAEXI@Z 101557a0 f   ImplicitScreenMesh.obj
 0001:001547f0       ?setWindowHeight@ImplicitScreenMesh@@UAEXI@Z 101557f0 f   ImplicitScreenMesh.obj
 0001:00154840       ?generateRegularMesh@ImplicitScreenMesh@@AAEXXZ 10155840 f   ImplicitScreenMesh.obj
 0001:00155600       ?generateHierarchicalMesh@ImplicitScreenMesh@@AAEXM@Z 10156600 f   ImplicitScreenMesh.obj
 0001:00157270       ?buildSurface@ImplicitScreenMesh@@AAEXIPBMI@Z 10158270 f   ImplicitScreenMesh.obj
 0001:00157630       ?generateMesh@ImplicitScreenMesh@@UAE_NXZ 10158630 f   ImplicitScreenMesh.obj
 0001:00157660       ?isFinite@NxMath@@SA_NM@Z  10158660 f i Actor.obj
 0001:00157690       ??4_Nx3F32@@QAEABU0@ABVNxVec3@@@Z 10158690 f i Actor.obj
 0001:001576b0       ?isFinite@NxVec3@@QBE_NXZ  101586b0 f i Actor.obj
 0001:00157720       ?multiply@NxMat33@@QAEXMABV1@@Z 10158720 f i Actor.obj
 0001:001577a0       ?multiplyTransposeLeft@NxMat33@@QAEXABV1@0@Z 101587a0 f i Actor.obj
 0001:00157910       ?multiplyTransposeRight@NxMat33@@QAEXABV1@0@Z 10158910 f i Actor.obj
 0001:00157a80       ??DNxMat33@@QBE?AV0@M@Z    10158a80 f i Actor.obj
 0001:00157b20       ?multiplyInverseRTLeft@NxMat34@@QAEXABV1@0@Z 10158b20 f i Actor.obj
 0001:00157d10       ?multiplyInverseRTRight@NxMat34@@QAEXABV1@0@Z 10158d10 f i Actor.obj
 0001:00157f00       ?isSphere@NxShape@@QAEPAVNxSphereShape@@XZ 10158f00 f i Actor.obj
 0001:00157f20       ?isBox@NxShape@@QAEPAVNxBoxShape@@XZ 10158f20 f i Actor.obj
 0001:00157f40       ?isCapsule@NxShape@@QAEPAVNxCapsuleShape@@XZ 10158f40 f i Actor.obj
 0001:00157f60       ?getType@NxShapeDesc@@QBE?AW4NxShapeType@@XZ 10158f60 f i Actor.obj
 0001:00157f70       ?getType@NxActorDescBase@@QBE?AW4NxActorDescType@@XZ 10158f70 f i Actor.obj
 0001:00157f80       ?getNpActor@Actor@@QBEPAVNpActor@@XZ 10158f80 f i Actor.obj
 0001:00157f90       ?setBody_API@Actor@@QAEXPAVNvBody@@@Z 10158f90 f i Actor.obj
 0001:00157fa0       ?getShape@Actor@@QBEPAVNvShape@@XZ 10158fa0 f i Actor.obj
 0001:00157fb0       ?getOwnerScene@Actor@@QBEPAVNvScene@@XZ 10158fb0 f i Actor.obj
 0001:00157fc0       ?getStaticActor2World@Actor@@QBEABVNxMat34@@XZ 10158fc0 f i Actor.obj
 0001:00157fd0       ?setWriteLock@ReadWriteMutex@@QAEXPAVNxMutex@@@Z 10158fd0 f i Actor.obj
 0001:00157fe0       ?setReadLock@ReadWriteMutex@@QAEXPAVNxMutex@@@Z 10158fe0 f i Actor.obj
 0001:00157ff0       ?getWriteLock@ReadWriteMutex@@QAEPAVNxMutex@@XZ 10158ff0 f i Actor.obj
 0001:00158000       ?getReadLock@ReadWriteMutex@@QAEPAVNxMutex@@XZ 10159000 f i Actor.obj
 0001:00158010       ?getSimulateCounter@NpScene@@QAEIXZ 10159010 f i Actor.obj
 0001:00158020       ?getDensity@NpShape@@QBEMXZ 10159020 f i Actor.obj
 0001:00158030       ?getMass@NpShape@@QBEMXZ   10159030 f i Actor.obj
 0001:00158040       ?removeObjectName@NpPhysicsSDK@@SA_NPBX@Z 10159040 f i Actor.obj
 0001:00158060       ??0APILock@@QAE@XZ         10159060 f i Actor.obj
 0001:00158070       ??1APILock@@QAE@XZ         10159070 f i Actor.obj
 0001:00158080       ?getCenterOfMass@InertiaTensorComputer@@QBE?AVNxVec3@@XZ 10159080 f i Actor.obj
 0001:001580a0       ?getMass@InertiaTensorComputer@@QBEMXZ 101590a0 f i Actor.obj
 0001:001580b0       ?getInertia@InertiaTensorComputer@@QBE?AVNxMat33@@XZ 101590b0 f i Actor.obj
 0001:001580d0       ?incRef@RefCountable@@QAEXXZ 101590d0 f i Actor.obj
 0001:001580e0       ?getConvexMesh@NpConvexMesh@@QAEPAVNvConvexMesh@@XZ 101590e0 f i Actor.obj
 0001:001580f0       ?getTriangleMesh@NpTriangleMesh@@QAEPAVNvTriangleMesh@@XZ 101590f0 f i Actor.obj
 0001:00158100       ?getNvSkeleton@NpCCDSkeleton@@QAEPAVNvCCDSkeleton@@XZ 10159100 f i Actor.obj
 0001:00158110       ?getHeightField@NpHeightField@@QAEPAVNvHeightField@@XZ 10159110 f i Actor.obj
 0001:00158120       ??0Actor@@QAE@PAVNvScene@@@Z 10159120 f   Actor.obj
 0001:00158180       ??1Actor@@QAE@XZ           10159180 f   Actor.obj
 0001:00158250       ??0NvBodyDesc@@QAE@XZ      10159250 f i Actor.obj
 0001:00158260       ??0NvShapeDesc@@QAE@XZ     10159260 f i Actor.obj
 0001:00158270       ??1NvShapeDesc@@QAE@XZ     10159270 f i Actor.obj
 0001:00158280       ?getNbShapes@Actor@@QBEIXZ 10159280 f   Actor.obj
 0001:001582c0       ?getShapes@Actor@@QAEPAPAVNvShape@@XZ 101592c0 f   Actor.obj
 0001:00158300       ?getNxShapes@Actor@@QBEPAPAVNxShape@@XZ 10159300 f   Actor.obj
 0001:00158320       ?getDimsFromBodyInertia@Actor@@ABEXABVNxVec3@@MAAV2@@Z 10159320 f   Actor.obj
 0001:00158380       ?releaseShape_API@Actor@@QAEXAAVNvShape@@@Z 10159380 f   Actor.obj
 0001:001585f0       ?setPublicFlags_API@Actor@@QAEXI@Z 101595f0 f   Actor.obj
 0001:00158610       ?massFromShapes_API@Actor@@QAEIMAAMAAVNxMat34@@AAVNxVec3@@I@Z 10159610 f   Actor.obj
 0001:001589a0       ?setGroup_API@Actor@@QAEXG@Z 101599a0 f   Actor.obj
 0001:001589d0       ?getActor2WorldP@Actor@@QBE?AVNxVec3@@XZ 101599d0 f   Actor.obj
 0001:00158a20       ?getActor2WorldQ@Actor@@QBE?AVNxQuat@@XZ 10159a20 f   Actor.obj
 0001:00158c40       ?transformActor2WorldSpace_API@Actor@@QBE?AVNxVec3@@ABV2@@Z 10159c40 f   Actor.obj
 0001:00158dc0       ?transformActor2WorldSpaceDirection_API@Actor@@QBE?AVNxVec3@@ABV2@@Z 10159dc0 f   Actor.obj
 0001:00158f00       ?setCMassGlobalPose@Actor@@QAEXABVNxMat34@@@Z 10159f00 f   Actor.obj
 0001:00159500       ?invertDiagInertia@Actor@@SA?AVNxVec3@@ABV2@@Z 1015a500 f   Actor.obj
 0001:001595f0       ?forceToSleep@Actor@@QAEX_N@Z 1015a5f0 f   Actor.obj
 0001:00159620       ?isForcedToSleep@Actor@@QAE_NXZ 1015a620 f   Actor.obj
 0001:00159650       ?size@?$NxArray@PAVNxShapeDesc@@VNxAllocatorDefault@@@@QBEIXZ 1015a650 f i Actor.obj
 0001:00159660       ?begin@?$NxArray@PAVNxShapeDesc@@VNxAllocatorDefault@@@@QBEPBQAVNxShapeDesc@@XZ 1015a660 f i Actor.obj
 0001:00159670       ?size@?$NxArray@PAVNxShapeDesc@@VUserAllocatorAccess@NxFoundation@@@@QBEIXZ 1015a670 f i Actor.obj
 0001:00159680       ?begin@?$NxArray@PAVNxShapeDesc@@VUserAllocatorAccess@NxFoundation@@@@QBEPBQAVNxShapeDesc@@XZ 1015a680 f i Actor.obj
 0001:00159690       ?shapeFactory@Actor@@AAEPAVNvShape@@ABVNxShapeDesc@@@Z 1015a690 f   Actor.obj
 0001:0015a5f0       ?getActor2World_API@Actor@@QBE?AVNxMat34@@XZ 1015b5f0 f   Actor.obj
 0001:0015a750       ?computeKineticEnergy_API@Actor@@QBEMXZ 1015b750 f   Actor.obj
 0001:0015a830       ?getBody2WorldOrient_API@Actor@@QBE?AVNxMat33@@XZ 1015b830 f   Actor.obj
 0001:0015aa50       ?getBody2World@Actor@@QBE?AVNxMat34@@XZ 1015ba50 f   Actor.obj
 0001:0015ace0       ?prepareStaticShape2WorldsOnActor2WorldChange@Actor@@QAEXABVNxMat34@@@Z 1015bce0 f   Actor.obj
 0001:0015b880       ?wakeUp@Actor@@QAEXXZ      1015c880 f   Actor.obj
 0001:0015b8d0       ?loadFromDesc_API@Actor@@QAEHABVNxActorDescBase@@@Z 1015c8d0 f   Actor.obj
 0001:0015c740       ?visualize@Actor@@QAEXAAVDebugRenderable@NxFoundation@@@Z 1015d740 f   Actor.obj
 0001:0015cdf0       ?createShape_API@Actor@@QAEPAVNvShape@@ABVNxShapeDesc@@@Z 1015ddf0 f   Actor.obj
 0001:0015d050       ?linearSweep@Actor@@UAEIABVNxVec3@@IPAXIPAUNxSweepQueryHit@@PAV?$NxUserEntityReport@UNxSweepQueryHit@@@@PBVNxSweepCache@@@Z 1015e050 f   Actor.obj
 0001:0015d9f0       ?open@CallTimer@@QAE_NPAD_N@Z 1015e9f0 f   CallTimer.obj
 0001:0015da70       ?close@CallTimer@@QAE_NXZ  1015ea70 f   CallTimer.obj
 0001:0015dab0       ?stop@CallTimer@@QAENXZ    1015eab0 f   CallTimer.obj
 0001:0015dae0       ?write@CallTimer@@QAEXXZ   1015eae0 f   CallTimer.obj
 0001:0015db00       ??1CallTimer@@QAE@XZ       1015eb00 f   CallTimer.obj
 0001:0015db30       ?begin@DeterminismDebugger@@SAXXZ 1015eb30 f   DeterminismDebugger.obj
 0001:0015db40       ?end@DeterminismDebugger@@SAXXZ 1015eb40 f   DeterminismDebugger.obj
 0001:0015db50       ?value@DeterminismDebugger@@SAXI@Z 1015eb50 f   DeterminismDebugger.obj
 0001:0015db60       ?convert@ProfilerClock@NxFoundation@@SA_K_K@Z 1015eb60 f i HardwareAbstraction.obj
 0001:0015db90       ?getOwnerScene@SceneManager@@QAEPAVNpScene@@XZ 1015eb90 f i HardwareAbstraction.obj
 0001:0015dba0       ?onEndSimulate@MirrorManager@@QAEXXZ 1015eba0 f i HardwareAbstraction.obj
 0001:0015dbb0       ?setName@MetaZone@@QAEXPBD@Z 1015ebb0 f i HardwareAbstraction.obj
 0001:0015dbc0       ?getFlags@NpScene@@QAEIXZ  1015ebc0 f i HardwareAbstraction.obj
 0001:0015dbd0       ?getTypeFast@NpCompartment@@QBE?AW4NxCompartmentType@@XZ 1015ebd0 f i HardwareAbstraction.obj
 0001:0015dbe0       ?initialize@HardwareAbstraction@@QAEXPAVNpScene@@@Z 1015ebe0 f   HardwareAbstraction.obj
 0001:0015dc10       ?shutDown@HardwareAbstraction@@QAEXXZ 1015ec10 f   HardwareAbstraction.obj
 0001:0015dc20       ?onStartSim@HardwareAbstraction@@QAEXXZ 1015ec20 f   HardwareAbstraction.obj
 0001:0015dc60       ?onFetchResults@HardwareAbstraction@@QAEXXZ 1015ec60 f   HardwareAbstraction.obj
 0001:0015dcb0       ?onSwapBuffers@HardwareAbstraction@@QAEXXZ 1015ecb0 f   HardwareAbstraction.obj
 0001:0015dcc0       ?onSimulate@HardwareAbstraction@@QAEXMI@Z 1015ecc0 f   HardwareAbstraction.obj
 0001:0015dd30       ?endSimulate@HardwareAbstraction@@QAEXXZ 1015ed30 f   HardwareAbstraction.obj
 0001:0015dd80       ?onReleaseActor@HardwareAbstraction@@QAEXAAVNpActor@@@Z 1015ed80 f   HardwareAbstraction.obj
 0001:0015ddb0       ?onReleaseShape@HardwareAbstraction@@QAEXAAVNpShape@@@Z 1015edb0 f   HardwareAbstraction.obj
 0001:0015dde0       ?visualize@HardwareAbstraction@@QAEXAAVDebugRenderable@NxFoundation@@@Z 1015ede0 f   HardwareAbstraction.obj
 0001:0015de10       ?createFluid@HardwareAbstraction@@QAEPAVNvFluid@@PAVNxCompartment@@ABVNvFluidDesc@@@Z 1015ee10 f   HardwareAbstraction.obj
 0001:0015dec0       ?releaseFluid@HardwareAbstraction@@QAEXPAVNvFluid@@@Z 1015eec0 f   HardwareAbstraction.obj
 0001:0015df10       ?cookFluidMeshHotspot@HardwareAbstraction@@QAE_NABVNvFluidMeshCookingDesc@@@Z 1015ef10 f   HardwareAbstraction.obj
 0001:0015df50       ?createCloth@HardwareAbstraction@@QAEPAVNvCloth@@ABVNxClothDesc@@@Z 1015ef50 f   HardwareAbstraction.obj
 0001:0015e0b0       ?releaseCloth@HardwareAbstraction@@QAEXPAVNvCloth@@@Z 1015f0b0 f   HardwareAbstraction.obj
 0001:0015e100       ?getHardwareSceneForNewActor@HardwareAbstraction@@QAEPAVNvScene@@ABVNxActorDescBase@@@Z 1015f100 f   HardwareAbstraction.obj
 0001:0015e160       ?onCreateMaterial@HardwareAbstraction@@QAEXABVNxMaterialDesc@@@Z 1015f160 f   HardwareAbstraction.obj
 0001:0015e170       ?onReleaseMaterial@HardwareAbstraction@@QAEXG@Z 1015f170 f   HardwareAbstraction.obj
 0001:0015e180       ?onChangeMaterial@HardwareAbstraction@@QAEXGABVNxMaterialDesc@@@Z 1015f180 f   HardwareAbstraction.obj
 0001:0015e190       ?raycastAnyBounds@HardwareAbstraction@@QBE_NABVNxRay@@W4NxShapesType@@IMPBVNxGroupsMask@@@Z 1015f190 f   HardwareAbstraction.obj
 0001:0015e1a0       ?raycastAnyShape@HardwareAbstraction@@QBE_NABVNxRay@@W4NxShapesType@@IMPBVNxGroupsMask@@@Z 1015f1a0 f   HardwareAbstraction.obj
 0001:0015e1b0       ?raycastAllBounds@HardwareAbstraction@@QBEIABVNxRay@@AAVNxUserRaycastReport@@W4NxShapesType@@IMIPBVNxGroupsMask@@@Z 1015f1b0 f   HardwareAbstraction.obj
 0001:0015e1c0       ?raycastAllShapes@HardwareAbstraction@@QBEIABVNxRay@@AAVNxUserRaycastReport@@W4NxShapesType@@IMIPBVNxGroupsMask@@@Z 1015f1c0 f   HardwareAbstraction.obj
 0001:0015e1d0       ?raycastClosestBounds@HardwareAbstraction@@QBEPAVNvShape@@ABVNxRay@@W4NxShapesType@@AAUNxRaycastHit@@IMIPBVNxGroupsMask@@PAV2@@Z 1015f1d0 f   HardwareAbstraction.obj
 0001:0015e1e0       ?raycastClosestShape@HardwareAbstraction@@QBEPAVNvShape@@ABVNxRay@@W4NxShapesType@@AAUNxRaycastHit@@IMIPBVNxGroupsMask@@PAV2@@Z 1015f1e0 f   HardwareAbstraction.obj
 0001:0015e1f0       ?overlapSphereShapes@HardwareAbstraction@@QAEIABVNxSphere@@W4NxShapesType@@IPAPAVNxShape@@PAV?$NxUserEntityReport@PAVNxShape@@@@IPBVNxGroupsMask@@_NI@Z 1015f1f0 f   HardwareAbstraction.obj
 0001:0015e200       ?overlapAABBShapes@HardwareAbstraction@@QAEIABVNxBounds3@@W4NxShapesType@@IPAPAVNxShape@@PAV?$NxUserEntityReport@PAVNxShape@@@@IPBVNxGroupsMask@@_NI@Z 1015f200 f   HardwareAbstraction.obj
 0001:0015e210       ?overlapOBBShapes@HardwareAbstraction@@QAEIABVNxBox@@W4NxShapesType@@IPAPAVNxShape@@PAV?$NxUserEntityReport@PAVNxShape@@@@IPBVNxGroupsMask@@_NI@Z 1015f210 f   HardwareAbstraction.obj
 0001:0015e220       ?overlapCapsuleShapes@HardwareAbstraction@@QAEIABVNxCapsule@@W4NxShapesType@@IPAPAVNxShape@@PAV?$NxUserEntityReport@PAVNxShape@@@@IPBVNxGroupsMask@@_NI@Z 1015f220 f   HardwareAbstraction.obj
 0001:0015e230       ?cullShapes@HardwareAbstraction@@QAEIIPBVNxPlane@@W4NxShapesType@@IPAPAVNxShape@@PAV?$NxUserEntityReport@PAVNxShape@@@@IPBVNxGroupsMask@@I@Z 1015f230 f   HardwareAbstraction.obj
 0001:0015e240       ?getNbStaticShapes@HardwareAbstraction@@QBEIXZ 1015f240 f   HardwareAbstraction.obj
 0001:0015e250       ?getNbDynamicShapes@HardwareAbstraction@@QBEIXZ 1015f250 f   HardwareAbstraction.obj
 0001:0015e260       ?getTotalNbShapes@HardwareAbstraction@@QBEIXZ 1015f260 f   HardwareAbstraction.obj
 0001:0015e270       ?checkOverlapSphere@HardwareAbstraction@@QAE_NABVNxSphere@@W4NxShapesType@@IPBVNxGroupsMask@@@Z 1015f270 f   HardwareAbstraction.obj
 0001:0015e280       ?checkOverlapAABB@HardwareAbstraction@@QAE_NABVNxBounds3@@W4NxShapesType@@IPBVNxGroupsMask@@@Z 1015f280 f   HardwareAbstraction.obj
 0001:0015e290       ?checkOverlapOBB@HardwareAbstraction@@QAE_NABVNxBox@@W4NxShapesType@@IPBVNxGroupsMask@@@Z 1015f290 f   HardwareAbstraction.obj
 0001:0015e2a0       ?checkOverlapCapsule@HardwareAbstraction@@QAE_NABVNxCapsule@@W4NxShapesType@@IPBVNxGroupsMask@@@Z 1015f2a0 f   HardwareAbstraction.obj
 0001:0015e2b0       ?setGroupCollisionFlag@HardwareAbstraction@@QAEXGG_N@Z 1015f2b0 f   HardwareAbstraction.obj
 0001:0015e2c0       ?setActorGroupPairFlags@HardwareAbstraction@@QAEXGGI@Z 1015f2c0 f   HardwareAbstraction.obj
 0001:0015e2d0       ?setFilterOps@HardwareAbstraction@@QAEXW4NxFilterOp@@00@Z 1015f2d0 f   HardwareAbstraction.obj
 0001:0015e2e0       ?setFilterBool@HardwareAbstraction@@QAEX_N@Z 1015f2e0 f   HardwareAbstraction.obj
 0001:0015e2f0       ?setFilterConstant0@HardwareAbstraction@@QAEXABVNxGroupsMask@@@Z 1015f2f0 f   HardwareAbstraction.obj
 0001:0015e300       ?setFilterConstant1@HardwareAbstraction@@QAEXABVNxGroupsMask@@@Z 1015f300 f   HardwareAbstraction.obj
 0001:0015e310       ?getNbJoints@HardwareAbstraction@@QBEIXZ 1015f310 f   HardwareAbstraction.obj
 0001:0015e320       ?getJointList@HardwareAbstraction@@QAEPAVNvJoint@@XZ 1015f320 f   HardwareAbstraction.obj
 0001:0015e330       ?getNextJointList@HardwareAbstraction@@QAEPAVNvJoint@@XZ 1015f330 f   HardwareAbstraction.obj
 0001:0015e340       ?purgeJoints@HardwareAbstraction@@QAEXXZ 1015f340 f   HardwareAbstraction.obj
 0001:0015e350       ?setUserTriggerReport@HardwareAbstraction@@QAEXPAVNxUserTriggerReport@@@Z 1015f350 f   HardwareAbstraction.obj
 0001:0015e360       ?setUserContactReport@HardwareAbstraction@@QAEXPAVNxUserContactReport@@@Z 1015f360 f   HardwareAbstraction.obj
 0001:0015e370       ?getNbPairs@HardwareAbstraction@@QBEIXZ 1015f370 f   HardwareAbstraction.obj
 0001:0015e380       ?getPairFlagArray@HardwareAbstraction@@QBEIPAVNxPairFlag@@I@Z 1015f380 f   HardwareAbstraction.obj
 0001:0015e390       ?createCompartment@HardwareAbstraction@@QAEPAVNxCompartment@@ABVNxCompartmentDesc@@@Z 1015f390 f   HardwareAbstraction.obj
 0001:0015e3a0       ?getNbCompartments@HardwareAbstraction@@QBEIXZ 1015f3a0 f   HardwareAbstraction.obj
 0001:0015e3b0       ?getCompartmentArray@HardwareAbstraction@@QBEIPAPAVNxCompartment@@IAAI@Z 1015f3b0 f   HardwareAbstraction.obj
 0001:0015e3c0       ?getNamedZone@HardwareAbstraction@@QBEPBVNxProfileZone@@W4NxProfileZoneName@@@Z 1015f3c0 f   HardwareAbstraction.obj
 0001:0015e410       ?reset@MetaZone@@QAEXXZ    1015f410 f   HardwareAbstraction.obj
 0001:0015e430       ?noteSceneProfile@MetaZone@@QAEXAAVNxProfileZone@@@Z 1015f430 f   HardwareAbstraction.obj
 0001:0015e460       ?size@?$NxArray@VNxProfileZone@@VUserAllocatorAccess@NxFoundation@@@@QBEIXZ 1015f460 f i HardwareAbstraction.obj
 0001:0015e480       ?capacity@?$NxArray@VNxProfileZone@@VUserAllocatorAccess@NxFoundation@@@@QBEIXZ 1015f480 f i HardwareAbstraction.obj
 0001:0015e4b0       ?copy@?$NxArray@VNxProfileZone@@VUserAllocatorAccess@NxFoundation@@@@AAEPAVNxProfileZone@@PBV2@0PAV2@@Z 1015f4b0 f i HardwareAbstraction.obj
 0001:0015e510       ?allocate@?$NxArray@VNxProfileZone@@VUserAllocatorAccess@NxFoundation@@@@AAEPAVNxProfileZone@@I@Z 1015f510 f i HardwareAbstraction.obj
 0001:0015e540       ?noteSceneProfile@HardwareAbstraction@@QAEXPAVNvScene@@AAVNxProfileZone@@@Z 1015f540 f   HardwareAbstraction.obj
 0001:0015e5d0       ?clearMetaZones@HardwareAbstraction@@QAEXXZ 1015f5d0 f   HardwareAbstraction.obj
 0001:0015e690       ??0MetaZone@@QAE@XZ        1015f690 f   HardwareAbstraction.obj
 0001:0015e6b0       ?reserve@?$NxArray@VNxProfileZone@@VUserAllocatorAccess@NxFoundation@@@@QAEXI@Z 1015f6b0 f i HardwareAbstraction.obj
 0001:0015e7d0       ?pushBack@?$NxArray@VNxProfileZone@@VUserAllocatorAccess@NxFoundation@@@@QAEXABVNxProfileZone@@@Z 1015f7d0 f i HardwareAbstraction.obj
 0001:0015e950       ?fetchMetaZones@HardwareAbstraction@@QAEXAAV?$NxArraySDK@VNxProfileZone@@@NxFoundation@@_N@Z 1015f950 f   HardwareAbstraction.obj
 0001:0015ee30       ??0HardwareAbstraction@@QAE@XZ 1015fe30 f   HardwareAbstraction.obj
 0001:0015f1f0       ??1HardwareAbstraction@@QAE@XZ 101601f0 f   HardwareAbstraction.obj
 0001:0015f270       ?diagonal@NxMat33@@QAEXABVNxVec3@@@Z 10160270 f i InertiaTensor.obj
 0001:0015f2b0       ?subtract@NxMat33@@QAEXABV1@0@Z 101602b0 f i InertiaTensor.obj
 0001:0015f320       ??YNxMat33@@QAEABV0@ABV0@@Z 10160320 f i InertiaTensor.obj
 0001:0015f390       ??XNxMat33@@QAEABV0@M@Z    10160390 f i InertiaTensor.obj
 0001:0015f410       ??GNxMat33@@QBE?AV0@ABV0@@Z 10160410 f i InertiaTensor.obj
 0001:0015f4b0       ?volume@@YAMABVNxVec3@@@Z  101604b0 f i InertiaTensor.obj
 0001:0015f4f0       ?computeSphereRatio@@YAMM@Z 101604f0 f i InertiaTensor.obj
 0001:0015f510       ?NpComputeSphereMass@@YAMMM@Z 10160510 f   InertiaTensor.obj
 0001:0015f530       ?NpComputeSphereDensity@@YAMMM@Z 10160530 f   InertiaTensor.obj
 0001:0015f550       ?computeBoxRatio@@YAMABVNxVec3@@@Z 10160550 f i InertiaTensor.obj
 0001:0015f590       ?NpComputeBoxMass@@YAMABVNxVec3@@M@Z 10160590 f   InertiaTensor.obj
 0001:0015f5d0       ?NpComputeBoxDensity@@YAMABVNxVec3@@M@Z 101605d0 f   InertiaTensor.obj
 0001:0015f610       ?computeEllipsoidRatio@@YAMABVNxVec3@@@Z 10160610 f i InertiaTensor.obj
 0001:0015f650       ?NpComputeEllipsoidMass@@YAMABVNxVec3@@M@Z 10160650 f   InertiaTensor.obj
 0001:0015f690       ?NpComputeEllipsoidDensity@@YAMABVNxVec3@@M@Z 10160690 f   InertiaTensor.obj
 0001:0015f6d0       ?computeCylinderRatio@@YAMMM@Z 101606d0 f i InertiaTensor.obj
 0001:0015f6f0       ?NpComputeCylinderMass@@YAMMMM@Z 101606f0 f   InertiaTensor.obj
 0001:0015f710       ?NpComputeCylinderDensity@@YAMMMM@Z 10160710 f   InertiaTensor.obj
 0001:0015f730       ?computeConeRatio@@YAMMM@Z 10160730 f i InertiaTensor.obj
 0001:0015f750       ?NpComputeConeMass@@YAMMMM@Z 10160750 f   InertiaTensor.obj
 0001:0015f770       ?NpComputeConeDensity@@YAMMMM@Z 10160770 f   InertiaTensor.obj
 0001:0015f790       ?NpComputeBoxInertiaTensor@@YAXAAVNxVec3@@MMMM@Z 10160790 f   InertiaTensor.obj
 0001:0015f7f0       ?NpComputeSphereInertiaTensor@@YAXAAVNxVec3@@MM_N@Z 101607f0 f   InertiaTensor.obj
 0001:0015f840       ??0InertiaTensorComputer@@QAE@ABVNxMat33@@ABVNxVec3@@M@Z 10160840 f   InertiaTensor.obj
 0001:0015f880       ??1InertiaTensorComputer@@QAE@XZ 10160880 f   InertiaTensor.obj
 0001:0015f890       ?zero@InertiaTensorComputer@@QAEXXZ 10160890 f   InertiaTensor.obj
 0001:0015f8d0       ?setDiagonal@InertiaTensorComputer@@QAEXMABVNxVec3@@@Z 101608d0 f   InertiaTensor.obj
 0001:0015f920       ?setBox@InertiaTensorComputer@@QAEXABVNxVec3@@@Z 10160920 f   InertiaTensor.obj
 0001:0015fa10       ?rotate@InertiaTensorComputer@@QAEXABVNxMat33@@@Z 10160a10 f   InertiaTensor.obj
 0001:0015fbf0       ?translate@InertiaTensorComputer@@QAEXABVNxVec3@@@Z 10160bf0 f   InertiaTensor.obj
 0001:0015fe40       ?transform@InertiaTensorComputer@@QAEXABVNxMat34@@@Z 10160e40 f   InertiaTensor.obj
 0001:0015fe70       ?setBox@InertiaTensorComputer@@QAEXABVNxVec3@@PBVNxMat34@@@Z 10160e70 f   InertiaTensor.obj
 0001:0015feb0       ?scaleDensity@InertiaTensorComputer@@QAEXM@Z 10160eb0 f   InertiaTensor.obj
 0001:0015ff30       ?add@InertiaTensorComputer@@QAEXABV1@@Z 10160f30 f   InertiaTensor.obj
 0001:00160050       ?center@InertiaTensorComputer@@QAEXXZ 10161050 f   InertiaTensor.obj
 0001:00160090       ?setSphere@InertiaTensorComputer@@QAEXM@Z 10161090 f   InertiaTensor.obj
 0001:00160100       ?setSphere@InertiaTensorComputer@@QAEXMPBVNxMat34@@@Z 10161100 f   InertiaTensor.obj
 0001:00160190       ?setCylinder@InertiaTensorComputer@@QAEXHMM@Z 10161190 f   InertiaTensor.obj
 0001:00160280       ?setCylinder@InertiaTensorComputer@@QAEXHMMPBVNxMat34@@@Z 10161280 f   InertiaTensor.obj
 0001:001602d0       ?setEllipsoid@InertiaTensorComputer@@QAEXMMM@Z 101612d0 f   InertiaTensor.obj
 0001:001603d0       ?setEllipsoid@InertiaTensorComputer@@QAEXMMMPBVNxMat34@@@Z 101613d0 f   InertiaTensor.obj
 0001:00160420       ??0InertiaTensorComputer@@QAE@_N@Z 10161420 f   InertiaTensor.obj
 0001:00160470       ?addBox@InertiaTensorComputer@@QAEXMABVNxVec3@@PBVNxMat34@@@Z 10161470 f   InertiaTensor.obj
 0001:00160500       ?addSphere@InertiaTensorComputer@@QAEXMMPBVNxMat34@@@Z 10161500 f   InertiaTensor.obj
 0001:00160570       ?addCylinder@InertiaTensorComputer@@QAEXMHMMPBVNxMat34@@@Z 10161570 f   InertiaTensor.obj
 0001:00160610       ?addEllipsoid@InertiaTensorComputer@@QAEXMMMMPBVNxMat34@@@Z 10161610 f   InertiaTensor.obj
 0001:001606b0       ?NpBoxBoxIntersect@@YA_NABVNxVec3@@0ABVNxMat33@@001_N@Z 101616b0 f   IntersectionBoxBox.obj
 0001:001606c0       ?NpSeparatingAxis@@YA?AW4NxSepAxis@@ABVNxVec3@@0ABVNxMat33@@001_N@Z 101616c0 f   IntersectionBoxBox.obj
 0001:00160dd0       ?NpSegmentPlaneIntersect@@YAXABVNxVec3@@0ABVNxPlane@@AAMAAV1@@Z 10161dd0 f   IntersectionRayPlane.obj
 0001:00160de0       ?NpRayPlaneIntersect@@YA_NABVNxRay@@ABVNxPlane@@AAMAAVNxVec3@@@Z 10161de0 f   IntersectionRayPlane.obj
 0001:00160df0       ?NpRaySphereIntersect@@YA_NABVNxVec3@@0M0MAAMAAV1@@Z 10161df0 f   IntersectionRaySphere.obj
 0001:00160e00       ?NpRayTriIntersect@@YA_NABVNxVec3@@0000AAM11_N@Z 10161e00 f   IntersectionRayTriangle.obj
 0001:001611e0       ?NpRayCapsuleIntersect@@YAIABVNxVec3@@0ABVNxCapsule@@QAM@Z 101621e0 f   IntersectionSegmentCapsule.obj
 0001:001611f0       ?quadraticFormula@@YA_NMMMAAM0@Z 101621f0 f i IntersectionSweptSpheres.obj
 0001:00161270       ?sphereSphereSweep@@YA_NMABVNxVec3@@0M00AAM1@Z 10162270 f i IntersectionSweptSpheres.obj
 0001:00161470       ?NpSweptSpheresIntersect@@YA_NABVNxSphere@@ABVNxVec3@@01@Z 10162470 f   IntersectionSweptSpheres.obj
 0001:00161690       ?hash@NxMath@@SAIPBII@Z    10162690 f i MirrorManager.obj
 0001:001617f0       ??8NxVec3@@QBE_NABV0@@Z    101627f0 f i MirrorManager.obj
 0001:00161840       ?NxGetThreadId@@YAIXZ      10162840 f i MirrorManager.obj
 0001:00161850       ??0NxSpinMutex@@QAE@XZ     10162850 f i MirrorManager.obj
 0001:00161870       ??1NxSpinMutex@@QAE@XZ     10162870 f i MirrorManager.obj
 0001:00161880       ??0CachedMesh@MirrorManager@@QAE@PAVNvRawTriangleMesh@@W4NxShapeType@@ABVNxVec3@@I@Z 10162880 f i MirrorManager.obj
 0001:001618c0       ??0PermanentlyMirroredShape@MirrorManager@@QAE@XZ 101628c0 f i MirrorManager.obj
 0001:001618d0       ?getHardwareSDK@NpPhysicsSDK@@QAEPAVNvPhysicsSDK@@XZ 101628d0 f i MirrorManager.obj
 0001:001618e0       ?getSoftwareSDK@NpPhysicsSDK@@QAEPAVNvPhysicsSDK@@XZ 101628e0 f i MirrorManager.obj
 0001:001618f0       ?setToDefault@NxBodyDesc@@QAEXXZ 101628f0 f i MirrorManager.obj
 0001:001619a0       ??0NxActorDescBase@@QAE@XZ 101629a0 f i MirrorManager.obj
 0001:001619c0       ?setToDefault@NxActorDescBase@@QAEXXZ 101629c0 f i MirrorManager.obj
 0001:00161a20       ??1NxActorDescBase@@QAE@XZ 10162a20 f i MirrorManager.obj
 0001:00161a30       ?getActorPublicFlags@Actor@@QBEIXZ 10162a30 f i MirrorManager.obj
 0001:00161a40       ?getGroup@Actor@@QBEGXZ    10162a40 f i MirrorManager.obj
 0001:00161a50       ?getMirrorInfo@Actor@@QBEPAXXZ 10162a50 f i MirrorManager.obj
 0001:00161a60       ?setMirrorInfo@Actor@@QAEXPAX@Z 10162a60 f i MirrorManager.obj
 0001:00161a70       ?getNpActor@NpShape@@QBEPAVNpActor@@XZ 10162a70 f i MirrorManager.obj
 0001:00161a80       ?getNvShape@NpShape@@QAEPAVNvShape@@XZ 10162a80 f i MirrorManager.obj
 0001:00161a90       ??1FluidTri@@QAE@XZ        10162a90 f i MirrorManager.obj
 0001:00161ac0       ?addTri@FluidTri@@QAE_NPBM00@Z 10162ac0 f i MirrorManager.obj
 0001:00161db0       ?getBounds@FluidTri@@QAEABVNxBounds3@@XZ 10162db0 f i MirrorManager.obj
 0001:00161dc0       ?getVcount@FluidTri@@QBEIXZ 10162dc0 f i MirrorManager.obj
 0001:00161dd0       ?getVertices@FluidTri@@QBEPBMXZ 10162dd0 f i MirrorManager.obj
 0001:00161de0       ?maxExceeded@FluidTri@@QBE_NXZ 10162de0 f i MirrorManager.obj
 0001:00161df0       ??0NvMirrorManager@@QAE@XZ 10162df0 f i MirrorManager.obj
 0001:00161e00       ??0NvUserRawBoundsReport@@QAE@XZ 10162e00 f i MirrorManager.obj
 0001:00161e10       ?freeShape@MirrorManager@@AAEXPAVNvShape@@@Z 10162e10 f   MirrorManager.obj
 0001:00161e80       ?initialize@MirrorManager@@QAEXPAVNpScene@@@Z 10162e80 f   MirrorManager.obj
 0001:00161eb0       ??1BoundsMirror@MirrorManager@@QAE@XZ 10162eb0 f i MirrorManager.obj
 0001:00161ec0       ?updateAABBs@MirrorManager@@UAEXAAVNvMirrorManagerClient@@PBVNxBounds3@@I1IAAI@Z 10162ec0 f   MirrorManager.obj
 0001:00161f20       ?hashBounds@MirrorManager@@AAEIABVNxBounds3@@@Z 10162f20 f   MirrorManager.obj
 0001:00162050       ?onNewHardwareObject@MirrorManager@@QAEXPAVNvScene@@PAVNvMirrorManagerClient@@AAVNxBounds3@@@Z 10163050 f   MirrorManager.obj
 0001:00162060       ?instanceCommon@MirrorManager@@AAEXAAVNvShapeDesc@@PAVNvShape@@PAUDynamicMirror@1@AAUBoundsMirror@1@PAVNvBody@@@Z 10163060 f   MirrorManager.obj
 0001:001621c0       ?instanceCapsule@MirrorManager@@AAEXPAVNvShape@@PAUDynamicMirror@1@AAUBoundsMirror@1@PAVNvBody@@@Z 101631c0 f   MirrorManager.obj
 0001:00162270       ?instancePlane@MirrorManager@@AAEXPAVNvShape@@PAUDynamicMirror@1@AAUBoundsMirror@1@@Z 10163270 f   MirrorManager.obj
 0001:00162310       ?instanceBox@MirrorManager@@AAEXPAVNvShape@@PAUDynamicMirror@1@AAUBoundsMirror@1@PAVNvBody@@@Z 10163310 f   MirrorManager.obj
 0001:001623a0       ?instanceMesh@MirrorManager@@AAEXPAVNvShape@@PAUDynamicMirror@1@AAUBoundsMirror@1@PAVNvBody@@@Z 101633a0 f   MirrorManager.obj
 0001:00162440       ?instanceConvex@MirrorManager@@AAEXPAVNvShape@@PAUDynamicMirror@1@AAUBoundsMirror@1@PAVNvBody@@@Z 10163440 f   MirrorManager.obj
 0001:001624d0       ?instanceCompound@MirrorManager@@AAEXAAUBoundsMirror@1@PAUDynamicMirror@1@PAVNvBody@@I@Z 101634d0 f   MirrorManager.obj
 0001:001625b0       ?instanceHeightField@MirrorManager@@AAEXPAVNvShape@@PAUDynamicMirror@1@AAUBoundsMirror@1@PAVNvBody@@@Z 101635b0 f   MirrorManager.obj
 0001:001626a0       ??1NxBodyDesc@@QAE@XZ      101636a0 f i MirrorManager.obj
 0001:001626b0       ?printDebugReport@MirrorManager@@AAEXXZ 101636b0 f   MirrorManager.obj
 0001:001626c0       ?mirrorActorRelease@MirrorManager@@AAE_NPAVNpActor@@@Z 101636c0 f   MirrorManager.obj
 0001:001626d0       ?emitStaticMeshPlane@MirrorManager@@AAE_NAAVNvShape@@PAVFluidTri@@@Z 101636d0 f   MirrorManager.obj
 0001:00162950       ?transferImpulse@MirrorManager@@AAEXPAVActor@@PAVNvBody@@1M@Z 10163950 f   MirrorManager.obj
 0001:00162b60       ?mirrorPose@MirrorManager@@AAEXPAVNvBody@@0M@Z 10163b60 f   MirrorManager.obj
 0001:00162e10       ?createPermanentyMirroredShape@MirrorManager@@AAE_NPAVNvShape@@PAVNvScene@@AAUPermanentlyMirroredShape@1@@Z 10163e10 f   MirrorManager.obj
 0001:00163360       ??0?$NxArray@PAUCachedMesh@MirrorManager@@VUserAllocatorAccess@NxFoundation@@@@QAE@XZ 10164360 f i MirrorManager.obj
 0001:00163370       ?size@?$NxArray@PAUCachedMesh@MirrorManager@@VUserAllocatorAccess@NxFoundation@@@@QBEIXZ 10164370 f i MirrorManager.obj
 0001:00163380       ??A?$NxArray@PAUCachedMesh@MirrorManager@@VUserAllocatorAccess@NxFoundation@@@@QAEAAPAUCachedMesh@MirrorManager@@I@Z 10164380 f i MirrorManager.obj
 0001:00163390       ??0?$NxArray@PAUDynamicMirror@MirrorManager@@VUserAllocatorAccess@NxFoundation@@@@QAE@XZ 10164390 f i MirrorManager.obj
 0001:001633a0       ?size@?$NxArray@PAUDynamicMirror@MirrorManager@@VUserAllocatorAccess@NxFoundation@@@@QBEIXZ 101643a0 f i MirrorManager.obj
 0001:001633b0       ??A?$NxArray@PAUDynamicMirror@MirrorManager@@VUserAllocatorAccess@NxFoundation@@@@QAEAAPAUDynamicMirror@MirrorManager@@I@Z 101643b0 f i MirrorManager.obj
 0001:001633c0       ??0?$NxArray@UPermanentlyMirroredShape@MirrorManager@@VUserAllocatorAccess@NxFoundation@@@@QAE@XZ 101643c0 f i MirrorManager.obj
 0001:001633d0       ?size@?$NxArray@UPermanentlyMirroredShape@MirrorManager@@VUserAllocatorAccess@NxFoundation@@@@QBEIXZ 101643d0 f i MirrorManager.obj
 0001:001633e0       ??A?$NxArray@UPermanentlyMirroredShape@MirrorManager@@VUserAllocatorAccess@NxFoundation@@@@QAEAAUPermanentlyMirroredShape@MirrorManager@@I@Z 101643e0 f i MirrorManager.obj
 0001:00163400       ??0?$NxArray@PAUBoundsMirror@MirrorManager@@VUserAllocatorAccess@NxFoundation@@@@QAE@XZ 10164400 f i MirrorManager.obj
 0001:00163410       ?size@?$NxArray@PAUBoundsMirror@MirrorManager@@VUserAllocatorAccess@NxFoundation@@@@QBEIXZ 10164410 f i MirrorManager.obj
 0001:00163420       ??A?$NxArray@PAUBoundsMirror@MirrorManager@@VUserAllocatorAccess@NxFoundation@@@@QAEAAPAUBoundsMirror@MirrorManager@@I@Z 10164420 f i MirrorManager.obj
 0001:00163430       ??0?$NxArray@PAUMirroredActor@MirrorManager@@VUserAllocatorAccess@NxFoundation@@@@QAE@XZ 10164430 f i MirrorManager.obj
 0001:00163440       ?size@?$NxArray@PAUMirroredActor@MirrorManager@@VUserAllocatorAccess@NxFoundation@@@@QBEIXZ 10164440 f i MirrorManager.obj
 0001:00163450       ??A?$NxArray@PAUMirroredActor@MirrorManager@@VUserAllocatorAccess@NxFoundation@@@@QAEAAPAUMirroredActor@MirrorManager@@I@Z 10164450 f i MirrorManager.obj
 0001:00163460       ?back@?$NxArray@PAUMirroredActor@MirrorManager@@VUserAllocatorAccess@NxFoundation@@@@QAEAAPAUMirroredActor@MirrorManager@@XZ 10164460 f i MirrorManager.obj
 0001:00163470       ??0?$NxArray@UAABBUpdate@MirrorManager@@VUserAllocatorAccess@NxFoundation@@@@QAE@XZ 10164470 f i MirrorManager.obj
 0001:00163480       ?size@?$NxArray@UAABBUpdate@MirrorManager@@VUserAllocatorAccess@NxFoundation@@@@QBEIXZ 10164480 f i MirrorManager.obj
 0001:00163490       ??A?$NxArray@UAABBUpdate@MirrorManager@@VUserAllocatorAccess@NxFoundation@@@@QAEAAUAABBUpdate@MirrorManager@@I@Z 10164490 f i MirrorManager.obj
 0001:001634b0       ??0?$NxArray@PAVNxShapeDesc@@VNxAllocatorDefault@@@@QAE@XZ 101644b0 f i MirrorManager.obj
 0001:001634c0       ?popBack@?$NxArray@PAUCachedMesh@MirrorManager@@VUserAllocatorAccess@NxFoundation@@@@QAEXXZ 101644c0 f i MirrorManager.obj
 0001:001634d0       ?back@?$NxArray@PAUCachedMesh@MirrorManager@@VUserAllocatorAccess@NxFoundation@@@@QAEAAPAUCachedMesh@MirrorManager@@XZ 101644d0 f i MirrorManager.obj
 0001:001634e0       ?deallocate@?$NxArray@PAUCachedMesh@MirrorManager@@VUserAllocatorAccess@NxFoundation@@@@AAEXPAPAUCachedMesh@MirrorManager@@@Z 101644e0 f i MirrorManager.obj
 0001:00163500       ?destroy@?$NxArray@PAUCachedMesh@MirrorManager@@VUserAllocatorAccess@NxFoundation@@@@AAEXPAPAUCachedMesh@MirrorManager@@0@Z 10164500 f i MirrorManager.obj
 0001:00163510       ?popBack@?$NxArray@PAUDynamicMirror@MirrorManager@@VUserAllocatorAccess@NxFoundation@@@@QAEXXZ 10164510 f i MirrorManager.obj
 0001:00163520       ?back@?$NxArray@PAUDynamicMirror@MirrorManager@@VUserAllocatorAccess@NxFoundation@@@@QAEAAPAUDynamicMirror@MirrorManager@@XZ 10164520 f i MirrorManager.obj
 0001:00163530       ?deallocate@?$NxArray@PAUDynamicMirror@MirrorManager@@VUserAllocatorAccess@NxFoundation@@@@AAEXPAPAUDynamicMirror@MirrorManager@@@Z 10164530 f i MirrorManager.obj
 0001:00163550       ?destroy@?$NxArray@PAUDynamicMirror@MirrorManager@@VUserAllocatorAccess@NxFoundation@@@@AAEXPAPAUDynamicMirror@MirrorManager@@0@Z 10164550 f i MirrorManager.obj
 0001:00163560       ?popBack@?$NxArray@UPermanentlyMirroredShape@MirrorManager@@VUserAllocatorAccess@NxFoundation@@@@QAEXXZ 10164560 f i MirrorManager.obj
 0001:00163570       ?back@?$NxArray@UPermanentlyMirroredShape@MirrorManager@@VUserAllocatorAccess@NxFoundation@@@@QAEAAUPermanentlyMirroredShape@MirrorManager@@XZ 10164570 f i MirrorManager.obj
 0001:00163580       ?deallocate@?$NxArray@UPermanentlyMirroredShape@MirrorManager@@VUserAllocatorAccess@NxFoundation@@@@AAEXPAUPermanentlyMirroredShape@MirrorManager@@@Z 10164580 f i MirrorManager.obj
 0001:001635a0       ?destroy@?$NxArray@UPermanentlyMirroredShape@MirrorManager@@VUserAllocatorAccess@NxFoundation@@@@AAEXPAUPermanentlyMirroredShape@MirrorManager@@0@Z 101645a0 f i MirrorManager.obj
 0001:001635b0       ?begin@?$NxArray@PAUBoundsMirror@MirrorManager@@VUserAllocatorAccess@NxFoundation@@@@QAEPAPAUBoundsMirror@MirrorManager@@XZ 101645b0 f i MirrorManager.obj
 0001:001635c0       ?end@?$NxArray@PAUBoundsMirror@MirrorManager@@VUserAllocatorAccess@NxFoundation@@@@QAEPAPAUBoundsMirror@MirrorManager@@XZ 101645c0 f i MirrorManager.obj
 0001:001635d0       ?reallocate@?$NxArray@PAUBoundsMirror@MirrorManager@@VUserAllocatorAccess@NxFoundation@@@@AAEPAPAUBoundsMirror@MirrorManager@@IPAPAU23@@Z 101645d0 f i MirrorManager.obj
 0001:00163600       ?deallocate@?$NxArray@PAUBoundsMirror@MirrorManager@@VUserAllocatorAccess@NxFoundation@@@@AAEXPAPAUBoundsMirror@MirrorManager@@@Z 10164600 f i MirrorManager.obj
 0001:00163620       ?destroy@?$NxArray@PAUBoundsMirror@MirrorManager@@VUserAllocatorAccess@NxFoundation@@@@AAEXPAPAUBoundsMirror@MirrorManager@@0@Z 10164620 f i MirrorManager.obj
 0001:00163630       ?popBack@?$NxArray@PAUMirroredActor@MirrorManager@@VUserAllocatorAccess@NxFoundation@@@@QAEXXZ 10164630 f i MirrorManager.obj
 0001:00163640       ?begin@?$NxArray@PAUMirroredActor@MirrorManager@@VUserAllocatorAccess@NxFoundation@@@@QAEPAPAUMirroredActor@MirrorManager@@XZ 10164640 f i MirrorManager.obj
 0001:00163650       ?end@?$NxArray@PAUMirroredActor@MirrorManager@@VUserAllocatorAccess@NxFoundation@@@@QAEPAPAUMirroredActor@MirrorManager@@XZ 10164650 f i MirrorManager.obj
 0001:00163660       ?deallocate@?$NxArray@PAUMirroredActor@MirrorManager@@VUserAllocatorAccess@NxFoundation@@@@AAEXPAPAUMirroredActor@MirrorManager@@@Z 10164660 f i MirrorManager.obj
 0001:00163680       ?destroy@?$NxArray@PAUMirroredActor@MirrorManager@@VUserAllocatorAccess@NxFoundation@@@@AAEXPAPAUMirroredActor@MirrorManager@@0@Z 10164680 f i MirrorManager.obj
 0001:00163690       ?begin@?$NxArray@UAABBUpdate@MirrorManager@@VUserAllocatorAccess@NxFoundation@@@@QAEPAUAABBUpdate@MirrorManager@@XZ 10164690 f i MirrorManager.obj
 0001:001636a0       ?end@?$NxArray@UAABBUpdate@MirrorManager@@VUserAllocatorAccess@NxFoundation@@@@QAEPAUAABBUpdate@MirrorManager@@XZ 101646a0 f i MirrorManager.obj
 0001:001636b0       ?deallocate@?$NxArray@UAABBUpdate@MirrorManager@@VUserAllocatorAccess@NxFoundation@@@@AAEXPAUAABBUpdate@MirrorManager@@@Z 101646b0 f i MirrorManager.obj
 0001:001636d0       ?destroy@?$NxArray@UAABBUpdate@MirrorManager@@VUserAllocatorAccess@NxFoundation@@@@AAEXPAUAABBUpdate@MirrorManager@@0@Z 101646d0 f i MirrorManager.obj
 0001:001636e0       ?begin@?$NxArray@PAVNxShapeDesc@@VNxAllocatorDefault@@@@QAEPAPAVNxShapeDesc@@XZ 101646e0 f i MirrorManager.obj
 0001:001636f0       ?end@?$NxArray@PAVNxShapeDesc@@VNxAllocatorDefault@@@@QAEPAPAVNxShapeDesc@@XZ 101646f0 f i MirrorManager.obj
 0001:00163700       ?deallocate@?$NxArray@PAVNxShapeDesc@@VNxAllocatorDefault@@@@AAEXPAPAVNxShapeDesc@@@Z 10164700 f i MirrorManager.obj
 0001:00163720       ?destroy@?$NxArray@PAVNxShapeDesc@@VNxAllocatorDefault@@@@AAEXPAPAVNxShapeDesc@@0@Z 10164720 f i MirrorManager.obj
 0001:00163730       ?capacity@?$NxArray@PAUCachedMesh@MirrorManager@@VUserAllocatorAccess@NxFoundation@@@@QBEIXZ 10164730 f i MirrorManager.obj
 0001:00163750       ?copy@?$NxArray@PAUCachedMesh@MirrorManager@@VUserAllocatorAccess@NxFoundation@@@@AAEPAPAUCachedMesh@MirrorManager@@PBQAU23@0PAPAU23@@Z 10164750 f i MirrorManager.obj
 0001:00163780       ?allocate@?$NxArray@PAUCachedMesh@MirrorManager@@VUserAllocatorAccess@NxFoundation@@@@AAEPAPAUCachedMesh@MirrorManager@@I@Z 10164780 f i MirrorManager.obj
 0001:001637b0       ?capacity@?$NxArray@PAUDynamicMirror@MirrorManager@@VUserAllocatorAccess@NxFoundation@@@@QBEIXZ 101647b0 f i MirrorManager.obj
 0001:001637d0       ?copy@?$NxArray@PAUDynamicMirror@MirrorManager@@VUserAllocatorAccess@NxFoundation@@@@AAEPAPAUDynamicMirror@MirrorManager@@PBQAU23@0PAPAU23@@Z 101647d0 f i MirrorManager.obj
 0001:00163800       ?allocate@?$NxArray@PAUDynamicMirror@MirrorManager@@VUserAllocatorAccess@NxFoundation@@@@AAEPAPAUDynamicMirror@MirrorManager@@I@Z 10164800 f i MirrorManager.obj
 0001:00163830       ?capacity@?$NxArray@PAUBoundsMirror@MirrorManager@@VUserAllocatorAccess@NxFoundation@@@@QBEIXZ 10164830 f i MirrorManager.obj
 0001:00163850       ?fill@?$NxArray@PAUBoundsMirror@MirrorManager@@VUserAllocatorAccess@NxFoundation@@@@AAEXPAPAUBoundsMirror@MirrorManager@@IABQAU23@@Z 10164850 f i MirrorManager.obj
 0001:00163880       ?copy@?$NxArray@PAUBoundsMirror@MirrorManager@@VUserAllocatorAccess@NxFoundation@@@@AAEPAPAUBoundsMirror@MirrorManager@@PBQAU23@0PAPAU23@@Z 10164880 f i MirrorManager.obj
 0001:001638b0       ?allocate@?$NxArray@PAUBoundsMirror@MirrorManager@@VUserAllocatorAccess@NxFoundation@@@@AAEPAPAUBoundsMirror@MirrorManager@@I@Z 101648b0 f i MirrorManager.obj
 0001:001638e0       ?capacity@?$NxArray@PAUMirroredActor@MirrorManager@@VUserAllocatorAccess@NxFoundation@@@@QBEIXZ 101648e0 f i MirrorManager.obj
 0001:00163900       ?copy@?$NxArray@PAUMirroredActor@MirrorManager@@VUserAllocatorAccess@NxFoundation@@@@AAEPAPAUMirroredActor@MirrorManager@@PBQAU23@0PAPAU23@@Z 10164900 f i MirrorManager.obj
 0001:00163930       ?allocate@?$NxArray@PAUMirroredActor@MirrorManager@@VUserAllocatorAccess@NxFoundation@@@@AAEPAPAUMirroredActor@MirrorManager@@I@Z 10164930 f i MirrorManager.obj
 0001:00163960       ?capacity@?$NxArray@UAABBUpdate@MirrorManager@@VUserAllocatorAccess@NxFoundation@@@@QBEIXZ 10164960 f i MirrorManager.obj
 0001:00163980       ?copy@?$NxArray@UAABBUpdate@MirrorManager@@VUserAllocatorAccess@NxFoundation@@@@AAEPAUAABBUpdate@MirrorManager@@PBU23@0PAU23@@Z 10164980 f i MirrorManager.obj
 0001:001639d0       ?allocate@?$NxArray@UAABBUpdate@MirrorManager@@VUserAllocatorAccess@NxFoundation@@@@AAEPAUAABBUpdate@MirrorManager@@I@Z 101649d0 f i MirrorManager.obj
 0001:00163a00       ?capacity@?$NxArray@UPermanentlyMirroredShape@MirrorManager@@VUserAllocatorAccess@NxFoundation@@@@QBEIXZ 10164a00 f i MirrorManager.obj
 0001:00163a20       ?copy@?$NxArray@UPermanentlyMirroredShape@MirrorManager@@VUserAllocatorAccess@NxFoundation@@@@AAEPAUPermanentlyMirroredShape@MirrorManager@@PBU23@0PAU23@@Z 10164a20 f i MirrorManager.obj
 0001:00163a70       ?allocate@?$NxArray@UPermanentlyMirroredShape@MirrorManager@@VUserAllocatorAccess@NxFoundation@@@@AAEPAUPermanentlyMirroredShape@MirrorManager@@I@Z 10164a70 f i MirrorManager.obj
 0001:00163aa0       ?unlock@NxSpinMutex@@QAEXXZ 10164aa0 f i MirrorManager.obj
 0001:00163ac0       ?trylock@NxSpinMutex@@AAE_NI@Z 10164ac0 f i MirrorManager.obj
 0001:00163b10       ??1NxSpinMutexLock@@QAE@XZ 10164b10 f i MirrorManager.obj
 0001:00163b30       ??0NxBodyDesc@@QAE@XZ      10164b30 f i MirrorManager.obj
 0001:00163bf0       ?release@FluidTri@@QAEXXZ  10164bf0 f i MirrorManager.obj
 0001:00163c60       ?setMaxV@FluidTri@@QAEXI@Z 10164c60 f i MirrorManager.obj
 0001:00163cb0       ??_GBoundsMirror@MirrorManager@@QAEPAXI@Z 10164cb0 f i MirrorManager.obj
